 xerces-c-3-1-4

 Timestamp is 59254d12 (Wed May 24 11:06:26 2017)

 Preferred load address is 12000000

 Start         Length     Name                   Class
 0001:00000000 000ae62bH .text                   CODE
 0001:000ae62b 0000b4deH .text$x                 CODE
 0001:000b9b09 0000009cH .text$yc                CODE
 0001:000b9ba5 00000107H .text$yd                CODE
 0002:00000000 000001c8H .idata$5                DATA
 0002:000001c8 00000004H .CRT$XCA                DATA
 0002:000001cc 00000034H .CRT$XCU                DATA
 0002:00000200 00000004H .CRT$XCZ                DATA
 0002:00000204 00000004H .CRT$XIA                DATA
 0002:00000208 00000004H .CRT$XIAA               DATA
 0002:0000020c 00000004H .CRT$XIC                DATA
 0002:00000210 00000004H .CRT$XIZ                DATA
 0002:00000220 00035288H .rdata                  DATA
 0002:000354a8 0000009eH .rdata$debug            DATA
 0002:00035548 0000a5a4H .rdata$r                DATA
 0002:0003faf0 00000cecH .rdata$sxdata           DATA
 0002:000407dc 00000004H .rtc$IAA                DATA
 0002:000407e0 00000004H .rtc$IZZ                DATA
 0002:000407e4 00000004H .rtc$TAA                DATA
 0002:000407e8 00000004H .rtc$TZZ                DATA
 0002:000407f0 0000f4ccH .xdata$x                DATA
 0002:0004fcbc 0000003cH .idata$2                DATA
 0002:0004fcf8 00000014H .idata$3                DATA
 0002:0004fd0c 000001c8H .idata$4                DATA
 0002:0004fed4 0000071eH .idata$6                DATA
 0002:00050600 000829e5H .edata                  DATA
 0003:00000000 00028020H .data                   DATA
 0003:00028020 000004bcH .bss                    DATA
 0004:00000000 000009a0H .rsrc$01                DATA
 0004:000009a0 00013140H .rsrc$02                DATA

  Address         Publics by Value              Rva+Base       Lib:Object

 0000:00000000       __except_list              00000000     <absolute>
 0000:0000033b       ___safe_se_handler_count   0000033b     <absolute>
 0000:00009876       __fltused                  00009876     <absolute>
 0000:00009876       __ldused                   00009876     <absolute>
 0000:00000000       ___ImageBase               12000000     <linker-defined>
 0001:00000000       ??0MemoryManager@xercesc_3_1@@IAE@XZ 12001000 f i Base64.obj
 0001:00000009       ?isPad@Base64@xercesc_3_1@@CA_NABE@Z 12001009 f i Base64.obj
 0001:00000019       ?set1stOctet@Base64@xercesc_3_1@@CAEABE0@Z 12001019 f i Base64.obj
 0001:00000032       ?set2ndOctet@Base64@xercesc_3_1@@CAEABE0@Z 12001032 f i Base64.obj
 0001:0000004b       ?set3rdOctet@Base64@xercesc_3_1@@CAEABE0@Z 1200104b f i Base64.obj
 0001:00000061       ?split1stOctet@Base64@xercesc_3_1@@CAXABEAAE1@Z 12001061 f i Base64.obj
 0001:0000007f       ?split2ndOctet@Base64@xercesc_3_1@@CAXABEAAE1@Z 1200107f f i Base64.obj
 0001:0000009d       ?split3rdOctet@Base64@xercesc_3_1@@CAXABEAAE1@Z 1200109d f i Base64.obj
 0001:000000b8       ?getExceptionMemoryManager@MemoryManagerImpl@xercesc_3_1@@UAEPAVMemoryManager@2@XZ 120010b8 f i MemoryManagerImpl.obj
 0001:000000b8       ??0OutOfMemoryException@xercesc_3_1@@QAE@XZ 120010b8 f i PlatformUtils.obj
 0001:000000b8       ??0XUtil@xercesc_3_1@@AAE@XZ 120010b8 f i SchemaInfo.obj
 0001:000000b8       ??0XMemory@xercesc_3_1@@IAE@XZ 120010b8 f i Base64.obj
 0001:000000bb       ??0DOMError@xercesc_3_1@@IAE@XZ 120010bb f i Base64.obj
 0001:000000c4       ??1DOMError@xercesc_3_1@@UAE@XZ 120010c4 f i Base64.obj
 0001:000000cb       ??_EDOMError@xercesc_3_1@@UAEPAXI@Z 120010cb f i Base64.obj
 0001:00000118       ??1XMLErrorReporter@xercesc_3_1@@UAE@XZ 12001118 f i Base64.obj
 0001:0000011f       ??0XMLErrorReporter@xercesc_3_1@@IAE@XZ 1200111f f i Base64.obj
 0001:00000128       ??_EXMLErrorReporter@xercesc_3_1@@UAEPAXI@Z 12001128 f i Base64.obj
 0001:00000175       ?getSrcFile@XMLException@xercesc_3_1@@QBEPBDXZ 12001175 f i Base64.obj
 0001:00000182       ?getErrorType@XMLException@xercesc_3_1@@QBE?AW4ErrTypes@XMLErrorReporter@2@XZ 12001182 f i Base64.obj
 0001:000001b8       ??0ArrayIndexOutOfBoundsException@xercesc_3_1@@QAE@QBD_KW4Codes@XMLExcepts@1@PAVMemoryManager@1@@Z 120011b8 f i Base64.obj
 0001:000001f8       ??0ArrayIndexOutOfBoundsException@xercesc_3_1@@QAE@ABV01@@Z 120011f8 f i Base64.obj
 0001:00000213       ??0ArrayIndexOutOfBoundsException@xercesc_3_1@@QAE@QBD_KW4Codes@XMLExcepts@1@QB_W333PAVMemoryManager@1@@Z 12001213 f i Base64.obj
 0001:0000025f       ??0ArrayIndexOutOfBoundsException@xercesc_3_1@@QAE@QBD_KW4Codes@XMLExcepts@1@0000PAVMemoryManager@1@@Z 1200125f f i Base64.obj
 0001:000002ab       ??1ArrayIndexOutOfBoundsException@xercesc_3_1@@UAE@XZ 120012ab f i Base64.obj
 0001:000002b6       ?duplicate@ArrayIndexOutOfBoundsException@xercesc_3_1@@UBEPAVXMLException@2@XZ 120012b6 f i Base64.obj
 0001:000002f7       ?getType@ArrayIndexOutOfBoundsException@xercesc_3_1@@UBEPB_WXZ 120012f7 f i Base64.obj
 0001:000002fd       ??_EArrayIndexOutOfBoundsException@xercesc_3_1@@UAEPAXI@Z 120012fd f i Base64.obj
 0001:0000034e       ??0PanicHandler@xercesc_3_1@@IAE@XZ 1200134e f i Base64.obj
 0001:00000357       ??1DefaultPanicHandler@xercesc_3_1@@UAE@XZ 12001357 f i DefaultPanicHandler.obj
 0001:00000357       ??1PanicHandler@xercesc_3_1@@UAE@XZ 12001357 f i Base64.obj
 0001:0000035e       ??_EPanicHandler@xercesc_3_1@@UAEPAXI@Z 1200135e f i Base64.obj
 0001:000003ab       ??_EXMLDeleter@xercesc_3_1@@UAEPAXI@Z 120013ab f i Base64.obj
 0001:000003f8       ??0XMLPlatformUtilsException@xercesc_3_1@@QAE@QBD_KW4Codes@XMLExcepts@1@PAVMemoryManager@1@@Z 120013f8 f i Base64.obj
 0001:00000438       ??0XMLPlatformUtilsException@xercesc_3_1@@QAE@ABV01@@Z 12001438 f i Base64.obj
 0001:00000453       ??0XMLPlatformUtilsException@xercesc_3_1@@QAE@QBD_KW4Codes@XMLExcepts@1@QB_W333PAVMemoryManager@1@@Z 12001453 f i Base64.obj
 0001:0000049f       ??0XMLPlatformUtilsException@xercesc_3_1@@QAE@QBD_KW4Codes@XMLExcepts@1@0000PAVMemoryManager@1@@Z 1200149f f i Base64.obj
 0001:000004eb       ??1XMLPlatformUtilsException@xercesc_3_1@@UAE@XZ 120014eb f i Base64.obj
 0001:000004f6       ?duplicate@XMLPlatformUtilsException@xercesc_3_1@@UBEPAVXMLException@2@XZ 120014f6 f i Base64.obj
 0001:00000537       ?getType@XMLPlatformUtilsException@xercesc_3_1@@UBEPB_WXZ 12001537 f i Base64.obj
 0001:0000053d       ??_EXMLPlatformUtilsException@xercesc_3_1@@UAEPAXI@Z 1200153d f i Base64.obj
 0001:0000058e       ?alignPointerForNewBlockAllocation@XMLPlatformUtils@xercesc_3_1@@SAKK@Z 1200158e f i Base64.obj
 0001:000005a2       ??1XMLDeleter@xercesc_3_1@@UAE@XZ 120015a2 f i Base64.obj
 0001:000005a9       ??0XMLDeleter@xercesc_3_1@@IAE@XZ 120015a9 f i Base64.obj
 0001:000005b2       ??0XMLBuffer@xercesc_3_1@@QAE@KQAVMemoryManager@1@@Z 120015b2 f i Base64.obj
 0001:000005ed       ??1XMLBuffer@xercesc_3_1@@QAE@XZ 120015ed f i Base64.obj
 0001:000005fb       ?setFullHandler@XMLBuffer@xercesc_3_1@@QAEXPAVXMLBufferFullHandler@2@K@Z 120015fb f i Base64.obj
 0001:0000062f       ?append@XMLBuffer@xercesc_3_1@@QAEX_W@Z 1200162f f i Base64.obj
 0001:00000657       ?append@XMLBuffer@xercesc_3_1@@QAEXQB_WK@Z 12001657 f i Base64.obj
 0001:0000069f       ?append@XMLBuffer@xercesc_3_1@@QAEXQB_W@Z 1200169f f i Base64.obj
 0001:000006ed       ?set@XMLBuffer@xercesc_3_1@@QAEXQB_WK@Z 120016ed f i Base64.obj
 0001:000006f9       ?set@XMLBuffer@xercesc_3_1@@QAEXQB_W@Z 120016f9 f i Base64.obj
 0001:00000718       ?getRawBuffer@XMLBuffer@xercesc_3_1@@QAEPA_WXZ 12001718 f i Base64.obj
 0001:00000718       ?getRawBuffer@XMLBuffer@xercesc_3_1@@QBEPB_WXZ 12001718 f i Base64.obj
 0001:00000729       ?reset@XMLBuffer@xercesc_3_1@@QAEXXZ 12001729 f i Base64.obj
 0001:0000072d       ?hasDefaults@DOMAttrMapImpl@xercesc_3_1@@UAE_NXZ 1200172d f i AbstractDOMParser.obj
 0001:0000072d       ?getInUse@XMLBuffer@xercesc_3_1@@QBE_NXZ 1200172d f i Base64.obj
 0001:0000072d       ?getStandardUriConformant@XMLScanner@xercesc_3_1@@QBE_NXZ 1200172d f i XMLValidator.obj
 0001:00000731       ?isEmpty@XMLBuffer@xercesc_3_1@@QBE_NXZ 12001731 f i Base64.obj
 0001:00000739       ?setInUse@XMLBuffer@xercesc_3_1@@QAEX_N@Z 12001739 f i Base64.obj
 0001:00000739       ?hasDefaults@DOMAttrMapImpl@xercesc_3_1@@UAEX_N@Z 12001739 f i AbstractDOMParser.obj
 0001:00000746       ??_FXMLBuffer@xercesc_3_1@@QAEXXZ 12001746 f i Base64.obj
 0001:00000757       ??1XMLBufferFullHandler@xercesc_3_1@@UAE@XZ 12001757 f i Base64.obj
 0001:0000075e       ??0XMLBufferFullHandler@xercesc_3_1@@QAE@XZ 1200175e f i Base64.obj
 0001:00000767       ??0XMLBufferFullHandler@xercesc_3_1@@QAE@ABV01@@Z 12001767 f i Base64.obj
 0001:00000772       ??_EXMLBufferFullHandler@xercesc_3_1@@UAEPAXI@Z 12001772 f i Base64.obj
 0001:000007bf       ?moveChars@XMLString@xercesc_3_1@@SAXQA_WQB_WK@Z 120017bf f i Base64.obj
 0001:000007d9       ?stringLen@XMLString@xercesc_3_1@@SAKQB_W@Z 120017d9 f i Base64.obj
 0001:000007fc       ?replicate@XMLString@xercesc_3_1@@SAPA_WQB_WQAVMemoryManager@2@@Z 120017fc f i Base64.obj
 0001:00000834       ?startsWith@XMLString@xercesc_3_1@@SA_NQB_W0@Z 12001834 f i Base64.obj
 0001:00000855       ?startsWithI@XMLString@xercesc_3_1@@SA_NQB_W0@Z 12001855 f i Base64.obj
 0001:00000876       ?endsWith@XMLString@xercesc_3_1@@SA_NQB_W0@Z 12001876 f i Base64.obj
 0001:000008a5       ?validateRegion@XMLString@xercesc_3_1@@CA_NQB_WH0HK@Z 120018a5 f i Base64.obj
 0001:000008e5       ?equals@XMLString@xercesc_3_1@@SA_NPB_W0@Z 120018e5 f i Base64.obj
 0001:0000093c       ?equalsN@XMLString@xercesc_3_1@@SA_NPB_W0K@Z 1200193c f i Base64.obj
 0001:000009a3       ?equals@XMLString@xercesc_3_1@@SA_NPBD0@Z 120019a3 f i Base64.obj
 0001:000009f2       ?equalsN@XMLString@xercesc_3_1@@SA_NPBD0K@Z 120019f2 f i Base64.obj
 0001:00000a4c       ?lastIndexOf@XMLString@xercesc_3_1@@SAHQB_W_W@Z 12001a4c f i Base64.obj
 0001:00000a68       ?hash@XMLString@xercesc_3_1@@SAKQB_WK@Z 12001a68 f i Base64.obj
 0001:00000aae       ?hashN@XMLString@xercesc_3_1@@SAKQB_WKK@Z 12001aae f i Base64.obj
 0001:00000aed       ?isXMLLetter@XMLChar1_0@xercesc_3_1@@SA_N_W0@Z 12001aed f i Base64.obj
 0001:00000b1a       ?isFirstNameChar@XMLChar1_0@xercesc_3_1@@SA_N_W0@Z 12001b1a f i Base64.obj
 0001:00000b3a       ?isFirstNCNameChar@XMLChar1_0@xercesc_3_1@@SA_N_W0@Z 12001b3a f i Base64.obj
 0001:00000b60       ?isNameChar@XMLChar1_0@xercesc_3_1@@SA_N_W0@Z 12001b60 f i Base64.obj
 0001:00000b81       ?isNCNameChar@XMLChar1_0@xercesc_3_1@@SA_N_W0@Z 12001b81 f i Base64.obj
 0001:00000b9f       ?isPlainContentChar@XMLChar1_0@xercesc_3_1@@SA_N_W0@Z 12001b9f f i Base64.obj
 0001:00000be5       ?isSpecialStartTagChar@XMLChar1_0@xercesc_3_1@@SA_N_W0@Z 12001be5 f i Base64.obj
 0001:00000c06       ?isXMLChar@XMLChar1_0@xercesc_3_1@@SA_N_W0@Z 12001c06 f i Base64.obj
 0001:00000c4c       ?isWhitespace@XMLChar1_0@xercesc_3_1@@SA_N_W@Z 12001c4c f i Base64.obj
 0001:00000c5f       ?isWhitespace@XMLChar1_0@xercesc_3_1@@SA_N_W0@Z 12001c5f f i Base64.obj
 0001:00000c7d       ?isControlChar@XMLChar1_0@xercesc_3_1@@SA_N_W0@Z 12001c7d f i Base64.obj
 0001:00000c9e       ?isNELRecognized@XMLPlatformUtils@xercesc_3_1@@SA_NXZ 12001c9e f i PlatformUtils.obj
 0001:00000c9e       ?isNELRecognized@XMLChar1_0@xercesc_3_1@@SA_NXZ 12001c9e f i Base64.obj
 0001:00000ca4       ?isXMLLetter@XMLChar1_1@xercesc_3_1@@SA_N_W0@Z 12001ca4 f i Base64.obj
 0001:00000cad       ?isFirstNameChar@XMLChar1_1@xercesc_3_1@@SA_N_W0@Z 12001cad f i Base64.obj
 0001:00000cf4       ?isFirstNCNameChar@XMLChar1_1@xercesc_3_1@@SA_N_W0@Z 12001cf4 f i Base64.obj
 0001:00000d46       ?isNameChar@XMLChar1_1@xercesc_3_1@@SA_N_W0@Z 12001d46 f i Base64.obj
 0001:00000d8e       ?isNCNameChar@XMLChar1_1@xercesc_3_1@@SA_N_W0@Z 12001d8e f i Base64.obj
 0001:00000dd3       ?isPlainContentChar@XMLChar1_1@xercesc_3_1@@SA_N_W0@Z 12001dd3 f i Base64.obj
 0001:00000e19       ?isSpecialStartTagChar@XMLChar1_1@xercesc_3_1@@SA_N_W0@Z 12001e19 f i Base64.obj
 0001:00000e3a       ?isXMLChar@XMLChar1_1@xercesc_3_1@@SA_N_W0@Z 12001e3a f i Base64.obj
 0001:00000e80       ?isWhitespace@XMLChar1_1@xercesc_3_1@@SA_N_W0@Z 12001e80 f i Base64.obj
 0001:00000e9e       ?isControlChar@XMLChar1_1@xercesc_3_1@@SA_N_W0@Z 12001e9e f i Base64.obj
 0001:00000ebf       ??0TranscodingException@xercesc_3_1@@QAE@QBD_KW4Codes@XMLExcepts@1@PAVMemoryManager@1@@Z 12001ebf f i Base64.obj
 0001:00000eff       ??0TranscodingException@xercesc_3_1@@QAE@ABV01@@Z 12001eff f i Base64.obj
 0001:00000f1a       ??0TranscodingException@xercesc_3_1@@QAE@QBD_KW4Codes@XMLExcepts@1@QB_W333PAVMemoryManager@1@@Z 12001f1a f i Base64.obj
 0001:00000f66       ??0TranscodingException@xercesc_3_1@@QAE@QBD_KW4Codes@XMLExcepts@1@0000PAVMemoryManager@1@@Z 12001f66 f i Base64.obj
 0001:00000fb2       ??1TranscodingException@xercesc_3_1@@UAE@XZ 12001fb2 f i Base64.obj
 0001:00000fbd       ?duplicate@TranscodingException@xercesc_3_1@@UBEPAVXMLException@2@XZ 12001fbd f i Base64.obj
 0001:00000ffe       ?getType@TranscodingException@xercesc_3_1@@UBEPB_WXZ 12001ffe f i Base64.obj
 0001:00001004       ??_ETranscodingException@xercesc_3_1@@UAEPAXI@Z 12002004 f i Base64.obj
 0001:00001055       ?isNameChar@XMLReader@xercesc_3_1@@QBE_N_W@Z 12002055 f i Base64.obj
 0001:00001070       ?isNCNameChar@XMLReader@xercesc_3_1@@QBE_N_W@Z 12002070 f i Base64.obj
 0001:00001088       ?isPlainContentChar@XMLReader@xercesc_3_1@@QBE_N_W@Z 12002088 f i Base64.obj
 0001:000010a3       ?isFirstNameChar@XMLReader@xercesc_3_1@@QBE_N_W@Z 120020a3 f i Base64.obj
 0001:000010bd       ?isFirstNCNameChar@XMLReader@xercesc_3_1@@QBE_N_W@Z 120020bd f i Base64.obj
 0001:000010e2       ?isSpecialStartTagChar@XMLReader@xercesc_3_1@@QBE_N_W@Z 120020e2 f i Base64.obj
 0001:000010fd       ?isXMLChar@XMLReader@xercesc_3_1@@QBE_N_W@Z 120020fd f i Base64.obj
 0001:00001118       ?isXMLLetter@XMLReader@xercesc_3_1@@QBE_N_W@Z 12002118 f i Base64.obj
 0001:00001144       ?isWhitespace@XMLReader@xercesc_3_1@@QBE_N_W@Z 12002144 f i Base64.obj
 0001:0000115c       ?isControlChar@XMLReader@xercesc_3_1@@QBE_N_W@Z 1200215c f i Base64.obj
 0001:00001177       ?charsLeftInBuffer@XMLReader@xercesc_3_1@@QBEKXZ 12002177 f i Base64.obj
 0001:00001180       ?getColumnNumber@XMLReader@xercesc_3_1@@QBE_KXZ 12002180 f i Base64.obj
 0001:0000118d       ?getEncodingStr@XMLReader@xercesc_3_1@@QBEPB_WXZ 1200218d f i Base64.obj
 0001:00001194       ?getLineNumber@XMLReader@xercesc_3_1@@QBE_KXZ 12002194 f i Base64.obj
 0001:000011a1       ?getNoMoreFlag@XMLReader@xercesc_3_1@@QBE_NXZ 120021a1 f i Base64.obj
 0001:000011a8       ?getPublicId@XMLReader@xercesc_3_1@@QBEPB_WXZ 120021a8 f i Base64.obj
 0001:000011af       ?getReaderNum@XMLReader@xercesc_3_1@@QBEKXZ 120021af f i Base64.obj
 0001:000011b6       ?getRefFrom@XMLReader@xercesc_3_1@@QBE?AW4RefFrom@12@XZ 120021b6 f i Base64.obj
 0001:000011bd       ?getSource@XMLReader@xercesc_3_1@@QBE?AW4Sources@12@XZ 120021bd f i Base64.obj
 0001:000011c4       ?getSystemId@XMLReader@xercesc_3_1@@QBEPB_WXZ 120021c4 f i Base64.obj
 0001:000011cb       ?getThrowAtEnd@XMLReader@xercesc_3_1@@QBE_NXZ 120021cb f i Base64.obj
 0001:000011d2       ?getType@XMLReader@xercesc_3_1@@QBE?AW4Types@12@XZ 120021d2 f i Base64.obj
 0001:000011d9       ?setReaderNum@XMLReader@xercesc_3_1@@QAEXK@Z 120021d9 f i Base64.obj
 0001:000011e9       ?setThrowAtEnd@XMLReader@xercesc_3_1@@QAEX_N@Z 120021e9 f i Base64.obj
 0001:000011f9       ?setXMLVersion@XMLReader@xercesc_3_1@@QAEXW4XMLVersion@12@@Z 120021f9 f i Base64.obj
 0001:00001235       ?movePlainContentChars@XMLReader@xercesc_3_1@@QAEXAAVXMLBuffer@2@@Z 12002235 f i Base64.obj
 0001:00001295       ?getNextCharIfNot@XMLReader@xercesc_3_1@@QAE_N_WAA_W@Z 12002295 f i Base64.obj
 0001:00001301       ?getNextChar@XMLReader@xercesc_3_1@@QAE_NAA_W@Z 12002301 f i Base64.obj
 0001:00001367       ?peekNextChar@XMLReader@xercesc_3_1@@QAE_NAA_W@Z 12002367 f i Base64.obj
 0001:000013d1       ?encode@Base64@xercesc_3_1@@SAPAEQBEKPAKQAVMemoryManager@2@@Z 120023d1 f   Base64.obj
 0001:00001596       ?getDataLength@Base64@xercesc_3_1@@SAHQB_WQAVMemoryManager@2@W4Conformance@12@@Z 12002596 f   Base64.obj
 0001:000015da       ?decode@Base64@xercesc_3_1@@SAPAEQBEPAKQAVMemoryManager@2@W4Conformance@12@@Z 120025da f   Base64.obj
 0001:00001621       ?decodeToXMLByte@Base64@xercesc_3_1@@SAPAEQB_WPAKQAVMemoryManager@2@W4Conformance@12@@Z 12002621 f   Base64.obj
 0001:000016b7       ?getCanonicalRepresentation@Base64@xercesc_3_1@@SAPA_WQB_WQAVMemoryManager@2@W4Conformance@12@@Z 120026b7 f   Base64.obj
 0001:000017e4       ?decode@Base64@xercesc_3_1@@CAPAEQBEPAKAAPAEQAVMemoryManager@2@W4Conformance@12@@Z 120027e4 f   Base64.obj
 0001:00001acf       ?isData@Base64@xercesc_3_1@@CA_NABE@Z 12002acf f   Base64.obj
 0001:00001ae6       ??1?$ArrayJanitor@E@xercesc_3_1@@QAE@XZ 12002ae6 f i Base64.obj
 0001:00001b0a       ??_EBinFileInputStream@xercesc_3_1@@UAEPAXI@Z 12002b0a f i BinFileInputStream.obj
 0001:00001b55       ??0BinFileInputStream@xercesc_3_1@@QAE@QB_WQAVMemoryManager@1@@Z 12002b55 f   BinFileInputStream.obj
 0001:00001b8e       ??0BinFileInputStream@xercesc_3_1@@QAE@QBDQAVMemoryManager@1@@Z 12002b8e f   BinFileInputStream.obj
 0001:00001bc7       ??0BinFileInputStream@xercesc_3_1@@QAE@QAXQAVMemoryManager@1@@Z 12002bc7 f   BinFileInputStream.obj
 0001:00001be2       ??1BinFileInputStream@xercesc_3_1@@UAE@XZ 12002be2 f   BinFileInputStream.obj
 0001:00001c2a       ?reset@BinFileInputStream@xercesc_3_1@@QAEXXZ 12002c2a f   BinFileInputStream.obj
 0001:00001c2a       ?reset@BinFileOutputStream@xercesc_3_1@@QAEXXZ 12002c2a f   BinFileOutputStream.obj
 0001:00001c38       ?curPos@BinFileInputStream@xercesc_3_1@@UBE_KXZ 12002c38 f   BinFileInputStream.obj
 0001:00001c38       ?curPos@BinFileOutputStream@xercesc_3_1@@UBE_KXZ 12002c38 f   BinFileOutputStream.obj
 0001:00001c46       ?readBytes@BinFileInputStream@xercesc_3_1@@UAEKQAEK@Z 12002c46 f   BinFileInputStream.obj
 0001:00001c61       ??_EBinInputStream@xercesc_3_1@@UAEPAXI@Z 12002c61 f i BinInputStream.obj
 0001:00001cad       ??1BinInputStream@xercesc_3_1@@UAE@XZ 12002cad f   BinInputStream.obj
 0001:00001cb4       ??0BinInputStream@xercesc_3_1@@IAE@XZ 12002cb4 f   BinInputStream.obj
 0001:00001cbd       ??_EBinMemInputStream@xercesc_3_1@@UAEPAXI@Z 12002cbd f i BinMemInputStream.obj
 0001:00001d08       ?reset@BinMemInputStream@xercesc_3_1@@QAEXXZ 12002d08 f i BinMemInputStream.obj
 0001:00001d0d       ??0BinMemInputStream@xercesc_3_1@@QAE@QBEKW4BufOpts@01@QAVMemoryManager@1@@Z 12002d0d f   BinMemInputStream.obj
 0001:00001d71       ??1BinMemInputStream@xercesc_3_1@@UAE@XZ 12002d71 f   BinMemInputStream.obj
 0001:00001daf       ?readBytes@BinMemInputStream@xercesc_3_1@@UAEKQAEK@Z 12002daf f   BinMemInputStream.obj
 0001:00001de7       ??0BitSet@xercesc_3_1@@QAE@KQAVMemoryManager@1@@Z 12002de7 f   BitSet.obj
 0001:00001e09       ??0BitSet@xercesc_3_1@@QAE@ABV01@@Z 12002e09 f   BitSet.obj
 0001:00001e50       ??1BitSet@xercesc_3_1@@QAE@XZ 12002e50 f   BitSet.obj
 0001:00001e5d       ?equals@BitSet@xercesc_3_1@@QBE_NABV12@@Z 12002e5d f   BitSet.obj
 0001:00001ea2       ?get@BitSet@xercesc_3_1@@QBE_NK@Z 12002ea2 f   BitSet.obj
 0001:00001ecf       ?size@BitSet@xercesc_3_1@@QBEKXZ 12002ecf f   BitSet.obj
 0001:00001ed6       ?allAreCleared@BitSet@xercesc_3_1@@QBE_NXZ 12002ed6 f   BitSet.obj
 0001:00001ef5       ?allAreSet@BitSet@xercesc_3_1@@QBE_NXZ 12002ef5 f   BitSet.obj
 0001:00001f14       ?clearAll@BitSet@xercesc_3_1@@QAEXXZ 12002f14 f   BitSet.obj
 0001:00001f29       ?clear@BitSet@xercesc_3_1@@QAEXK@Z 12002f29 f   BitSet.obj
 0001:00001f5b       ?set@BitSet@xercesc_3_1@@QAEXK@Z 12002f5b f   BitSet.obj
 0001:00001f8b       ?andWith@BitSet@xercesc_3_1@@QAEXABV12@@Z 12002f8b f   BitSet.obj
 0001:00001fc7       ?orWith@BitSet@xercesc_3_1@@QAEXABV12@@Z 12002fc7 f   BitSet.obj
 0001:00002003       ?xorWith@BitSet@xercesc_3_1@@QAEXABV12@@Z 12003003 f   BitSet.obj
 0001:0000203f       ?hash@BitSet@xercesc_3_1@@QBEKK@Z 1200303f f   BitSet.obj
 0001:00002066       ?ensureCapacity@BitSet@xercesc_3_1@@AAEXK@Z 12003066 f   BitSet.obj
 0001:000020e0       ??0DefaultPanicHandler@xercesc_3_1@@QAE@XZ 120030e0 f i DefaultPanicHandler.obj
 0001:000020e9       ??_EDefaultPanicHandler@xercesc_3_1@@UAEPAXI@Z 120030e9 f i DefaultPanicHandler.obj
 0001:00002135       ?panic@DefaultPanicHandler@xercesc_3_1@@UAEXW4PanicReasons@PanicHandler@2@@Z 12003135 f   DefaultPanicHandler.obj
 0001:00002165       ??0IllegalArgumentException@xercesc_3_1@@QAE@QBD_KW4Codes@XMLExcepts@1@PAVMemoryManager@1@@Z 12003165 f i EncodingValidator.obj
 0001:000021a5       ??0IllegalArgumentException@xercesc_3_1@@QAE@ABV01@@Z 120031a5 f i EncodingValidator.obj
 0001:000021c0       ??0IllegalArgumentException@xercesc_3_1@@QAE@QBD_KW4Codes@XMLExcepts@1@QB_W333PAVMemoryManager@1@@Z 120031c0 f i EncodingValidator.obj
 0001:0000220c       ??0IllegalArgumentException@xercesc_3_1@@QAE@QBD_KW4Codes@XMLExcepts@1@0000PAVMemoryManager@1@@Z 1200320c f i EncodingValidator.obj
 0001:00002258       ??1IllegalArgumentException@xercesc_3_1@@UAE@XZ 12003258 f i EncodingValidator.obj
 0001:00002263       ?duplicate@IllegalArgumentException@xercesc_3_1@@UBEPAVXMLException@2@XZ 12003263 f i EncodingValidator.obj
 0001:000022a4       ?getType@IllegalArgumentException@xercesc_3_1@@UBEPB_WXZ 120032a4 f i EncodingValidator.obj
 0001:000022aa       ??_EIllegalArgumentException@xercesc_3_1@@UAEPAXI@Z 120032aa f i EncodingValidator.obj
 0001:000022fb       ??0NoSuchElementException@xercesc_3_1@@QAE@QBD_KW4Codes@XMLExcepts@1@PAVMemoryManager@1@@Z 120032fb f i EncodingValidator.obj
 0001:0000233b       ??0NoSuchElementException@xercesc_3_1@@QAE@ABV01@@Z 1200333b f i EncodingValidator.obj
 0001:00002356       ??0NoSuchElementException@xercesc_3_1@@QAE@QBD_KW4Codes@XMLExcepts@1@QB_W333PAVMemoryManager@1@@Z 12003356 f i EncodingValidator.obj
 0001:000023a2       ??0NoSuchElementException@xercesc_3_1@@QAE@QBD_KW4Codes@XMLExcepts@1@0000PAVMemoryManager@1@@Z 120033a2 f i EncodingValidator.obj
 0001:000023ee       ??1NoSuchElementException@xercesc_3_1@@UAE@XZ 120033ee f i EncodingValidator.obj
 0001:000023f9       ?duplicate@NoSuchElementException@xercesc_3_1@@UBEPAVXMLException@2@XZ 120033f9 f i EncodingValidator.obj
 0001:0000243a       ?getType@NoSuchElementException@xercesc_3_1@@UBEPB_WXZ 1200343a f i EncodingValidator.obj
 0001:00002440       ??_ENoSuchElementException@xercesc_3_1@@UAEPAXI@Z 12003440 f i EncodingValidator.obj
 0001:00002491       ??0RuntimeException@xercesc_3_1@@QAE@QBD_KW4Codes@XMLExcepts@1@PAVMemoryManager@1@@Z 12003491 f i EncodingValidator.obj
 0001:000024d1       ??0RuntimeException@xercesc_3_1@@QAE@ABV01@@Z 120034d1 f i EncodingValidator.obj
 0001:000024ec       ??0RuntimeException@xercesc_3_1@@QAE@QBD_KW4Codes@XMLExcepts@1@QB_W333PAVMemoryManager@1@@Z 120034ec f i EncodingValidator.obj
 0001:00002538       ??0RuntimeException@xercesc_3_1@@QAE@QBD_KW4Codes@XMLExcepts@1@0000PAVMemoryManager@1@@Z 12003538 f i EncodingValidator.obj
 0001:00002584       ??1RuntimeException@xercesc_3_1@@UAE@XZ 12003584 f i EncodingValidator.obj
 0001:0000258f       ?duplicate@RuntimeException@xercesc_3_1@@UBEPAVXMLException@2@XZ 1200358f f i EncodingValidator.obj
 0001:000025d0       ?getType@RuntimeException@xercesc_3_1@@UBEPB_WXZ 120035d0 f i EncodingValidator.obj
 0001:000025d6       ??_ERuntimeException@xercesc_3_1@@UAEPAXI@Z 120035d6 f i EncodingValidator.obj
 0001:00002627       ??0NullPointerException@xercesc_3_1@@QAE@QBD_KW4Codes@XMLExcepts@1@PAVMemoryManager@1@@Z 12003627 f i EncodingValidator.obj
 0001:00002667       ??0NullPointerException@xercesc_3_1@@QAE@ABV01@@Z 12003667 f i EncodingValidator.obj
 0001:00002682       ??0NullPointerException@xercesc_3_1@@QAE@QBD_KW4Codes@XMLExcepts@1@QB_W333PAVMemoryManager@1@@Z 12003682 f i EncodingValidator.obj
 0001:000026ce       ??0NullPointerException@xercesc_3_1@@QAE@QBD_KW4Codes@XMLExcepts@1@0000PAVMemoryManager@1@@Z 120036ce f i EncodingValidator.obj
 0001:0000271a       ??1NullPointerException@xercesc_3_1@@UAE@XZ 1200371a f i EncodingValidator.obj
 0001:00002725       ?duplicate@NullPointerException@xercesc_3_1@@UBEPAVXMLException@2@XZ 12003725 f i EncodingValidator.obj
 0001:00002766       ?getType@NullPointerException@xercesc_3_1@@UBEPB_WXZ 12003766 f i EncodingValidator.obj
 0001:0000276c       ??_ENullPointerException@xercesc_3_1@@UAEPAXI@Z 1200376c f i EncodingValidator.obj
 0001:000027bd       ?initializeEncodingValidator@XMLInitializer@xercesc_3_1@@CAXXZ 120037bd f   EncodingValidator.obj
 0001:000027f9       ?terminateEncodingValidator@XMLInitializer@xercesc_3_1@@CAXXZ 120037f9 f   EncodingValidator.obj
 0001:0000281c       ??0EncodingValidator@xercesc_3_1@@AAE@XZ 1200381c f   EncodingValidator.obj
 0001:0000282b       ??1EncodingValidator@xercesc_3_1@@AAE@XZ 1200382b f   EncodingValidator.obj
 0001:00002840       ?isValidEncoding@EncodingValidator@xercesc_3_1@@QAE_NQB_W@Z 12003840 f   EncodingValidator.obj
 0001:0000287d       ?initializeRegistry@EncodingValidator@xercesc_3_1@@AAEXXZ 1200387d f   EncodingValidator.obj
 0001:0000291a       ?instance@EncodingValidator@xercesc_3_1@@SAPAV12@XZ 1200391a f   EncodingValidator.obj
 0001:00002920       ?put@?$ValueHashTableOf@_NUStringHasher@xercesc_3_1@@@xercesc_3_1@@QAEXPAXAB_N@Z 12003920 f i EncodingValidator.obj
 0001:000029b2       ?rehash@?$ValueHashTableOf@_NUStringHasher@xercesc_3_1@@@xercesc_3_1@@AAEXXZ 120039b2 f i EncodingValidator.obj
 0001:00002a5e       ?swapBytes@BitOps@xercesc_3_1@@SA_WG@Z 12003a5e f i HeaderDummy.obj
 0001:00002a71       ?swapBytes@BitOps@xercesc_3_1@@SAII@Z 12003a71 f i HeaderDummy.obj
 0001:00002a9c       ??0EmptyStackException@xercesc_3_1@@QAE@QBD_KW4Codes@XMLExcepts@1@PAVMemoryManager@1@@Z 12003a9c f i HeaderDummy.obj
 0001:00002adc       ??0EmptyStackException@xercesc_3_1@@QAE@ABV01@@Z 12003adc f i HeaderDummy.obj
 0001:00002af7       ??0EmptyStackException@xercesc_3_1@@QAE@QBD_KW4Codes@XMLExcepts@1@QB_W333PAVMemoryManager@1@@Z 12003af7 f i HeaderDummy.obj
 0001:00002b43       ??0EmptyStackException@xercesc_3_1@@QAE@QBD_KW4Codes@XMLExcepts@1@0000PAVMemoryManager@1@@Z 12003b43 f i HeaderDummy.obj
 0001:00002b8f       ??1EmptyStackException@xercesc_3_1@@UAE@XZ 12003b8f f i HeaderDummy.obj
 0001:00002b9a       ?duplicate@EmptyStackException@xercesc_3_1@@UBEPAVXMLException@2@XZ 12003b9a f i HeaderDummy.obj
 0001:00002bdb       ?getType@EmptyStackException@xercesc_3_1@@UBEPB_WXZ 12003bdb f i HeaderDummy.obj
 0001:00002be1       ??_EEmptyStackException@xercesc_3_1@@UAEPAXI@Z 12003be1 f i HeaderDummy.obj
 0001:00002c32       ??0InvalidCastException@xercesc_3_1@@QAE@QBD_KW4Codes@XMLExcepts@1@PAVMemoryManager@1@@Z 12003c32 f i HeaderDummy.obj
 0001:00002c72       ??0InvalidCastException@xercesc_3_1@@QAE@ABV01@@Z 12003c72 f i HeaderDummy.obj
 0001:00002c8d       ??0InvalidCastException@xercesc_3_1@@QAE@QBD_KW4Codes@XMLExcepts@1@QB_W333PAVMemoryManager@1@@Z 12003c8d f i HeaderDummy.obj
 0001:00002cd9       ??0InvalidCastException@xercesc_3_1@@QAE@QBD_KW4Codes@XMLExcepts@1@0000PAVMemoryManager@1@@Z 12003cd9 f i HeaderDummy.obj
 0001:00002d25       ??1InvalidCastException@xercesc_3_1@@UAE@XZ 12003d25 f i HeaderDummy.obj
 0001:00002d30       ?duplicate@InvalidCastException@xercesc_3_1@@UBEPAVXMLException@2@XZ 12003d30 f i HeaderDummy.obj
 0001:00002d71       ?getType@InvalidCastException@xercesc_3_1@@UBEPB_WXZ 12003d71 f i HeaderDummy.obj
 0001:00002d77       ??_EInvalidCastException@xercesc_3_1@@UAEPAXI@Z 12003d77 f i HeaderDummy.obj
 0001:00002dc8       ??0IOException@xercesc_3_1@@QAE@QBD_KW4Codes@XMLExcepts@1@PAVMemoryManager@1@@Z 12003dc8 f i HeaderDummy.obj
 0001:00002e08       ??0IOException@xercesc_3_1@@QAE@ABV01@@Z 12003e08 f i HeaderDummy.obj
 0001:00002e23       ??0IOException@xercesc_3_1@@QAE@QBD_KW4Codes@XMLExcepts@1@QB_W333PAVMemoryManager@1@@Z 12003e23 f i HeaderDummy.obj
 0001:00002e6f       ??0IOException@xercesc_3_1@@QAE@QBD_KW4Codes@XMLExcepts@1@0000PAVMemoryManager@1@@Z 12003e6f f i HeaderDummy.obj
 0001:00002ebb       ??1IOException@xercesc_3_1@@UAE@XZ 12003ebb f i HeaderDummy.obj
 0001:00002ec6       ?duplicate@IOException@xercesc_3_1@@UBEPAVXMLException@2@XZ 12003ec6 f i HeaderDummy.obj
 0001:00002f07       ?getType@IOException@xercesc_3_1@@UBEPB_WXZ 12003f07 f i HeaderDummy.obj
 0001:00002f0d       ??_EIOException@xercesc_3_1@@UAEPAXI@Z 12003f0d f i HeaderDummy.obj
 0001:00002f5e       ??0UnexpectedEOFException@xercesc_3_1@@QAE@QBD_KW4Codes@XMLExcepts@1@PAVMemoryManager@1@@Z 12003f5e f i HeaderDummy.obj
 0001:00002f9e       ??0UnexpectedEOFException@xercesc_3_1@@QAE@ABV01@@Z 12003f9e f i HeaderDummy.obj
 0001:00002fb9       ??0UnexpectedEOFException@xercesc_3_1@@QAE@QBD_KW4Codes@XMLExcepts@1@QB_W333PAVMemoryManager@1@@Z 12003fb9 f i HeaderDummy.obj
 0001:00003005       ??0UnexpectedEOFException@xercesc_3_1@@QAE@QBD_KW4Codes@XMLExcepts@1@0000PAVMemoryManager@1@@Z 12004005 f i HeaderDummy.obj
 0001:00003051       ??1UnexpectedEOFException@xercesc_3_1@@UAE@XZ 12004051 f i HeaderDummy.obj
 0001:0000305c       ?duplicate@UnexpectedEOFException@xercesc_3_1@@UBEPAVXMLException@2@XZ 1200405c f i HeaderDummy.obj
 0001:0000309d       ?getType@UnexpectedEOFException@xercesc_3_1@@UBEPB_WXZ 1200409d f i HeaderDummy.obj
 0001:000030a3       ??_EUnexpectedEOFException@xercesc_3_1@@UAEPAXI@Z 120040a3 f i HeaderDummy.obj
 0001:000030f4       ??0UnsupportedEncodingException@xercesc_3_1@@QAE@QBD_KW4Codes@XMLExcepts@1@PAVMemoryManager@1@@Z 120040f4 f i HeaderDummy.obj
 0001:00003134       ??0UnsupportedEncodingException@xercesc_3_1@@QAE@ABV01@@Z 12004134 f i HeaderDummy.obj
 0001:0000314f       ??0UnsupportedEncodingException@xercesc_3_1@@QAE@QBD_KW4Codes@XMLExcepts@1@QB_W333PAVMemoryManager@1@@Z 1200414f f i HeaderDummy.obj
 0001:0000319b       ??0UnsupportedEncodingException@xercesc_3_1@@QAE@QBD_KW4Codes@XMLExcepts@1@0000PAVMemoryManager@1@@Z 1200419b f i HeaderDummy.obj
 0001:000031e7       ??1UnsupportedEncodingException@xercesc_3_1@@UAE@XZ 120041e7 f i HeaderDummy.obj
 0001:000031f2       ?duplicate@UnsupportedEncodingException@xercesc_3_1@@UBEPAVXMLException@2@XZ 120041f2 f i HeaderDummy.obj
 0001:00003233       ?getType@UnsupportedEncodingException@xercesc_3_1@@UBEPB_WXZ 12004233 f i HeaderDummy.obj
 0001:00003239       ??_EUnsupportedEncodingException@xercesc_3_1@@UAEPAXI@Z 12004239 f i HeaderDummy.obj
 0001:0000328a       ??0UTFDataFormatException@xercesc_3_1@@QAE@QBD_KW4Codes@XMLExcepts@1@PAVMemoryManager@1@@Z 1200428a f i HeaderDummy.obj
 0001:000032ca       ??0UTFDataFormatException@xercesc_3_1@@QAE@ABV01@@Z 120042ca f i HeaderDummy.obj
 0001:000032e5       ??0UTFDataFormatException@xercesc_3_1@@QAE@QBD_KW4Codes@XMLExcepts@1@QB_W333PAVMemoryManager@1@@Z 120042e5 f i HeaderDummy.obj
 0001:00003331       ??0UTFDataFormatException@xercesc_3_1@@QAE@QBD_KW4Codes@XMLExcepts@1@0000PAVMemoryManager@1@@Z 12004331 f i HeaderDummy.obj
 0001:0000337d       ??1UTFDataFormatException@xercesc_3_1@@UAE@XZ 1200437d f i HeaderDummy.obj
 0001:00003388       ?duplicate@UTFDataFormatException@xercesc_3_1@@UBEPAVXMLException@2@XZ 12004388 f i HeaderDummy.obj
 0001:000033c9       ?getType@UTFDataFormatException@xercesc_3_1@@UBEPB_WXZ 120043c9 f i HeaderDummy.obj
 0001:000033cf       ??_EUTFDataFormatException@xercesc_3_1@@UAEPAXI@Z 120043cf f i HeaderDummy.obj
 0001:00003420       ?getDataLength@HexBin@xercesc_3_1@@SAHQB_W@Z 12004420 f   HexBin.obj
 0001:00003445       ?isArrayByteHex@HexBin@xercesc_3_1@@SA_NQB_W@Z 12004445 f   HexBin.obj
 0001:00003487       ?getCanonicalRepresentation@HexBin@xercesc_3_1@@SAPA_WQB_WQAVMemoryManager@2@@Z 12004487 f   HexBin.obj
 0001:000034b6       ?decodeToXMLByte@HexBin@xercesc_3_1@@SAPAEQB_WQAVMemoryManager@2@@Z 120044b6 f   HexBin.obj
 0001:0000355f       ?isHex@HexBin@xercesc_3_1@@CA_NAB_W@Z 1200455f f   HexBin.obj
 0001:00003584       ??0XSerializationException@xercesc_3_1@@QAE@QBD_KW4Codes@XMLExcepts@1@PAVMemoryManager@1@@Z 12004584 f i KVStringPair.obj
 0001:000035c4       ??0XSerializationException@xercesc_3_1@@QAE@ABV01@@Z 120045c4 f i KVStringPair.obj
 0001:000035df       ??0XSerializationException@xercesc_3_1@@QAE@QBD_KW4Codes@XMLExcepts@1@QB_W333PAVMemoryManager@1@@Z 120045df f i KVStringPair.obj
 0001:0000362b       ??0XSerializationException@xercesc_3_1@@QAE@QBD_KW4Codes@XMLExcepts@1@0000PAVMemoryManager@1@@Z 1200462b f i KVStringPair.obj
 0001:00003677       ??1XSerializationException@xercesc_3_1@@UAE@XZ 12004677 f i KVStringPair.obj
 0001:00003682       ?duplicate@XSerializationException@xercesc_3_1@@UBEPAVXMLException@2@XZ 12004682 f i KVStringPair.obj
 0001:000036c3       ?getType@XSerializationException@xercesc_3_1@@UBEPB_WXZ 120046c3 f i KVStringPair.obj
 0001:000036c9       ??_EXSerializationException@xercesc_3_1@@UAEPAXI@Z 120046c9 f i KVStringPair.obj
 0001:0000371a       ?isStoring@XSerializeEngine@xercesc_3_1@@QBE_NXZ 1200471a f i KVStringPair.obj
 0001:00003723       ?isLoading@XSerializeEngine@xercesc_3_1@@QBE_NXZ 12004723 f i KVStringPair.obj
 0001:0000372d       ?ensureStoring@XSerializeEngine@xercesc_3_1@@ABEXXZ 1200472d f i KVStringPair.obj
 0001:00003745       ?ensureLoading@XSerializeEngine@xercesc_3_1@@ABEXXZ 12004745 f i KVStringPair.obj
 0001:0000375d       ?Assert@XSerializeEngine@xercesc_3_1@@ABEX_NW4Codes@XMLExcepts@2@@Z 1200475d f i KVStringPair.obj
 0001:00003798       ?readString@XSerializeEngine@xercesc_3_1@@QAEXAAPA_WAAK@Z 12004798 f i KVStringPair.obj
 0001:000037b0       ?readString@XSerializeEngine@xercesc_3_1@@QAEXAAPA_W@Z 120047b0 f i KVStringPair.obj
 0001:000037ca       ?readString@XSerializeEngine@xercesc_3_1@@QAEXAAPAEAAK@Z 120047ca f i KVStringPair.obj
 0001:000037e2       ?readString@XSerializeEngine@xercesc_3_1@@QAEXAAPAE@Z 120047e2 f i KVStringPair.obj
 0001:000037fc       ?getBufCur@XSerializeEngine@xercesc_3_1@@QBEKXZ 120047fc f i KVStringPair.obj
 0001:00003803       ?getBufCurAccumulated@XSerializeEngine@xercesc_3_1@@QBEKXZ 12004803 f i KVStringPair.obj
 0001:0000381b       ??0XSerializable@xercesc_3_1@@IAE@XZ 1200481b f i KVStringPair.obj
 0001:00003824       ??0XSerializable@xercesc_3_1@@IAE@ABV01@@Z 12004824 f i KVStringPair.obj
 0001:0000382f       ??_EXSerializable@xercesc_3_1@@UAEPAXI@Z 1200482f f i KVStringPair.obj
 0001:0000387c       ??_FKVStringPair@xercesc_3_1@@QAEXXZ 1200487c f i KVStringPair.obj
 0001:00003888       ??_EKVStringPair@xercesc_3_1@@UAEPAXI@Z 12004888 f i KVStringPair.obj
 0001:000038d3       ?getMemoryManager@XMLTranscoder@xercesc_3_1@@QBEPAVMemoryManager@2@XZ 120048d3 f i PlatformUtils.obj
 0001:000038d3       ?getNewLine@DOMLSSerializerImpl@xercesc_3_1@@UBEPB_WXZ 120048d3 f i DOMLSSerializerImpl.obj
 0001:000038d3       ?getSystemId@DOMLSOutputImpl@xercesc_3_1@@UBEPB_WXZ 120048d3 f i DOMImplementationImpl.obj
 0001:000038d3       ?getTargetNamespace@XMLSchemaDescriptionImpl@xercesc_3_1@@UBEPB_WXZ 120048d3 f i XMLSchemaDescriptionImpl.obj
 0001:000038d3       ?getFinalSet@DatatypeValidator@xercesc_3_1@@QBEHXZ 120048d3 f i XMLAttr.obj
 0001:000038d3       ?getUnRepFlags@XMLFormatter@xercesc_3_1@@QBE?AW4UnRepFlags@12@XZ 120048d3 f i LocalFileFormatTarget.obj
 0001:000038d3       ?getSelector@IdentityConstraint@xercesc_3_1@@QBEPAVIC_Selector@2@XZ 120048d3 f i XMLElementDecl.obj
 0001:000038d3       ?getScale@XMLBigDecimal@xercesc_3_1@@QBEIXZ 120048d3 f i XMLAbstractDoubleFloat.obj
 0001:000038d3       ?getOptions@RegxParser@xercesc_3_1@@QBEHXZ 120048d3 f i ParserForXMLSchema.obj
 0001:000038d3       ?getReferenceNo@StringToken@xercesc_3_1@@UBEHXZ 120048d3 f i ParserForXMLSchema.obj
 0001:000038d3       ?getWhatToShow@DOMNodeIteratorImpl@xercesc_3_1@@UAEKXZ 120048d3 f i DOMNodeIteratorImpl.obj
 0001:000038d3       ?getNameId@XercesGroupInfo@xercesc_3_1@@QBEIXZ 120048d3 f i XMLGrammarPoolImpl.obj
 0001:000038d3       ?getDocTypeHandler@DTDScanner@xercesc_3_1@@QAEPAVDocTypeHandler@2@XZ 120048d3 f i DGXMLScanner.obj
 0001:000038d3       ?getNextOp@Op@xercesc_3_1@@QBEPBV12@XZ 120048d3 f i Op.obj
 0001:000038d3       ?getChar@CharToken@xercesc_3_1@@UBEHXZ 120048d3 f i CharToken.obj
 0001:000038d3       ?getLocationPaths@XercesXPath@xercesc_3_1@@QBEPAV?$RefVectorOf@VXercesLocationPath@xercesc_3_1@@@2@XZ 120048d3 f i XMLGrammarPoolImpl.obj
 0001:000038d3       ?getBaseURI@XMLResourceIdentifier@xercesc_3_1@@QBEPB_WXZ 120048d3 f i DGXMLScanner.obj
 0001:000038d3       ?getKey@XMLNotationDecl@xercesc_3_1@@QBEPB_WXZ 120048d3 f i XMLDTDDescription.obj
 0001:000038d3       ?getTargetNSURI@SchemaInfo@xercesc_3_1@@QBEHXZ 120048d3 f i IGXMLScanner.obj
 0001:000038d3       ?getReaderMgr@XMLValidator@xercesc_3_1@@IBEPBVReaderMgr@2@XZ 120048d3 f i XMLValidator.obj
 0001:000038d3       ?getEntityDeclPool@ValidationContextImpl@xercesc_3_1@@UBEPBV?$NameIdPool@VDTDEntityDecl@xercesc_3_1@@@2@XZ 120048d3 f i ValidationContextImpl.obj
 0001:000038d3       ?getMessage@DOMErrorImpl@xercesc_3_1@@UBEPB_WXZ 120048d3 f i DOMLSParserImpl.obj
 0001:000038d3       ?getTokenFactory@RangeTokenMap@xercesc_3_1@@QBEPAVTokenFactory@2@XZ 120048d3 f i ASCIIRangeFactory.obj
 0001:000038d3       ?getUserInfo@XMLUri@xercesc_3_1@@QBEPB_WXZ 120048d3 f i XMLString.obj
 0001:000038d3       ?getKey@KVStringPair@xercesc_3_1@@QBEPB_WXZ 120048d3 f i KVStringPair.obj
 0001:000038d3       ?getReaderMgr@XMLValidator@xercesc_3_1@@IAEPAVReaderMgr@2@XZ 120048d3 f i XMLValidator.obj
 0001:000038d3       ?getCreateReason@XMLElementDecl@xercesc_3_1@@QBE?AW4CreateReasons@12@XZ 120048d3 f i XMLDTDDescription.obj
 0001:000038d3       ?getLeafCount@ContentLeafNameTypeVector@xercesc_3_1@@QBEKXZ 120048d3 f i ContentLeafNameTypeVector.obj
 0001:000038d3       ?getDerivedBy@ComplexTypeInfo@xercesc_3_1@@QBEHXZ 120048d3 f i XMLElementDecl.obj
 0001:000038d3       ?getLen@MemBufFormatTarget@xercesc_3_1@@QBEKXZ 120048d3 f i MemBufFormatTarget.obj
 0001:000038d3       ?getHost@XMLURL@xercesc_3_1@@QBEPB_WXZ 120048d3 f i PlatformUtils.obj
 0001:000038d3       ?getPublicId@InputSource@xercesc_3_1@@UBEPB_WXZ 120048d3 f i LocalFileInputSource.obj
 0001:000038d3       ?getNamespaceId@XercesAttGroupInfo@xercesc_3_1@@QBEIXZ 120048d3 f i XMLGrammarPoolImpl.obj
 0001:000038d3       ?getSchemaNormalizedValue@PSVIItem@xercesc_3_1@@QAEPB_WXZ 120048d3 f i PSVIAttribute.obj
 0001:000038d3       ?getCurrentNode@DOMTreeWalkerImpl@xercesc_3_1@@UAEPAVDOMNode@2@XZ 120048d3 f i DOMTreeWalkerImpl.obj
 0001:000038d3       ?getName@XMLNotationDecl@xercesc_3_1@@QBEPB_WXZ 120048d3 f i XMLDTDDescription.obj
 0001:000038d3       ?getNoParen@ParenToken@xercesc_3_1@@UBEHXZ 120048d3 f i ParenToken.obj
 0001:000038d3       ?getRootName@XMLDTDDescriptionImpl@xercesc_3_1@@UBEPB_WXZ 120048d3 f i XMLDTDDescriptionImpl.obj
 0001:000038d3       ?getDocTypeHandler@DTDScanner@xercesc_3_1@@QBEPBVDocTypeHandler@2@XZ 120048d3 f i DGXMLScanner.obj
 0001:000038d3       ?getEncoding@DOMLSInputImpl@xercesc_3_1@@UBEPB_WXZ 120048d3 f i DOMImplementationImpl.obj
 0001:000038d3       ?getValue@XMLAttr@xercesc_3_1@@QBEPB_WXZ 120048d3 f i XMLAttr.obj
 0001:000038d3       ?getKey@KVStringPair@xercesc_3_1@@QAEPA_WXZ 120048d3 f i KVStringPair.obj
 0001:000038d3       ?getNodeName@DOMNotationImpl@xercesc_3_1@@UBEPB_WXZ 120048d3 f i DOMNotationImpl.obj
 0001:000038d3       ?getElementDecl@ContentSpecNode@xercesc_3_1@@QAEPAVXMLElementDecl@2@XZ 120048d3 f i XMLGrammarPoolImpl.obj
 0001:000038d3       ?getMin@ClosureToken@xercesc_3_1@@UBEHXZ 120048d3 f i ClosureToken.obj
 0001:000038d3       ?getElementDecl@ContentSpecNode@xercesc_3_1@@QBEPBVXMLElementDecl@2@XZ 120048d3 f i XMLGrammarPoolImpl.obj
 0001:000038d3       ?getValue@XMLEntityDecl@xercesc_3_1@@QBEPB_WXZ 120048d3 f i XMLDTDDescription.obj
 0001:000038d3       ?getSchemaType@DOMConfigurationImpl@xercesc_3_1@@QBEPB_WXZ 120048d3 f i DOMConfigurationImpl.obj
 0001:000038d3       ?getCreateReason@XMLAttDef@xercesc_3_1@@QBE?AW4CreateReasons@12@XZ 120048d3 f i XMLAttDef.obj
 0001:000038d3       ?getSize@BinMemInputStream@xercesc_3_1@@QBEKXZ 120048d3 f i BinMemInputStream.obj
 0001:000038d7       ?setKey@KVStringPair@xercesc_3_1@@QAEXQB_W@Z 120048d7 f i KVStringPair.obj
 0001:000038f6       ?setValue@KVStringPair@xercesc_3_1@@QAEXQB_W@Z 120048f6 f i KVStringPair.obj
 0001:00003915       ?setKey@KVStringPair@xercesc_3_1@@QAEXQB_WK@Z 12004915 f i KVStringPair.obj
 0001:00003961       ?setValue@KVStringPair@xercesc_3_1@@QAEXQB_WK@Z 12004961 f i KVStringPair.obj
 0001:000039ad       ?set@KVStringPair@xercesc_3_1@@QAEXQB_W0@Z 120049ad f i KVStringPair.obj
 0001:000039e0       ?set@KVStringPair@xercesc_3_1@@QAEXQB_WK0K@Z 120049e0 f i KVStringPair.obj
 0001:00003a03       ??0KVStringPair@xercesc_3_1@@QAE@QAVMemoryManager@1@@Z 12004a03 f   KVStringPair.obj
 0001:00003a26       ??0KVStringPair@xercesc_3_1@@QAE@QB_W0QAVMemoryManager@1@@Z 12004a26 f   KVStringPair.obj
 0001:00003a69       ??0KVStringPair@xercesc_3_1@@QAE@QB_W0KQAVMemoryManager@1@@Z 12004a69 f   KVStringPair.obj
 0001:00003ac2       ??0KVStringPair@xercesc_3_1@@QAE@QB_WK0KQAVMemoryManager@1@@Z 12004ac2 f   KVStringPair.obj
 0001:00003b12       ??0KVStringPair@xercesc_3_1@@QAE@ABV01@@Z 12004b12 f   KVStringPair.obj
 0001:00003b5a       ??1KVStringPair@xercesc_3_1@@UAE@XZ 12004b5a f   KVStringPair.obj
 0001:00003b97       ?createObject@KVStringPair@xercesc_3_1@@SAPAVXSerializable@2@PAVMemoryManager@2@@Z 12004b97 f   KVStringPair.obj
 0001:00003bba       ?getProtoType@KVStringPair@xercesc_3_1@@UBEPAVXProtoType@2@XZ 12004bba f   KVStringPair.obj
 0001:00003bc0       ?serialize@KVStringPair@xercesc_3_1@@UAEXAAVXSerializeEngine@2@@Z 12004bc0 f   KVStringPair.obj
 0001:00003c20       ??_FXMLMutex@xercesc_3_1@@QAEXXZ 12004c20 f i Mutexes.obj
 0001:00003c2c       ??0XMLMutex@xercesc_3_1@@QAE@QAVMemoryManager@1@@Z 12004c2c f   Mutexes.obj
 0001:00003c4b       ??1XMLMutex@xercesc_3_1@@QAE@XZ 12004c4b f   Mutexes.obj
 0001:00003c64       ?lock@XMLMutex@xercesc_3_1@@QAEXXZ 12004c64 f   Mutexes.obj
 0001:00003c6d       ?unlock@XMLMutex@xercesc_3_1@@QAEXXZ 12004c6d f   Mutexes.obj
 0001:00003c76       ??0XMLMutexLock@xercesc_3_1@@QAE@QAVXMLMutex@1@@Z 12004c76 f   Mutexes.obj
 0001:00003c90       ??1XMLMutexLock@xercesc_3_1@@QAE@XZ 12004c90 f   Mutexes.obj
 0001:00003c9b       ?getPanicReasonString@PanicHandler@xercesc_3_1@@SAPBDW4PanicReasons@12@@Z 12004c9b f   PanicHandler.obj
 0001:00003d13       ??4XSConstants@xercesc_3_1@@QAEAAV01@ABV01@@Z 12004d13 f i XMLAttr.obj
 0001:00003d13       ??4XMLChar1_1@xercesc_3_1@@QAEAAV01@ABV01@@Z 12004d13 f i Base64.obj
 0001:00003d13       ??4XMLString@xercesc_3_1@@QAEAAV01@ABV01@@Z 12004d13 f i Base64.obj
 0001:00003d13       ??4XercesNamespaceResolver@xercesc_3_1@@QAEAAV01@ABV01@@Z 12004d13 f i XMLGrammarPoolImpl.obj
 0001:00003d13       ??4XMLBufferFullHandler@xercesc_3_1@@QAEAAV01@ABV01@@Z 12004d13 f i Base64.obj
 0001:00003d13       ??4RegxUtil@xercesc_3_1@@QAEAAV01@ABV01@@Z 12004d13 f i RegularExpression.obj
 0001:00003d13       ??4PSVIDefs@xercesc_3_1@@QAEAAV01@ABV01@@Z 12004d13 f i XMLElementDecl.obj
 0001:00003d13       ??4SchemaSymbols@xercesc_3_1@@QAEAAV01@ABV01@@Z 12004d13 f i XMLAttr.obj
 0001:00003d13       ??0OutOfMemoryException@xercesc_3_1@@QAE@ABV01@@Z 12004d13 f i PlatformUtils.obj
 0001:00003d13       ??4XMLChar1_0@xercesc_3_1@@QAEAAV01@ABV01@@Z 12004d13 f i Base64.obj
 0001:00003d13       ??4DOMImplementationRegistry@xercesc_3_1@@QAEAAV01@ABV01@@Z 12004d13 f i AbstractDOMParser.obj
 0001:00003d13       ??4XMemory@xercesc_3_1@@QAEAAV01@ABV01@@Z 12004d13 f i Base64.obj
 0001:00003d13       ??4PSVIUni@xercesc_3_1@@QAEAAV01@ABV01@@Z 12004d13 f i PSVIUni.obj
 0001:00003d13       ??4XPathSymbols@xercesc_3_1@@QAEAAV01@ABV01@@Z 12004d13 f i XercesXPath.obj
 0001:00003d13       ??4XIncludeDOMDocumentProcessor@xercesc_3_1@@QAEAAV01@ABV01@@Z 12004d13 f i XIncludeDOMDocumentProcessor.obj
 0001:00003d13       ??4XUtil@xercesc_3_1@@QAEAAV01@ABV01@@Z 12004d13 f i SchemaInfo.obj
 0001:00003d13       ??4XercesElementWildcard@xercesc_3_1@@QAEAAV01@ABV01@@Z 12004d13 f i AllContentModel.obj
 0001:00003d13       ??4XMLScannerResolver@xercesc_3_1@@QAEAAV01@ABV01@@Z 12004d13 f i XMLScannerResolver.obj
 0001:00003d13       ??4OutOfMemoryException@xercesc_3_1@@QAEAAV01@ABV01@@Z 12004d13 f i PlatformUtils.obj
 0001:00003d13       ??4XMLUniCharacter@xercesc_3_1@@QAEAAV01@ABV01@@Z 12004d13 f i RangeTokenMap.obj
 0001:00003d13       ??4XMLUni@xercesc_3_1@@QAEAAV01@ABV01@@Z 12004d13 f i Base64.obj
 0001:00003d13       ??4XMLPlatformUtils@xercesc_3_1@@QAEAAV01@ABV01@@Z 12004d13 f i Base64.obj
 0001:00003d13       ??4Base64@xercesc_3_1@@QAEAAV01@ABV01@@Z 12004d13 f i Base64.obj
 0001:00003d18       ?getCode@OutOfMemoryException@xercesc_3_1@@QBE?AW4Codes@XMLExcepts@2@XZ 12004d18 f i PlatformUtils.obj
 0001:00003d1e       ?getType@OutOfMemoryException@xercesc_3_1@@QBEPB_WXZ 12004d1e f i PlatformUtils.obj
 0001:00003d1e       ?getMessage@OutOfMemoryException@xercesc_3_1@@QBEPB_WXZ 12004d1e f i PlatformUtils.obj
 0001:00003d24       ?getSrcFile@OutOfMemoryException@xercesc_3_1@@QBEPBDXZ 12004d24 f i PlatformUtils.obj
 0001:00003d2a       ?getSrcLine@OutOfMemoryException@xercesc_3_1@@QBE_KXZ 12004d2a f i PlatformUtils.obj
 0001:00003d2f       ??0MemoryManagerImpl@xercesc_3_1@@QAE@XZ 12004d2f f i PlatformUtils.obj
 0001:00003d38       ??1MemoryManagerImpl@xercesc_3_1@@UAE@XZ 12004d38 f i PlatformUtils.obj
 0001:00003d38       ??1MemoryManager@xercesc_3_1@@UAE@XZ 12004d38 f i Base64.obj
 0001:00003d3f       ??_EMemoryManager@xercesc_3_1@@UAEPAXI@Z 12004d3f f i Base64.obj
 0001:00003d3f       ??_EMemoryManagerImpl@xercesc_3_1@@UAEPAXI@Z 12004d3f f i PlatformUtils.obj
 0001:00003d8c       ??_FXMLURL@xercesc_3_1@@QAEXXZ 12004d8c f i PlatformUtils.obj
 0001:00003d98       ??9XMLURL@xercesc_3_1@@QBE_NABV01@@Z 12004d98 f i PlatformUtils.obj
 0001:00003dae       ?getFinalSet@SchemaElementDecl@xercesc_3_1@@QBEHXZ 12004dae f i XMLElementDecl.obj
 0001:00003dae       ?getCharData@RegxParser@xercesc_3_1@@QBEHXZ 12004dae f i ParserForXMLSchema.obj
 0001:00003dae       ?getAttGroupInfoRegistry@SchemaGrammar@xercesc_3_1@@QBEPAV?$RefHashTableOf@VXercesAttGroupInfo@xercesc_3_1@@UStringHasher@2@@2@XZ 12004dae f i XMLGrammarPoolImpl.obj
 0001:00003dae       ?getNextSibling@DOMDocumentTypeImpl@xercesc_3_1@@UBEPAVDOMNode@2@XZ 12004dae f i DOMDocumentTypeImpl.obj
 0001:00003dae       ?getErrorHandler@SAX2XMLFilterImpl@xercesc_3_1@@UBEPAVErrorHandler@2@XZ 12004dae f i SAX2XMLFilterImpl.obj
 0001:00003dae       ?getValueStore@FieldMatcher@xercesc_3_1@@QBEPAVValueStore@2@XZ 12004dae f i XMLElementDecl.obj
 0001:00003dae       ?getPublicId@DOMEntityImpl@xercesc_3_1@@UBEPB_WXZ 12004dae f i DOMEntityImpl.obj
 0001:00003dae       ?getElemId@SchemaAttDef@xercesc_3_1@@QBEKXZ 12004dae f i XMLElementDecl.obj
 0001:00003dae       ?getContentSpec@DTDElementDecl@xercesc_3_1@@UAEPAVContentSpecNode@2@XZ 12004dae f i XMLElementDecl.obj
 0001:00003dae       ?getUser@XMLURL@xercesc_3_1@@QBEPB_WXZ 12004dae f i PlatformUtils.obj
 0001:00003dae       ?getMemoryManager@XMLAbstractDoubleFloat@xercesc_3_1@@QBEPAVMemoryManager@2@XZ 12004dae f i XMLAbstractDoubleFloat.obj
 0001:00003dae       ?getEnclosingCTDefinition@XSElementDeclaration@xercesc_3_1@@QBEPAVXSComplexTypeDefinition@2@XZ 12004dae f i PSVIElement.obj
 0001:00003dae       ?getElemId@DTDAttDef@xercesc_3_1@@QBEKXZ 12004dae f i XMLElementDecl.obj
 0001:00003dae       ?getTypeDefinition@PSVIAttribute@xercesc_3_1@@UAEPAVXSTypeDefinition@2@XZ 12004dae f i PSVIAttribute.obj
 0001:00003dae       ?getContentSpec@DTDElementDecl@xercesc_3_1@@UBEPBVContentSpecNode@2@XZ 12004dae f i XMLElementDecl.obj
 0001:00003dae       ?getGrammarsToAddToXSModel@GrammarResolver@xercesc_3_1@@QAEPAV?$ValueVectorOf@PAVSchemaGrammar@xercesc_3_1@@@2@XZ 12004dae f i XMLValidator.obj
 0001:00003dae       ?getMaxOccurs@ContentSpecNode@xercesc_3_1@@QBEHXZ 12004dae f i XMLGrammarPoolImpl.obj
 0001:00003dae       ?getFixedFacets@XSSimpleTypeDefinition@xercesc_3_1@@QBEHXZ 12004dae f i XMLAttr.obj
 0001:00003dae       ?getSystemId@SAXParseException@xercesc_3_1@@QBEPB_WXZ 12004dae f i SAXParseException.obj
 0001:00003dae       ?getAttributeWildcard@XSComplexTypeDefinition@xercesc_3_1@@QBEPAVXSWildcard@2@XZ 12004dae f i PSVIElement.obj
 0001:00003dae       ?getEnclosingCTDefinition@XSAttributeDeclaration@xercesc_3_1@@QAEPAVXSComplexTypeDefinition@2@XZ 12004dae f i PSVIAttributeList.obj
 0001:00003dae       ?getTypeDefinition@PSVIElement@xercesc_3_1@@UAEPAVXSTypeDefinition@2@XZ 12004dae f i PSVIElement.obj
 0001:00003dae       ?getInitialDepth@SelectorMatcher@xercesc_3_1@@UBEHXZ 12004dae f i XSIDCDefinition.obj
 0001:00003dae       ?getFacets@DatatypeValidator@xercesc_3_1@@QBEPAV?$RefHashTableOf@VKVStringPair@xercesc_3_1@@UStringHasher@2@@2@XZ 12004dae f i XMLAttr.obj
 0001:00003dae       ?getNextSibling@DOMElementImpl@xercesc_3_1@@UBEPAVDOMNode@2@XZ 12004dae f i DOMElementImpl.obj
 0001:00003dae       ?getNextSibling@DOMEntityReferenceImpl@xercesc_3_1@@UBEPAVDOMNode@2@XZ 12004dae f i DOMEntityReferenceImpl.obj
 0001:00003db2       ?getURLText@XMLURL@xercesc_3_1@@QBEPB_WXZ 12004db2 f i PlatformUtils.obj
 0001:00003dc5       ??0MalformedURLException@xercesc_3_1@@QAE@QBD_KW4Codes@XMLExcepts@1@PAVMemoryManager@1@@Z 12004dc5 f i PlatformUtils.obj
 0001:00003e05       ??0MalformedURLException@xercesc_3_1@@QAE@ABV01@@Z 12004e05 f i PlatformUtils.obj
 0001:00003e20       ??0MalformedURLException@xercesc_3_1@@QAE@QBD_KW4Codes@XMLExcepts@1@QB_W333PAVMemoryManager@1@@Z 12004e20 f i PlatformUtils.obj
 0001:00003e6c       ??0MalformedURLException@xercesc_3_1@@QAE@QBD_KW4Codes@XMLExcepts@1@0000PAVMemoryManager@1@@Z 12004e6c f i PlatformUtils.obj
 0001:00003eb8       ??1MalformedURLException@xercesc_3_1@@UAE@XZ 12004eb8 f i PlatformUtils.obj
 0001:00003ec3       ?duplicate@MalformedURLException@xercesc_3_1@@UBEPAVXMLException@2@XZ 12004ec3 f i PlatformUtils.obj
 0001:00003f04       ?getType@MalformedURLException@xercesc_3_1@@UBEPB_WXZ 12004f04 f i PlatformUtils.obj
 0001:00003f0a       ??_EMalformedURLException@xercesc_3_1@@UAEPAXI@Z 12004f0a f i PlatformUtils.obj
 0001:00003f5b       ??4XMLNetHTTPInfo@xercesc_3_1@@QAEAAV01@ABV01@@Z 12004f5b f i PlatformUtils.obj
 0001:00003f72       ??0XMLNetHTTPInfo@xercesc_3_1@@QAE@XZ 12004f72 f i PlatformUtils.obj
 0001:00003f85       ??1XMLNetAccessor@xercesc_3_1@@UAE@XZ 12004f85 f i PlatformUtils.obj
 0001:00003f8c       ??0XMLNetAccessor@xercesc_3_1@@IAE@XZ 12004f8c f i PlatformUtils.obj
 0001:00003f95       ??_EXMLNetAccessor@xercesc_3_1@@UAEPAXI@Z 12004f95 f i PlatformUtils.obj
 0001:00003fe1       ??0NetAccessorException@xercesc_3_1@@QAE@QBD_KW4Codes@XMLExcepts@1@PAVMemoryManager@1@@Z 12004fe1 f i PlatformUtils.obj
 0001:00004021       ??0NetAccessorException@xercesc_3_1@@QAE@ABV01@@Z 12005021 f i PlatformUtils.obj
 0001:0000403c       ??0NetAccessorException@xercesc_3_1@@QAE@QBD_KW4Codes@XMLExcepts@1@QB_W333PAVMemoryManager@1@@Z 1200503c f i PlatformUtils.obj
 0001:00004088       ??0NetAccessorException@xercesc_3_1@@QAE@QBD_KW4Codes@XMLExcepts@1@0000PAVMemoryManager@1@@Z 12005088 f i PlatformUtils.obj
 0001:000040d4       ??1NetAccessorException@xercesc_3_1@@UAE@XZ 120050d4 f i PlatformUtils.obj
 0001:000040df       ?duplicate@NetAccessorException@xercesc_3_1@@UBEPAVXMLException@2@XZ 120050df f i PlatformUtils.obj
 0001:00004120       ?getType@NetAccessorException@xercesc_3_1@@UBEPB_WXZ 12005120 f i PlatformUtils.obj
 0001:00004126       ??_ENetAccessorException@xercesc_3_1@@UAEPAXI@Z 12005126 f i PlatformUtils.obj
 0001:00004177       ?getId@WinSockNetAccessor@xercesc_3_1@@UBEPB_WXZ 12005177 f i PlatformUtils.obj
 0001:0000417d       ??_EXMLMsgLoader@xercesc_3_1@@UAEPAXI@Z 1200517d f i PlatformUtils.obj
 0001:000041c9       ??1XMLMsgLoader@xercesc_3_1@@UAE@XZ 120051c9 f i PlatformUtils.obj
 0001:000041d0       ??0XMLMsgLoader@xercesc_3_1@@IAE@XZ 120051d0 f i PlatformUtils.obj
 0001:000041d9       ?adopt@TranscodeToStr@xercesc_3_1@@QAEPAEXZ 120051d9 f i PlatformUtils.obj
 0001:000041d9       ?adopt@TranscodeFromStr@xercesc_3_1@@QAEPA_WXZ 120051d9 f i PlatformUtils.obj
 0001:000041df       ?getNextSibling@DOMChildNode@xercesc_3_1@@QBEPAVDOMNode@2@XZ 120051df f i DOMChildNode.obj
 0001:000041df       ?getBlockSize@XMLTranscoder@xercesc_3_1@@QBEKXZ 120051df f i PlatformUtils.obj
 0001:000041df       ?getId@XMLNotationDecl@xercesc_3_1@@QBEKXZ 120051df f i XMLDTDDescription.obj
 0001:000041df       ?getOwnerDocument@DOMParentNode@xercesc_3_1@@QBEPAVDOMDocument@2@XZ 120051df f i DOMParentNode.obj
 0001:000041df       ?getSign@XMLBigDecimal@xercesc_3_1@@UBEHXZ 120051df f i XMLAbstractDoubleFloat.obj
 0001:000041df       ?getStringData@DOMLSInputImpl@xercesc_3_1@@UBEPB_WXZ 120051df f i DOMImplementationImpl.obj
 0001:000041df       ?length@TranscodeFromStr@xercesc_3_1@@QBEKXZ 120051df f i PlatformUtils.obj
 0001:000041df       ?getTargetNamespace@SchemaGrammar@xercesc_3_1@@UBEPB_WXZ 120051df f i XMLGrammarPoolImpl.obj
 0001:000041df       ?getStringPool@GrammarResolver@xercesc_3_1@@QAEPAVXMLStringPool@2@XZ 120051df f i XMLValidator.obj
 0001:000041df       ?getId@XMLEntityDecl@xercesc_3_1@@QBEKXZ 120051df f i XMLDTDDescription.obj
 0001:000041df       ?getMemoryManager@XMLAttDefList@xercesc_3_1@@QBEPAVMemoryManager@2@XZ 120051df f i XMLAttDefList.obj
 0001:000041df       ?getDefaultType@XMLAttDef@xercesc_3_1@@QBE?AW4DefAttTypes@12@XZ 120051df f i XMLAttDef.obj
 0001:000041df       ?getIdentityConstraintName@IdentityConstraint@xercesc_3_1@@QBEPA_WXZ 120051df f i XMLElementDecl.obj
 0001:000041df       ?getXPath@IC_Field@xercesc_3_1@@QBEPAVXercesXPath@2@XZ 120051df f i XMLElementDecl.obj
 0001:000041df       ?getType@XSObject@xercesc_3_1@@QBE?AW4COMPONENT_TYPE@XSConstants@2@XZ 120051df f i XMLAttr.obj
 0001:000041df       ?getTokenType@Token@xercesc_3_1@@QBE?AW4tokType@12@XZ 120051df f i ASCIIRangeFactory.obj
 0001:000041df       ?getEncodingName@XMLFormatter@xercesc_3_1@@QBEPB_WXZ 120051df f i LocalFileFormatTarget.obj
 0001:000041df       ?getStorerLevel@XSerializeEngine@xercesc_3_1@@QBEIXZ 120051df f i KVStringPair.obj
 0001:000041df       ?getBufMgr@XMLValidator@xercesc_3_1@@IAEPAVXMLBufferMgr@2@XZ 120051df f i XMLValidator.obj
 0001:000041df       ?getMemoryManager@XMLURL@xercesc_3_1@@QBEPAVMemoryManager@2@XZ 120051df f i PlatformUtils.obj
 0001:000041df       ?getMemoryManager@XMLGrammarDescription@xercesc_3_1@@QBEPAVMemoryManager@2@XZ 120051df f i XMLDTDDescription.obj
 0001:000041df       ?getResultType@DOMXPathResultImpl@xercesc_3_1@@UBE?AW4ResultType@DOMXPathResult@2@XZ 120051df f i DOMXPathResultImpl.obj
 0001:000041df       ?getDocument@DOMParentNode@xercesc_3_1@@QBEPAVDOMDocument@2@XZ 120051df f i DOMParentNode.obj
 0001:000041df       ?getCurrentEntity@ReaderMgr@xercesc_3_1@@QAEPAVXMLEntityDecl@2@XZ 120051df f i ReaderMgr.obj
 0001:000041df       ?getNamespaces@XSModel@xercesc_3_1@@QAEPAV?$RefArrayVectorOf@_W@2@XZ 120051df f i XMLGrammarPoolImpl.obj
 0001:000041df       ?getMemoryManager@XMLGrammarPool@xercesc_3_1@@QAEPAVMemoryManager@2@XZ 120051df f i XMLGrammarPoolImpl.obj
 0001:000041df       ?getPublicId@XMLResourceIdentifier@xercesc_3_1@@QBEPB_WXZ 120051df f i DGXMLScanner.obj
 0001:000041df       ?getUserDefinedRegistry@DatatypeValidatorFactory@xercesc_3_1@@QBEPAV?$RefHashTableOf@VDatatypeValidator@xercesc_3_1@@UStringHasher@2@@2@XZ 120051df f i XMLGrammarPoolImpl.obj
 0001:000041df       ?getType@XMLAttr@xercesc_3_1@@QBE?AW4AttTypes@XMLAttDef@2@XZ 120051df f i XMLAttr.obj
 0001:000041df       ?getMemoryManager@XMLElementDecl@xercesc_3_1@@QBEPAVMemoryManager@2@XZ 120051df f i XMLDTDDescription.obj
 0001:000041df       ?getReaderNum@EndOfEntityException@xercesc_3_1@@QBEKXZ 120051df f i DGXMLScanner.obj
 0001:000041df       ?getBlockDefault@SchemaInfo@xercesc_3_1@@QBEHXZ 120051df f i IGXMLScanner.obj
 0001:000041df       ?getRangeMap@RangeTokenMap@xercesc_3_1@@IBEPAV?$RefHashTableOf@VRangeFactory@xercesc_3_1@@UStringHasher@2@@2@XZ 120051df f i ASCIIRangeFactory.obj
 0001:000041df       ?getByteStream@DOMLSOutputImpl@xercesc_3_1@@UBEPAVXMLFormatTarget@2@XZ 120051df f i DOMImplementationImpl.obj
 0001:000041df       ?getXPath@IC_Selector@xercesc_3_1@@QBEPAVXercesXPath@2@XZ 120051df f i XSIDCDefinition.obj
 0001:000041df       ?getRoot@DOMNodeIteratorImpl@xercesc_3_1@@UAEPAVDOMNode@2@XZ 120051df f i DOMNodeIteratorImpl.obj
 0001:000041df       ?getMemoryManager@RegxParser@xercesc_3_1@@IBEPAVMemoryManager@2@XZ 120051df f i ParserForXMLSchema.obj
 0001:000041df       ?getMessage@SAXException@xercesc_3_1@@UBEPB_WXZ 120051df f i XSAnnotation.obj
 0001:000041df       ?getEntityExpansionLimit@SecurityManager@xercesc_3_1@@UBEKXZ 120051df f i XMLValidator.obj
 0001:000041df       ?getCurrentEntity@ReaderMgr@xercesc_3_1@@QBEPBVXMLEntityDecl@2@XZ 120051df f i ReaderMgr.obj
 0001:000041df       ?getWhatToShow@DOMTreeWalkerImpl@xercesc_3_1@@UAEKXZ 120051df f i DOMTreeWalkerImpl.obj
 0001:000041df       ?getBufMgr@XMLValidator@xercesc_3_1@@IBEPBVXMLBufferMgr@2@XZ 120051df f i XMLValidator.obj
 0001:000041df       ?getEmptyNamespaceId@NamespaceScope@xercesc_3_1@@QBEIXZ 120051df f i XMLGrammarPoolImpl.obj
 0001:000041df       ?length@TranscodeToStr@xercesc_3_1@@QBEKXZ 120051df f i PlatformUtils.obj
 0001:000041df       ?getMemoryManager@InputSource@xercesc_3_1@@QBEPAVMemoryManager@2@XZ 120051df f i LocalFileInputSource.obj
 0001:000041df       ?getPort@XMLUri@xercesc_3_1@@QBEHXZ 120051df f i XMLString.obj
 0001:000041e3       ?Initialize@XMLPlatformUtils@xercesc_3_1@@SAXQBD0QAVPanicHandler@2@QAVMemoryManager@2@@Z 120051e3 f   PlatformUtils.obj
 0001:000043a5       ?Initialize@XMLPlatformUtils@xercesc_3_1@@SAXKKKQBD0QAVPanicHandler@2@QAVMemoryManager@2@@Z 120053a5 f   PlatformUtils.obj
 0001:000043df       ?Terminate@XMLPlatformUtils@xercesc_3_1@@SAXXZ 120053df f   PlatformUtils.obj
 0001:000044fe       ?panic@XMLPlatformUtils@xercesc_3_1@@SAXW4PanicReasons@PanicHandler@2@@Z 120054fe f   PlatformUtils.obj
 0001:0000451b       ?makeNetAccessor@XMLPlatformUtils@xercesc_3_1@@CAPAVXMLNetAccessor@2@XZ 1200551b f   PlatformUtils.obj
 0001:00004531       ?loadAMsgSet@XMLPlatformUtils@xercesc_3_1@@CAPAVXMLMsgLoader@2@QB_W@Z 12005531 f   PlatformUtils.obj
 0001:00004589       ?makeTransService@XMLPlatformUtils@xercesc_3_1@@CAPAVXMLTransService@2@XZ 12005589 f   PlatformUtils.obj
 0001:000045bc       ?makeFileMgr@XMLPlatformUtils@xercesc_3_1@@SAPAVXMLFileMgr@2@QAVMemoryManager@2@@Z 120055bc f   PlatformUtils.obj
 0001:00004620       ?openFile@XMLPlatformUtils@xercesc_3_1@@SAPAXQBDQAVMemoryManager@2@@Z 12005620 f   PlatformUtils.obj
 0001:00004662       ?openFile@XMLPlatformUtils@xercesc_3_1@@SAPAXQB_WQAVMemoryManager@2@@Z 12005662 f   PlatformUtils.obj
 0001:000046a4       ?openFileToWrite@XMLPlatformUtils@xercesc_3_1@@SAPAXQBDQAVMemoryManager@2@@Z 120056a4 f   PlatformUtils.obj
 0001:000046e6       ?openFileToWrite@XMLPlatformUtils@xercesc_3_1@@SAPAXQB_WQAVMemoryManager@2@@Z 120056e6 f   PlatformUtils.obj
 0001:00004728       ?openStdInHandle@XMLPlatformUtils@xercesc_3_1@@SAPAXQAVMemoryManager@2@@Z 12005728 f   PlatformUtils.obj
 0001:00004765       ?closeFile@XMLPlatformUtils@xercesc_3_1@@SAXPAXQAVMemoryManager@2@@Z 12005765 f   PlatformUtils.obj
 0001:000047a5       ?resetFile@XMLPlatformUtils@xercesc_3_1@@SAXPAXQAVMemoryManager@2@@Z 120057a5 f   PlatformUtils.obj
 0001:000047e5       ?curFilePos@XMLPlatformUtils@xercesc_3_1@@SA_KPAXQAVMemoryManager@2@@Z 120057e5 f   PlatformUtils.obj
 0001:00004825       ?fileSize@XMLPlatformUtils@xercesc_3_1@@SA_KPAXQAVMemoryManager@2@@Z 12005825 f   PlatformUtils.obj
 0001:00004865       ?readFileBuffer@XMLPlatformUtils@xercesc_3_1@@SAKPAXKQAEQAVMemoryManager@2@@Z 12005865 f   PlatformUtils.obj
 0001:000048ab       ?writeBufferToFile@XMLPlatformUtils@xercesc_3_1@@SAXQAXKQBEQAVMemoryManager@2@@Z 120058ab f   PlatformUtils.obj
 0001:000048f1       ?getFullPath@XMLPlatformUtils@xercesc_3_1@@SAPA_WQB_WQAVMemoryManager@2@@Z 120058f1 f   PlatformUtils.obj
 0001:00004931       ?getCurrentDirectory@XMLPlatformUtils@xercesc_3_1@@SAPA_WQAVMemoryManager@2@@Z 12005931 f   PlatformUtils.obj
 0001:0000496e       ?isRelative@XMLPlatformUtils@xercesc_3_1@@SA_NQB_WQAVMemoryManager@2@@Z 1200596e f   PlatformUtils.obj
 0001:000049ae       ?isAnySlash@XMLPlatformUtils@xercesc_3_1@@SA_N_W@Z 120059ae f i PlatformUtils.obj
 0001:000049cc       ?getCurrentMillis@XMLPlatformUtils@xercesc_3_1@@SAKXZ 120059cc f   PlatformUtils.obj
 0001:00004a02       ?makeMutexMgr@XMLPlatformUtils@xercesc_3_1@@SAPAVXMLMutexMgr@2@QAVMemoryManager@2@@Z 12005a02 f   PlatformUtils.obj
 0001:00004a21       ?makeMutex@XMLPlatformUtils@xercesc_3_1@@SAPAXQAVMemoryManager@2@@Z 12005a21 f   PlatformUtils.obj
 0001:00004a46       ?closeMutex@XMLPlatformUtils@xercesc_3_1@@SAXQAXQAVMemoryManager@2@@Z 12005a46 f   PlatformUtils.obj
 0001:00004a6e       ?lockMutex@XMLPlatformUtils@xercesc_3_1@@SAXQAX@Z 12005a6e f   PlatformUtils.obj
 0001:00004a93       ?unlockMutex@XMLPlatformUtils@xercesc_3_1@@SAXQAX@Z 12005a93 f   PlatformUtils.obj
 0001:00004ab8       ?loadMsgSet@XMLPlatformUtils@xercesc_3_1@@SAPAVXMLMsgLoader@2@QB_W@Z 12005ab8 f   PlatformUtils.obj
 0001:00004ac1       ?recognizeNEL@XMLPlatformUtils@xercesc_3_1@@SAX_NQAVMemoryManager@2@@Z 12005ac1 f   PlatformUtils.obj
 0001:00004b17       ?strictIANAEncoding@XMLPlatformUtils@xercesc_3_1@@SAX_N@Z 12005b17 f   PlatformUtils.obj
 0001:00004b2d       ?isStrictIANAEncoding@XMLPlatformUtils@xercesc_3_1@@SA_NXZ 12005b2d f   PlatformUtils.obj
 0001:00004b40       ?weavePaths@XMLPlatformUtils@xercesc_3_1@@SAPA_WQB_W0QAVMemoryManager@2@@Z 12005b40 f   PlatformUtils.obj
 0001:00004bf5       ?removeDotSlash@XMLPlatformUtils@xercesc_3_1@@SAXQA_WQAVMemoryManager@2@@Z 12005bf5 f   PlatformUtils.obj
 0001:00004cbd       ?removeDotDotSlash@XMLPlatformUtils@xercesc_3_1@@SAXQA_WQAVMemoryManager@2@@Z 12005cbd f   PlatformUtils.obj
 0001:00004e4a       ?searchSlashDotDotSlash@XMLPlatformUtils@xercesc_3_1@@CAHQA_W@Z 12005e4a f   PlatformUtils.obj
 0001:00004ebd       ??_FQName@xercesc_3_1@@QAEXXZ 12005ebd f i QName.obj
 0001:00004ec9       ??_EQName@xercesc_3_1@@UAEPAXI@Z 12005ec9 f i QName.obj
 0001:00004f14       ?setPrefix@QName@xercesc_3_1@@QAEXPB_W@Z 12005f14 f i QName.obj
 0001:00004f33       ?setLocalPart@QName@xercesc_3_1@@QAEXPB_W@Z 12005f33 f i QName.obj
 0001:00004f52       ??0QName@xercesc_3_1@@QAE@QAVMemoryManager@1@@Z 12005f52 f   QName.obj
 0001:00004f7e       ??0QName@xercesc_3_1@@QAE@QB_W0IQAVMemoryManager@1@@Z 12005f7e f   QName.obj
 0001:00004fee       ??0QName@xercesc_3_1@@QAE@QB_WIQAVMemoryManager@1@@Z 12005fee f   QName.obj
 0001:0000505b       ??1QName@xercesc_3_1@@UAE@XZ 1200605b f   QName.obj
 0001:00005087       ??0QName@xercesc_3_1@@QAE@ABV01@@Z 12006087 f   QName.obj
 0001:00005138       ?getRawName@QName@xercesc_3_1@@QAEPA_WXZ 12006138 f   QName.obj
 0001:00005138       ?getRawName@QName@xercesc_3_1@@QBEPB_WXZ 12006138 f   QName.obj
 0001:000051ca       ?setName@QName@xercesc_3_1@@QAEXQB_W0I@Z 120061ca f   QName.obj
 0001:0000520f       ?setName@QName@xercesc_3_1@@QAEXQB_WI@Z 1200620f f   QName.obj
 0001:000052bd       ?setNPrefix@QName@xercesc_3_1@@QAEXPB_WK@Z 120062bd f   QName.obj
 0001:00005318       ?setNLocalPart@QName@xercesc_3_1@@QAEXPB_WK@Z 12006318 f   QName.obj
 0001:00005373       ?setValues@QName@xercesc_3_1@@QAEXABV12@@Z 12006373 f   QName.obj
 0001:000053b1       ??8QName@xercesc_3_1@@QBE_NABV01@@Z 120063b1 f   QName.obj
 0001:00005411       ?cleanUp@QName@xercesc_3_1@@QAEXXZ 12006411 f   QName.obj
 0001:00005442       ?createObject@QName@xercesc_3_1@@SAPAVXSerializable@2@PAVMemoryManager@2@@Z 12006442 f   QName.obj
 0001:00005465       ?getProtoType@QName@xercesc_3_1@@UBEPAVXProtoType@2@XZ 12006465 f   QName.obj
 0001:0000546b       ?serialize@QName@xercesc_3_1@@UAEXAAVXSerializeEngine@2@@Z 1200646b f   QName.obj
 0001:000054e8       ??_FXMLStringPool@xercesc_3_1@@QAEXXZ 120064e8 f i StringPool.obj
 0001:000054f6       ??_EXMLStringPool@xercesc_3_1@@UAEPAXI@Z 120064f6 f i StringPool.obj
 0001:00005541       ?addOrFind@XMLStringPool@xercesc_3_1@@UAEIQB_W@Z 12006541 f i StringPool.obj
 0001:00005578       ?getId@XMLStringPool@xercesc_3_1@@UBEIQB_W@Z 12006578 f i StringPool.obj
 0001:000055a2       ?exists@XMLStringPool@xercesc_3_1@@UBE_NQB_W@Z 120065a2 f i StringPool.obj
 0001:000055e2       ?exists@XMLStringPool@xercesc_3_1@@UBE_NI@Z 120065e2 f i StringPool.obj
 0001:000055fc       ?getValueForId@XMLStringPool@xercesc_3_1@@UBEPB_WI@Z 120065fc f i StringPool.obj
 0001:00005643       ?getStringCount@XMLStringPool@xercesc_3_1@@UBEIXZ 12006643 f i StringPool.obj
 0001:00005648       ??0XMLStringPool@xercesc_3_1@@QAE@IQAVMemoryManager@1@@Z 12006648 f   StringPool.obj
 0001:000056d8       ??1XMLStringPool@xercesc_3_1@@UAE@XZ 120066d8 f   StringPool.obj
 0001:00005758       ?flushAll@XMLStringPool@xercesc_3_1@@UAEXXZ 12006758 f   StringPool.obj
 0001:0000579b       ?addNewEntry@XMLStringPool@xercesc_3_1@@AAEIQB_W@Z 1200679b f   StringPool.obj
 0001:0000584b       ?createObject@XMLStringPool@xercesc_3_1@@SAPAVXSerializable@2@PAVMemoryManager@2@@Z 1200684b f   StringPool.obj
 0001:0000587f       ?getProtoType@XMLStringPool@xercesc_3_1@@UBEPAVXProtoType@2@XZ 1200687f f   StringPool.obj
 0001:00005885       ?serialize@XMLStringPool@xercesc_3_1@@UAEXAAVXSerializeEngine@2@@Z 12006885 f   StringPool.obj
 0001:0000590e       ??0XMLStringPool@xercesc_3_1@@QAE@QAVMemoryManager@1@@Z 1200690e f   StringPool.obj
 0001:0000599e       ??_EXMLSynchronizedStringPool@xercesc_3_1@@UAEPAXI@Z 1200699e f i SynchronizedStringPool.obj
 0001:000059e9       ??0XMLSynchronizedStringPool@xercesc_3_1@@QAE@PBVXMLStringPool@1@IQAVMemoryManager@1@@Z 120069e9 f   SynchronizedStringPool.obj
 0001:00005a2a       ??1XMLSynchronizedStringPool@xercesc_3_1@@UAE@XZ 12006a2a f   SynchronizedStringPool.obj
 0001:00005a5e       ?addOrFind@XMLSynchronizedStringPool@xercesc_3_1@@UAEIQB_W@Z 12006a5e f   SynchronizedStringPool.obj
 0001:00005aba       ?exists@XMLSynchronizedStringPool@xercesc_3_1@@UBE_NQB_W@Z 12006aba f   SynchronizedStringPool.obj
 0001:00005afa       ?exists@XMLSynchronizedStringPool@xercesc_3_1@@UBE_NI@Z 12006afa f   SynchronizedStringPool.obj
 0001:00005b45       ?flushAll@XMLSynchronizedStringPool@xercesc_3_1@@UAEXXZ 12006b45 f   SynchronizedStringPool.obj
 0001:00005b4a       ?getId@XMLSynchronizedStringPool@xercesc_3_1@@UBEIQB_W@Z 12006b4a f   SynchronizedStringPool.obj
 0001:00005b92       ?getValueForId@XMLSynchronizedStringPool@xercesc_3_1@@UBEPB_WI@Z 12006b92 f   SynchronizedStringPool.obj
 0001:00005c23       ?getStringCount@XMLSynchronizedStringPool@xercesc_3_1@@UBEIXZ 12006c23 f   SynchronizedStringPool.obj
 0001:00005c4f       ??_EXMLTransService@xercesc_3_1@@UAEPAXI@Z 12006c4f f i TransService.obj
 0001:00005c9b       ??_EXMLTranscoder@xercesc_3_1@@UAEPAXI@Z 12006c9b f i TransService.obj
 0001:00005ce6       ??_EXMLLCPTranscoder@xercesc_3_1@@UAEPAXI@Z 12006ce6 f i TransService.obj
 0001:00005d32       ?checkTrailingBytes@XMLUTF8Transcoder@xercesc_3_1@@ABEXEII@Z 12006d32 f i TransService.obj
 0001:00005db9       ??1ENameMap@xercesc_3_1@@UAE@XZ 12006db9 f i TransService.obj
 0001:00005dcf       ??0ENameMap@xercesc_3_1@@IAE@QB_W@Z 12006dcf f i TransService.obj
 0001:00005df1       ??_EENameMap@xercesc_3_1@@UAEPAXI@Z 12006df1 f i  CIL library: CIL module
 0001:00005df1       ??_GENameMap@xercesc_3_1@@UAEPAXI@Z 12006df1 f i TransService.obj
 0001:00005e10       ?initializeTransService@XMLInitializer@xercesc_3_1@@KAXXZ 12006e10 f   TransService.obj
 0001:00005e6f       ?terminateTransService@XMLInitializer@xercesc_3_1@@KAXXZ 12006e6f f   TransService.obj
 0001:00005e9f       ??0XMLTransService@xercesc_3_1@@IAE@XZ 12006e9f f   TransService.obj
 0001:00005ea8       ??1XMLTransService@xercesc_3_1@@UAE@XZ 12006ea8 f   TransService.obj
 0001:00005eaf       ?addEncoding@XMLTransService@xercesc_3_1@@SAXQB_WQAVENameMap@2@@Z 12006eaf f   TransService.obj
 0001:00005ebf       ?makeNewTranscoderFor@XMLTransService@xercesc_3_1@@QAEPAVXMLTranscoder@2@QBDAAW4Codes@12@KQAVMemoryManager@2@@Z 12006ebf f   TransService.obj
 0001:00005f0c       ?makeNewTranscoderFor@XMLTransService@xercesc_3_1@@QAEPAVXMLTranscoder@2@QB_WAAW4Codes@12@KQAVMemoryManager@2@@Z 12006f0c f   TransService.obj
 0001:00006001       ?makeNewTranscoderFor@XMLTransService@xercesc_3_1@@QAEPAVXMLTranscoder@2@W4Encodings@XMLRecognizer@2@AAW4Codes@12@KQAVMemoryManager@2@@Z 12007001 f   TransService.obj
 0001:000060a8       ?initTransService@XMLTransService@xercesc_3_1@@MAEXXZ 120070a8 f   TransService.obj
 0001:00006ccf       ?strictIANAEncoding@XMLTransService@xercesc_3_1@@AAEX_N@Z 12007ccf f   TransService.obj
 0001:00006cde       ?isStrictIANAEncoding@XMLTransService@xercesc_3_1@@AAE_NXZ 12007cde f   TransService.obj
 0001:00006ce4       ??1XMLTranscoder@xercesc_3_1@@UAE@XZ 12007ce4 f   TransService.obj
 0001:00006cf8       ??0XMLTranscoder@xercesc_3_1@@IAE@QB_WKQAVMemoryManager@1@@Z 12007cf8 f   TransService.obj
 0001:00006d29       ??0XMLLCPTranscoder@xercesc_3_1@@IAE@XZ 12007d29 f   TransService.obj
 0001:00006d32       ??0TranscodeToStr@xercesc_3_1@@QAE@PB_WPBDPAVMemoryManager@1@@Z 12007d32 f   TransService.obj
 0001:00006d9d       ??0TranscodeToStr@xercesc_3_1@@QAE@PB_WKPBDPAVMemoryManager@1@@Z 12007d9d f   TransService.obj
 0001:00006e01       ??0TranscodeToStr@xercesc_3_1@@QAE@PB_WPAVXMLTranscoder@1@PAVMemoryManager@1@@Z 12007e01 f   TransService.obj
 0001:00006e32       ??0TranscodeToStr@xercesc_3_1@@QAE@PB_WKPAVXMLTranscoder@1@PAVMemoryManager@1@@Z 12007e32 f   TransService.obj
 0001:00006e5a       ??1TranscodeFromStr@xercesc_3_1@@QAE@XZ 12007e5a f   TransService.obj
 0001:00006e5a       ??1TranscodeToStr@xercesc_3_1@@QAE@XZ 12007e5a f   TransService.obj
 0001:00006e6a       ?transcode@TranscodeToStr@xercesc_3_1@@AAEXPB_WKPAVXMLTranscoder@2@@Z 12007e6a f   TransService.obj
 0001:00007013       ??0TranscodeFromStr@xercesc_3_1@@QAE@PBEKPBDPAVMemoryManager@1@@Z 12008013 f   TransService.obj
 0001:00007077       ??0TranscodeFromStr@xercesc_3_1@@QAE@PBEKPAVXMLTranscoder@1@PAVMemoryManager@1@@Z 12008077 f   TransService.obj
 0001:0000709f       ?transcode@TranscodeFromStr@xercesc_3_1@@AAEXPBEKPAVXMLTranscoder@2@@Z 1200809f f   TransService.obj
 0001:0000728e       ??0?$RefHashTableOf@VENameMap@xercesc_3_1@@UStringHasher@2@@xercesc_3_1@@QAE@KQAVMemoryManager@1@@Z 1200828e f i TransService.obj
 0001:000072d0       ?put@?$RefHashTableOf@VENameMap@xercesc_3_1@@UStringHasher@2@@xercesc_3_1@@QAEXPAXQAVENameMap@2@@Z 120082d0 f i TransService.obj
 0001:00007357       ??1?$BaseRefVectorOf@VENameMap@xercesc_3_1@@@xercesc_3_1@@UAE@XZ 12008357 f i TransService.obj
 0001:0000735e       ?addElement@?$BaseRefVectorOf@VENameMap@xercesc_3_1@@@xercesc_3_1@@QAEXQAVENameMap@2@@Z 1200835e f i TransService.obj
 0001:000073de       ??0?$RefVectorOf@VENameMap@xercesc_3_1@@@xercesc_3_1@@QAE@K_NQAVMemoryManager@1@@Z 120083de f i TransService.obj
 0001:00007424       ?makeNew@?$ENameMapFor@VXMLChTranscoder@xercesc_3_1@@@xercesc_3_1@@UBEPAVXMLTranscoder@2@KQAVMemoryManager@2@@Z 12008424 f i TransService.obj
 0001:00007463       ?makeNew@?$ENameMapFor@VXMLASCIITranscoder@xercesc_3_1@@@xercesc_3_1@@UBEPAVXMLTranscoder@2@KQAVMemoryManager@2@@Z 12008463 f i TransService.obj
 0001:000074a2       ?makeNew@?$ENameMapFor@VXMLUTF8Transcoder@xercesc_3_1@@@xercesc_3_1@@UBEPAVXMLTranscoder@2@KQAVMemoryManager@2@@Z 120084a2 f i TransService.obj
 0001:000074e1       ?makeNew@?$ENameMapFor@VXML88591Transcoder@xercesc_3_1@@@xercesc_3_1@@UBEPAVXMLTranscoder@2@KQAVMemoryManager@2@@Z 120084e1 f i TransService.obj
 0001:00007520       ??0?$EEndianNameMapFor@VXMLUTF16Transcoder@xercesc_3_1@@@xercesc_3_1@@QAE@QB_W_N@Z 12008520 f i TransService.obj
 0001:00007541       ?makeNew@?$EEndianNameMapFor@VXMLUTF16Transcoder@xercesc_3_1@@@xercesc_3_1@@UBEPAVXMLTranscoder@2@KQAVMemoryManager@2@@Z 12008541 f i TransService.obj
 0001:00007585       ??0?$EEndianNameMapFor@VXMLUCS4Transcoder@xercesc_3_1@@@xercesc_3_1@@QAE@QB_W_N@Z 12008585 f i TransService.obj
 0001:000075a6       ?makeNew@?$EEndianNameMapFor@VXMLUCS4Transcoder@xercesc_3_1@@@xercesc_3_1@@UBEPAVXMLTranscoder@2@KQAVMemoryManager@2@@Z 120085a6 f i TransService.obj
 0001:000075ea       ?makeNew@?$ENameMapFor@VXMLEBCDICTranscoder@xercesc_3_1@@@xercesc_3_1@@UBEPAVXMLTranscoder@2@KQAVMemoryManager@2@@Z 120085ea f i TransService.obj
 0001:00007629       ?makeNew@?$ENameMapFor@VXMLIBM1047Transcoder@xercesc_3_1@@@xercesc_3_1@@UBEPAVXMLTranscoder@2@KQAVMemoryManager@2@@Z 12008629 f i TransService.obj
 0001:00007668       ?makeNew@?$ENameMapFor@VXMLIBM1140Transcoder@xercesc_3_1@@@xercesc_3_1@@UBEPAVXMLTranscoder@2@KQAVMemoryManager@2@@Z 12008668 f i TransService.obj
 0001:000076a7       ?makeNew@?$ENameMapFor@VXMLWin1252Transcoder@xercesc_3_1@@@xercesc_3_1@@UBEPAVXMLTranscoder@2@KQAVMemoryManager@2@@Z 120086a7 f i TransService.obj
 0001:000076e6       ?reset@?$ArrayJanitor@E@xercesc_3_1@@QAEXPAEQAVMemoryManager@2@@Z 120086e6 f i TransService.obj
 0001:000076e6       ?reset@?$ArrayJanitor@_W@xercesc_3_1@@QAEXPA_WQAVMemoryManager@2@@Z 120086e6 f i TransService.obj
 0001:00007714       ??_G?$BaseRefVectorOf@VENameMap@xercesc_3_1@@@xercesc_3_1@@UAEPAXI@Z 12008714 f i TransService.obj
 0001:00007714       ??_E?$BaseRefVectorOf@VENameMap@xercesc_3_1@@@xercesc_3_1@@UAEPAXI@Z 12008714 f i  CIL library: CIL module
 0001:00007734       ??_G?$RefVectorOf@VENameMap@xercesc_3_1@@@xercesc_3_1@@UAEPAXI@Z 12008734 f i TransService.obj
 0001:00007734       ??_E?$RefVectorOf@VENameMap@xercesc_3_1@@@xercesc_3_1@@UAEPAXI@Z 12008734 f i  CIL library: CIL module
 0001:0000779e       ??_G?$ENameMapFor@VXMLChTranscoder@xercesc_3_1@@@xercesc_3_1@@UAEPAXI@Z 1200879e f i TransService.obj
 0001:0000779e       ??_E?$ENameMapFor@VXMLChTranscoder@xercesc_3_1@@@xercesc_3_1@@UAEPAXI@Z 1200879e f i  CIL library: CIL module
 0001:000077c3       ??_G?$ENameMapFor@VXMLASCIITranscoder@xercesc_3_1@@@xercesc_3_1@@UAEPAXI@Z 120087c3 f i TransService.obj
 0001:000077c3       ??_E?$ENameMapFor@VXMLASCIITranscoder@xercesc_3_1@@@xercesc_3_1@@UAEPAXI@Z 120087c3 f i  CIL library: CIL module
 0001:000077e8       ??_E?$ENameMapFor@VXMLUTF8Transcoder@xercesc_3_1@@@xercesc_3_1@@UAEPAXI@Z 120087e8 f i  CIL library: CIL module
 0001:000077e8       ??_G?$ENameMapFor@VXMLUTF8Transcoder@xercesc_3_1@@@xercesc_3_1@@UAEPAXI@Z 120087e8 f i TransService.obj
 0001:0000780d       ??_E?$ENameMapFor@VXML88591Transcoder@xercesc_3_1@@@xercesc_3_1@@UAEPAXI@Z 1200880d f i  CIL library: CIL module
 0001:0000780d       ??_G?$ENameMapFor@VXML88591Transcoder@xercesc_3_1@@@xercesc_3_1@@UAEPAXI@Z 1200880d f i TransService.obj
 0001:00007832       ??_E?$EEndianNameMapFor@VXMLUTF16Transcoder@xercesc_3_1@@@xercesc_3_1@@UAEPAXI@Z 12008832 f i  CIL library: CIL module
 0001:00007832       ??_G?$EEndianNameMapFor@VXMLUTF16Transcoder@xercesc_3_1@@@xercesc_3_1@@UAEPAXI@Z 12008832 f i TransService.obj
 0001:00007857       ??_G?$EEndianNameMapFor@VXMLUCS4Transcoder@xercesc_3_1@@@xercesc_3_1@@UAEPAXI@Z 12008857 f i TransService.obj
 0001:00007857       ??_E?$EEndianNameMapFor@VXMLUCS4Transcoder@xercesc_3_1@@@xercesc_3_1@@UAEPAXI@Z 12008857 f i  CIL library: CIL module
 0001:0000787c       ??_G?$ENameMapFor@VXMLEBCDICTranscoder@xercesc_3_1@@@xercesc_3_1@@UAEPAXI@Z 1200887c f i TransService.obj
 0001:0000787c       ??_E?$ENameMapFor@VXMLEBCDICTranscoder@xercesc_3_1@@@xercesc_3_1@@UAEPAXI@Z 1200887c f i  CIL library: CIL module
 0001:000078a1       ??_G?$ENameMapFor@VXMLIBM1047Transcoder@xercesc_3_1@@@xercesc_3_1@@UAEPAXI@Z 120088a1 f i TransService.obj
 0001:000078a1       ??_E?$ENameMapFor@VXMLIBM1047Transcoder@xercesc_3_1@@@xercesc_3_1@@UAEPAXI@Z 120088a1 f i  CIL library: CIL module
 0001:000078c6       ??_E?$ENameMapFor@VXMLIBM1140Transcoder@xercesc_3_1@@@xercesc_3_1@@UAEPAXI@Z 120088c6 f i  CIL library: CIL module
 0001:000078c6       ??_G?$ENameMapFor@VXMLIBM1140Transcoder@xercesc_3_1@@@xercesc_3_1@@UAEPAXI@Z 120088c6 f i TransService.obj
 0001:000078eb       ??_E?$ENameMapFor@VXMLWin1252Transcoder@xercesc_3_1@@@xercesc_3_1@@UAEPAXI@Z 120088eb f i  CIL library: CIL module
 0001:000078eb       ??_G?$ENameMapFor@VXMLWin1252Transcoder@xercesc_3_1@@@xercesc_3_1@@UAEPAXI@Z 120088eb f i TransService.obj
 0001:00007910       ??2XMemory@xercesc_3_1@@SAPAXI@Z 12008910 f   XMemory.obj
 0001:00007932       ??2XMemory@xercesc_3_1@@SAPAXIPBDH@Z 12008932 f   XMemory.obj
 0001:00007940       ??3XMemory@xercesc_3_1@@SAXPAXPBDH@Z 12008940 f   XMemory.obj
 0001:0000794e       ??2XMemory@xercesc_3_1@@SAPAXIPAVMemoryManager@1@@Z 1200894e f   XMemory.obj
 0001:0000796b       ??2XMemory@xercesc_3_1@@SAPAXIPAX@Z 1200896b f   XMemory.obj
 0001:00007973       ??3XMemory@xercesc_3_1@@SAXPAXPAVMemoryManager@1@@Z 12008973 f   XMemory.obj
 0001:00007973       ??3XMemory@xercesc_3_1@@SAXPAX@Z 12008973 f   XMemory.obj
 0001:0000798a       ?transcodeFrom@XML256TableTranscoder@xercesc_3_1@@UAEKQBEKQA_WKAAKQAE@Z 1200898a f   XML256TableTranscoder.obj
 0001:000079ed       ?transcodeTo@XML256TableTranscoder@xercesc_3_1@@UAEKQB_WKQAEKAAKW4UnRepOpts@XMLTranscoder@2@@Z 120089ed f   XML256TableTranscoder.obj
 0001:00007b18       ?canTranscodeTo@XML256TableTranscoder@xercesc_3_1@@UAE_NI@Z 12008b18 f   XML256TableTranscoder.obj
 0001:00007b2e       ??0XML256TableTranscoder@xercesc_3_1@@IAE@QB_WK0QBUTransRec@XMLTransService@1@KQAVMemoryManager@1@@Z 12008b2e f   XML256TableTranscoder.obj
 0001:00007b61       ?xlatOneTo@XML256TableTranscoder@xercesc_3_1@@IBEE_W@Z 12008b61 f   XML256TableTranscoder.obj
 0001:00007bb0       ??_EXML88591Transcoder@xercesc_3_1@@UAEPAXI@Z 12008bb0 f i XML88591Transcoder.obj
 0001:00007c01       ??0XML88591Transcoder@xercesc_3_1@@QAE@QB_WKQAVMemoryManager@1@@Z 12008c01 f   XML88591Transcoder.obj
 0001:00007c22       ??1XML88591Transcoder@xercesc_3_1@@UAE@XZ 12008c22 f   XML88591Transcoder.obj
 0001:00007c2d       ?transcodeFrom@XML88591Transcoder@xercesc_3_1@@UAEKQBEKQA_WKAAKQAE@Z 12008c2d f   XML88591Transcoder.obj
 0001:00007c74       ?transcodeTo@XML88591Transcoder@xercesc_3_1@@UAEKQB_WKQAEKAAKW4UnRepOpts@XMLTranscoder@2@@Z 12008c74 f   XML88591Transcoder.obj
 0001:00007d82       ?canTranscodeTo@XML88591Transcoder@xercesc_3_1@@UAE_NI@Z 12008d82 f   XML88591Transcoder.obj
 0001:00007d94       ??_FXMLAbstractDoubleFloat@xercesc_3_1@@QAEXXZ 12008d94 f i XMLAbstractDoubleFloat.obj
 0001:00007da0       ??_EXMLAbstractDoubleFloat@xercesc_3_1@@UAEPAXI@Z 12008da0 f i XMLAbstractDoubleFloat.obj
 0001:00007deb       ?isSpecialValue@XMLAbstractDoubleFloat@xercesc_3_1@@ABE_NXZ 12008deb f i XMLAbstractDoubleFloat.obj
 0001:00007df5       ?getIssueFatalErrorIfNotFound@InputSource@xercesc_3_1@@UBE_NXZ 12008df5 f i LocalFileInputSource.obj
 0001:00007df5       ?getExpandEntityReferences@DOMNodeIteratorImpl@xercesc_3_1@@UAE_NXZ 12008df5 f i DOMNodeIteratorImpl.obj
 0001:00007df5       ?isDataConverted@XMLAbstractDoubleFloat@xercesc_3_1@@QBE_NXZ 12008df5 f i XMLAbstractDoubleFloat.obj
 0001:00007df5       ?getCreateEntityReferenceNodes@AbstractDOMParser@xercesc_3_1@@QBE_NXZ 12008df5 f i XSAnnotation.obj
 0001:00007df5       ?getExpandEntityReferences@DOMTreeWalkerImpl@xercesc_3_1@@UAE_NXZ 12008df5 f i DOMTreeWalkerImpl.obj
 0001:00007df5       ?isExternal@XMLElementDecl@xercesc_3_1@@QBE_NXZ 12008df5 f i XMLDTDDescription.obj
 0001:00007df5       ?getRequired@XSAttributeUse@xercesc_3_1@@QBE_NXZ 12008df5 f i XSAttributeGroupDefinition.obj
 0001:00007df9       ?isDataOverflowed@XMLAbstractDoubleFloat@xercesc_3_1@@QBE_NXZ 12008df9 f i XMLAbstractDoubleFloat.obj
 0001:00007df9       ?getIncludeIgnorableWhitespace@AbstractDOMParser@xercesc_3_1@@QBE_NXZ 12008df9 f i XSAnnotation.obj
 0001:00007df9       ?isValidatorFromUser@XMLScanner@xercesc_3_1@@QAE_NXZ 12008df9 f i XMLValidator.obj
 0001:00007dfd       ?getValue@XMLAbstractDoubleFloat@xercesc_3_1@@QBENXZ 12008dfd f i XMLAbstractDoubleFloat.obj
 0001:00007e01       ??_FXMLBigDecimal@xercesc_3_1@@QAEXXZ 12008e01 f i XMLAbstractDoubleFloat.obj
 0001:00007e0d       ??0NumberFormatException@xercesc_3_1@@QAE@QBD_KW4Codes@XMLExcepts@1@PAVMemoryManager@1@@Z 12008e0d f i XMLAbstractDoubleFloat.obj
 0001:00007e4d       ??0NumberFormatException@xercesc_3_1@@QAE@ABV01@@Z 12008e4d f i XMLAbstractDoubleFloat.obj
 0001:00007e68       ??0NumberFormatException@xercesc_3_1@@QAE@QBD_KW4Codes@XMLExcepts@1@QB_W333PAVMemoryManager@1@@Z 12008e68 f i XMLAbstractDoubleFloat.obj
 0001:00007eb4       ??0NumberFormatException@xercesc_3_1@@QAE@QBD_KW4Codes@XMLExcepts@1@0000PAVMemoryManager@1@@Z 12008eb4 f i XMLAbstractDoubleFloat.obj
 0001:00007f00       ??1NumberFormatException@xercesc_3_1@@UAE@XZ 12008f00 f i XMLAbstractDoubleFloat.obj
 0001:00007f0b       ??4InvalidDatatypeFacetException@xercesc_3_1@@QAEAAV01@ABV01@@Z 12008f0b f i AbstractNumericFacetValidator.obj
 0001:00007f0b       ??4XPathException@xercesc_3_1@@QAEAAV01@ABV01@@Z 12008f0b f i TraverseSchema.obj
 0001:00007f0b       ??4InvalidCastException@xercesc_3_1@@QAEAAV01@ABV01@@Z 12008f0b f i HeaderDummy.obj
 0001:00007f0b       ??4TranscodingException@xercesc_3_1@@QAEAAV01@ABV01@@Z 12008f0b f i Base64.obj
 0001:00007f0b       ??4NetAccessorException@xercesc_3_1@@QAEAAV01@ABV01@@Z 12008f0b f i PlatformUtils.obj
 0001:00007f0b       ??4NumberFormatException@xercesc_3_1@@QAEAAV01@ABV01@@Z 12008f0b f i XMLAbstractDoubleFloat.obj
 0001:00007f0b       ??4IllegalArgumentException@xercesc_3_1@@QAEAAV01@ABV01@@Z 12008f0b f i EncodingValidator.obj
 0001:00007f0b       ??4XMLPlatformUtilsException@xercesc_3_1@@QAEAAV01@ABV01@@Z 12008f0b f i Base64.obj
 0001:00007f0b       ??4UnexpectedEOFException@xercesc_3_1@@QAEAAV01@ABV01@@Z 12008f0b f i HeaderDummy.obj
 0001:00007f0b       ??4NullPointerException@xercesc_3_1@@QAEAAV01@ABV01@@Z 12008f0b f i EncodingValidator.obj
 0001:00007f0b       ??4SchemaDateTimeException@xercesc_3_1@@QAEAAV01@ABV01@@Z 12008f0b f i XMLDateTime.obj
 0001:00007f0b       ??4InvalidDatatypeValueException@xercesc_3_1@@QAEAAV01@ABV01@@Z 12008f0b f i ValidationContextImpl.obj
 0001:00007f0b       ??4ArrayIndexOutOfBoundsException@xercesc_3_1@@QAEAAV01@ABV01@@Z 12008f0b f i Base64.obj
 0001:00007f0b       ??4EmptyStackException@xercesc_3_1@@QAEAAV01@ABV01@@Z 12008f0b f i HeaderDummy.obj
 0001:00007f0b       ??4XSerializationException@xercesc_3_1@@QAEAAV01@ABV01@@Z 12008f0b f i KVStringPair.obj
 0001:00007f0b       ??4UnsupportedEncodingException@xercesc_3_1@@QAEAAV01@ABV01@@Z 12008f0b f i HeaderDummy.obj
 0001:00007f0b       ??4ParseException@xercesc_3_1@@QAEAAV01@ABV01@@Z 12008f0b f i ParserForXMLSchema.obj
 0001:00007f0b       ??4MalformedURLException@xercesc_3_1@@QAEAAV01@ABV01@@Z 12008f0b f i PlatformUtils.obj
 0001:00007f0b       ??4NoSuchElementException@xercesc_3_1@@QAEAAV01@ABV01@@Z 12008f0b f i EncodingValidator.obj
 0001:00007f0b       ??4IOException@xercesc_3_1@@QAEAAV01@ABV01@@Z 12008f0b f i HeaderDummy.obj
 0001:00007f0b       ??4UTFDataFormatException@xercesc_3_1@@QAEAAV01@ABV01@@Z 12008f0b f i HeaderDummy.obj
 0001:00007f0b       ??4RuntimeException@xercesc_3_1@@QAEAAV01@ABV01@@Z 12008f0b f i EncodingValidator.obj
 0001:00007f20       ?duplicate@NumberFormatException@xercesc_3_1@@UBEPAVXMLException@2@XZ 12008f20 f i XMLAbstractDoubleFloat.obj
 0001:00007f61       ?getType@NumberFormatException@xercesc_3_1@@UBEPB_WXZ 12008f61 f i XMLAbstractDoubleFloat.obj
 0001:00007f67       ??_ENumberFormatException@xercesc_3_1@@UAEPAXI@Z 12008f67 f i XMLAbstractDoubleFloat.obj
 0001:00007fb8       ??0XMLAbstractDoubleFloat@xercesc_3_1@@IAE@QAVMemoryManager@1@@Z 12008fb8 f   XMLAbstractDoubleFloat.obj
 0001:00007fe8       ??1XMLAbstractDoubleFloat@xercesc_3_1@@UAE@XZ 12008fe8 f   XMLAbstractDoubleFloat.obj
 0001:00008025       ?init@XMLAbstractDoubleFloat@xercesc_3_1@@IAEXQB_W@Z 12009025 f   XMLAbstractDoubleFloat.obj
 0001:000082ae       ?getFormattedString@XMLAbstractDoubleFloat@xercesc_3_1@@UBEPB_WXZ 120092ae f   XMLAbstractDoubleFloat.obj
 0001:000082cc       ?formatString@XMLAbstractDoubleFloat@xercesc_3_1@@AAEXXZ 120092cc f   XMLAbstractDoubleFloat.obj
 0001:0000836e       ?compareValues@XMLAbstractDoubleFloat@xercesc_3_1@@KAHQBV12@0QAVMemoryManager@2@@Z 1200936e f   XMLAbstractDoubleFloat.obj
 0001:00008407       ?compareSpecial@XMLAbstractDoubleFloat@xercesc_3_1@@CAHQBV12@QAVMemoryManager@2@@Z 12009407 f   XMLAbstractDoubleFloat.obj
 0001:000084f1       ?normalizeZero@XMLAbstractDoubleFloat@xercesc_3_1@@AAEXQA_W@Z 120094f1 f   XMLAbstractDoubleFloat.obj
 0001:0000867b       ?normalizeDecimalPoint@XMLAbstractDoubleFloat@xercesc_3_1@@SAXQAD@Z 1200967b f   XMLAbstractDoubleFloat.obj
 0001:000086a4       ?convert@XMLAbstractDoubleFloat@xercesc_3_1@@IAEXQAD@Z 120096a4 f   XMLAbstractDoubleFloat.obj
 0001:00008768       ?getCanonicalRepresentation@XMLAbstractDoubleFloat@xercesc_3_1@@SAPA_WQB_WQAVMemoryManager@2@@Z 12009768 f   XMLAbstractDoubleFloat.obj
 0001:000089fc       ?getProtoType@XMLAbstractDoubleFloat@xercesc_3_1@@UBEPAVXProtoType@2@XZ 120099fc f   XMLAbstractDoubleFloat.obj
 0001:00008a02       ?serialize@XMLAbstractDoubleFloat@xercesc_3_1@@UAEXAAVXSerializeEngine@2@@Z 12009a02 f   XMLAbstractDoubleFloat.obj
 0001:00008ac8       ??_EXMLASCIITranscoder@xercesc_3_1@@UAEPAXI@Z 12009ac8 f i XMLASCIITranscoder.obj
 0001:00008b19       ??0XMLASCIITranscoder@xercesc_3_1@@QAE@QB_WKQAVMemoryManager@1@@Z 12009b19 f   XMLASCIITranscoder.obj
 0001:00008b3a       ??1XMLASCIITranscoder@xercesc_3_1@@UAE@XZ 12009b3a f   XMLASCIITranscoder.obj
 0001:00008b45       ?transcodeFrom@XMLASCIITranscoder@xercesc_3_1@@UAEKQBEKQA_WKAAKQAE@Z 12009b45 f   XMLASCIITranscoder.obj
 0001:00008c6b       ?transcodeTo@XMLASCIITranscoder@xercesc_3_1@@UAEKQB_WKQAEKAAKW4UnRepOpts@XMLTranscoder@2@@Z 12009c6b f   XMLASCIITranscoder.obj
 0001:00008d7d       ?canTranscodeTo@XMLASCIITranscoder@xercesc_3_1@@UAE_NI@Z 12009d7d f   XMLASCIITranscoder.obj
 0001:00008d8f       ??_EXMLBigDecimal@xercesc_3_1@@UAEPAXI@Z 12009d8f f i XMLBigDecimal.obj
 0001:00008dda       ?getTotalDigit@XMLBigInteger@xercesc_3_1@@QBEIXZ 12009dda f i XMLBigDecimal.obj
 0001:00008dea       ??8XMLBigInteger@xercesc_3_1@@QBE_NABV01@@Z 12009dea f i XMLBigDecimal.obj
 0001:00008e06       ??0XMLBigDecimal@xercesc_3_1@@QAE@QB_WQAVMemoryManager@1@@Z 12009e06 f   XMLBigDecimal.obj
 0001:00008ef8       ??1XMLBigDecimal@xercesc_3_1@@UAE@XZ 12009ef8 f   XMLBigDecimal.obj
 0001:00008f24       ?cleanUp@XMLBigDecimal@xercesc_3_1@@AAEXXZ 12009f24 f   XMLBigDecimal.obj
 0001:00008f35       ?setDecimalValue@XMLBigDecimal@xercesc_3_1@@QAEXQB_W@Z 12009f35 f   XMLBigDecimal.obj
 0001:00008fbb       ?getCanonicalRepresentation@XMLBigDecimal@xercesc_3_1@@SAPA_WQB_WQAVMemoryManager@2@@Z 12009fbb f   XMLBigDecimal.obj
 0001:00009118       ?parseDecimal@XMLBigDecimal@xercesc_3_1@@SAXQB_WQA_WAAH22QAVMemoryManager@2@@Z 1200a118 f   XMLBigDecimal.obj
 0001:00009309       ?parseDecimal@XMLBigDecimal@xercesc_3_1@@SAXQB_WQAVMemoryManager@2@@Z 1200a309 f   XMLBigDecimal.obj
 0001:00009477       ?compareValues@XMLBigDecimal@xercesc_3_1@@SAHQBV12@0QAVMemoryManager@2@@Z 1200a477 f   XMLBigDecimal.obj
 0001:000094bf       ?toCompare@XMLBigDecimal@xercesc_3_1@@QBEHABV12@@Z 1200a4bf f   XMLBigDecimal.obj
 0001:0000952c       ?createObject@XMLBigDecimal@xercesc_3_1@@SAPAVXSerializable@2@PAVMemoryManager@2@@Z 1200a52c f   XMLBigDecimal.obj
 0001:0000954f       ?getProtoType@XMLBigDecimal@xercesc_3_1@@UBEPAVXProtoType@2@XZ 1200a54f f   XMLBigDecimal.obj
 0001:00009555       ??0XMLBigDecimal@xercesc_3_1@@QAE@QAVMemoryManager@1@@Z 1200a555 f   XMLBigDecimal.obj
 0001:0000957e       ?serialize@XMLBigDecimal@xercesc_3_1@@UAEXAAVXSerializeEngine@2@@Z 1200a57e f   XMLBigDecimal.obj
 0001:0000971a       ?getCanonicalRepresentation@XMLBigInteger@xercesc_3_1@@SAPA_WQB_WQAVMemoryManager@2@_N@Z 1200a71a f   XMLBigInteger.obj
 0001:000097d6       ?parseBigInteger@XMLBigInteger@xercesc_3_1@@SAXQB_WQA_WAAHQAVMemoryManager@2@@Z 1200a7d6 f   XMLBigInteger.obj
 0001:0000995d       ??0XMLBigInteger@xercesc_3_1@@QAE@QB_WQAVMemoryManager@1@@Z 1200a95d f   XMLBigInteger.obj
 0001:00009a4d       ??1XMLBigInteger@xercesc_3_1@@QAE@XZ 1200aa4d f   XMLBigInteger.obj
 0001:00009a6d       ??0XMLBigInteger@xercesc_3_1@@QAE@ABV01@@Z 1200aa6d f   XMLBigInteger.obj
 0001:00009aae       ?compareValues@XMLBigInteger@xercesc_3_1@@SAHQBV12@0QAVMemoryManager@2@@Z 1200aaae f   XMLBigInteger.obj
 0001:00009b5a       ?compareValues@XMLBigInteger@xercesc_3_1@@SAHQB_WABH01QAVMemoryManager@2@@Z 1200ab5a f   XMLBigInteger.obj
 0001:00009c03       ?multiply@XMLBigInteger@xercesc_3_1@@QAEXI@Z 1200ac03 f   XMLBigInteger.obj
 0001:00009c89       ?divide@XMLBigInteger@xercesc_3_1@@QAEXI@Z 1200ac89 f   XMLBigInteger.obj
 0001:00009cdd       ?intValue@XMLBigInteger@xercesc_3_1@@QBEHXZ 1200acdd f   XMLBigInteger.obj
 0001:00009cff       ?isAllSpaces@XMLChar1_0@xercesc_3_1@@SA_NQB_WK@Z 1200acff f   XMLChar.obj
 0001:00009d2e       ?containsWhiteSpace@XMLChar1_0@xercesc_3_1@@SA_NQB_WK@Z 1200ad2e f   XMLChar.obj
 0001:00009d5d       ?isValidNCName@XMLChar1_0@xercesc_3_1@@SA_NQB_WK@Z 1200ad5d f   XMLChar.obj
 0001:00009d9e       ?isValidNmtoken@XMLChar1_0@xercesc_3_1@@SA_NQB_WK@Z 1200ad9e f   XMLChar.obj
 0001:00009dcd       ?isValidName@XMLChar1_0@xercesc_3_1@@SA_NQB_WK@Z 1200adcd f   XMLChar.obj
 0001:00009e09       ?isValidName@XMLChar1_0@xercesc_3_1@@SA_NQB_W@Z 1200ae09 f   XMLChar.obj
 0001:00009e3b       ?isValidQName@XMLChar1_0@xercesc_3_1@@SA_NQB_WK@Z 1200ae3b f   XMLChar.obj
 0001:00009eac       ?isPublicIdChar@XMLChar1_0@xercesc_3_1@@SA_N_W0@Z 1200aeac f   XMLChar.obj
 0001:00009eac       ?isPublicIdChar@XMLChar1_1@xercesc_3_1@@SA_N_W0@Z 1200aeac f   XMLChar.obj
 0001:00009f00       ?enableNELWS@XMLChar1_0@xercesc_3_1@@SAXXZ 1200af00 f   XMLChar.obj
 0001:00009f20       ?isAllSpaces@XMLChar1_1@xercesc_3_1@@SA_NQB_WK@Z 1200af20 f   XMLChar.obj
 0001:00009f4f       ?containsWhiteSpace@XMLChar1_1@xercesc_3_1@@SA_NQB_WK@Z 1200af4f f   XMLChar.obj
 0001:00009f7e       ?isValidNCName@XMLChar1_1@xercesc_3_1@@SA_NQB_WK@Z 1200af7e f   XMLChar.obj
 0001:0000a034       ?isValidNmtoken@XMLChar1_1@xercesc_3_1@@SA_NQB_WK@Z 1200b034 f   XMLChar.obj
 0001:0000a0a8       ?isValidName@XMLChar1_1@xercesc_3_1@@SA_NQB_WK@Z 1200b0a8 f   XMLChar.obj
 0001:0000a15b       ?isValidName@XMLChar1_1@xercesc_3_1@@SA_NQB_W@Z 1200b15b f   XMLChar.obj
 0001:0000a204       ?isValidQName@XMLChar1_1@xercesc_3_1@@SA_NQB_WK@Z 1200b204 f   XMLChar.obj
 0001:0000a25a       ??_EXMLChTranscoder@xercesc_3_1@@UAEPAXI@Z 1200b25a f i XMLChTranscoder.obj
 0001:0000a2ab       ??0XMLChTranscoder@xercesc_3_1@@QAE@QB_WKQAVMemoryManager@1@@Z 1200b2ab f   XMLChTranscoder.obj
 0001:0000a2cc       ??1XMLChTranscoder@xercesc_3_1@@UAE@XZ 1200b2cc f   XMLChTranscoder.obj
 0001:0000a2d7       ?transcodeFrom@XMLChTranscoder@xercesc_3_1@@UAEKQBEKQA_WKAAKQAE@Z 1200b2d7 f   XMLChTranscoder.obj
 0001:0000a316       ?transcodeTo@XMLChTranscoder@xercesc_3_1@@UAEKQB_WKQAEKAAKW4UnRepOpts@XMLTranscoder@2@@Z 1200b316 f   XMLChTranscoder.obj
 0001:0000a349       ??0SchemaDateTimeException@xercesc_3_1@@QAE@QBD_KW4Codes@XMLExcepts@1@PAVMemoryManager@1@@Z 1200b349 f i XMLDateTime.obj
 0001:0000a389       ??0SchemaDateTimeException@xercesc_3_1@@QAE@ABV01@@Z 1200b389 f i XMLDateTime.obj
 0001:0000a3a4       ??0SchemaDateTimeException@xercesc_3_1@@QAE@QBD_KW4Codes@XMLExcepts@1@QB_W333PAVMemoryManager@1@@Z 1200b3a4 f i XMLDateTime.obj
 0001:0000a3f0       ??0SchemaDateTimeException@xercesc_3_1@@QAE@QBD_KW4Codes@XMLExcepts@1@0000PAVMemoryManager@1@@Z 1200b3f0 f i XMLDateTime.obj
 0001:0000a43c       ??1SchemaDateTimeException@xercesc_3_1@@UAE@XZ 1200b43c f i XMLDateTime.obj
 0001:0000a447       ?duplicate@SchemaDateTimeException@xercesc_3_1@@UBEPAVXMLException@2@XZ 1200b447 f i XMLDateTime.obj
 0001:0000a488       ?getType@SchemaDateTimeException@xercesc_3_1@@UBEPB_WXZ 1200b488 f i XMLDateTime.obj
 0001:0000a48e       ??_ESchemaDateTimeException@xercesc_3_1@@UAEPAXI@Z 1200b48e f i XMLDateTime.obj
 0001:0000a4df       ??_FXMLDateTime@xercesc_3_1@@QAEXXZ 1200b4df f i XMLDateTime.obj
 0001:0000a4eb       ??_EXMLDateTime@xercesc_3_1@@UAEPAXI@Z 1200b4eb f i XMLDateTime.obj
 0001:0000a536       ?setBuffer@XMLDateTime@xercesc_3_1@@QAEXQB_W@Z 1200b536 f i XMLDateTime.obj
 0001:0000a5c1       ?reset@XMLDateTime@xercesc_3_1@@AAEXXZ 1200b5c1 f i XMLDateTime.obj
 0001:0000a5ee       ?copy@XMLDateTime@xercesc_3_1@@AAEXABV12@@Z 1200b5ee f i XMLDateTime.obj
 0001:0000a67a       ?initParser@XMLDateTime@xercesc_3_1@@AAE_NXZ 1200b67a f i XMLDateTime.obj
 0001:0000a691       ?isNormalized@XMLDateTime@xercesc_3_1@@ABE_NXZ 1200b691 f i XMLDateTime.obj
 0001:0000a699       ?getRetVal@XMLDateTime@xercesc_3_1@@CAHHH@Z 1200b699 f i XMLDateTime.obj
 0001:0000a742       ?compare@XMLDateTime@xercesc_3_1@@SAHQBV12@0_N@Z 1200b742 f   XMLDateTime.obj
 0001:0000a923       ?addDuration@XMLDateTime@xercesc_3_1@@CAXPAV12@QBV12@H@Z 1200b923 f   XMLDateTime.obj
 0001:0000aa8c       ?compareResult@XMLDateTime@xercesc_3_1@@CAHHH_N@Z 1200ba8c f   XMLDateTime.obj
 0001:0000aab6       ?compare@XMLDateTime@xercesc_3_1@@SAHQBV12@0@Z 1200bab6 f   XMLDateTime.obj
 0001:0000ab2f       ?compareResult@XMLDateTime@xercesc_3_1@@CAHQBV12@0_NH@Z 1200bb2f f   XMLDateTime.obj
 0001:0000abe7       ?compareOrder@XMLDateTime@xercesc_3_1@@SAHQBV12@0@Z 1200bbe7 f   XMLDateTime.obj
 0001:0000acf2       ??1XMLDateTime@xercesc_3_1@@UAE@XZ 1200bcf2 f   XMLDateTime.obj
 0001:0000ad29       ??0XMLDateTime@xercesc_3_1@@QAE@QAVMemoryManager@1@@Z 1200bd29 f   XMLDateTime.obj
 0001:0000ad5d       ??0XMLDateTime@xercesc_3_1@@QAE@QB_WQAVMemoryManager@1@@Z 1200bd5d f   XMLDateTime.obj
 0001:0000ada5       ??0XMLDateTime@xercesc_3_1@@QAE@ABV01@@Z 1200bda5 f   XMLDateTime.obj
 0001:0000ade2       ??4XMLDateTime@xercesc_3_1@@QAEAAV01@ABV01@@Z 1200bde2 f   XMLDateTime.obj
 0001:0000adfc       ?getFormattedString@XMLDateTime@xercesc_3_1@@UBEPB_WXZ 1200bdfc f   XMLDateTime.obj
 0001:0000ae01       ?parseDateTime@XMLDateTime@xercesc_3_1@@QAEXXZ 1200be01 f   XMLDateTime.obj
 0001:0000af23       ?parseDate@XMLDateTime@xercesc_3_1@@QAEXXZ 1200bf23 f   XMLDateTime.obj
 0001:0000afe2       ?parseTime@XMLDateTime@xercesc_3_1@@QAEXXZ 1200bfe2 f   XMLDateTime.obj
 0001:0000b0b3       ?parseDay@XMLDateTime@xercesc_3_1@@QAEXXZ 1200c0b3 f   XMLDateTime.obj
 0001:0000b272       ?parseMonth@XMLDateTime@xercesc_3_1@@QAEXXZ 1200c272 f   XMLDateTime.obj
 0001:0000b441       ?parseYear@XMLDateTime@xercesc_3_1@@QAEXXZ 1200c441 f   XMLDateTime.obj
 0001:0000b538       ?parseMonthDay@XMLDateTime@xercesc_3_1@@QAEXXZ 1200c538 f   XMLDateTime.obj
 0001:0000b6f7       ?parseYearMonth@XMLDateTime@xercesc_3_1@@QAEXXZ 1200c6f7 f   XMLDateTime.obj
 0001:0000b7bd       ?parseDuration@XMLDateTime@xercesc_3_1@@QAEXXZ 1200c7bd f   XMLDateTime.obj
 0001:0000bcbf       ?getDate@XMLDateTime@xercesc_3_1@@AAEXXZ 1200ccbf f   XMLDateTime.obj
 0001:0000bdd1       ?getTime@XMLDateTime@xercesc_3_1@@AAEXXZ 1200cdd1 f   XMLDateTime.obj
 0001:0000c02c       ?getYearMonth@XMLDateTime@xercesc_3_1@@AAEXXZ 1200d02c f   XMLDateTime.obj
 0001:0000c1ae       ?parseTimeZone@XMLDateTime@xercesc_3_1@@AAEXXZ 1200d1ae f   XMLDateTime.obj
 0001:0000c267       ?getTimeZone@XMLDateTime@xercesc_3_1@@AAEXK@Z 1200d267 f   XMLDateTime.obj
 0001:0000c386       ?normalize@XMLDateTime@xercesc_3_1@@AAEXXZ 1200d386 f   XMLDateTime.obj
 0001:0000c4a0       ?validateDateTime@XMLDateTime@xercesc_3_1@@ABEXXZ 1200d4a0 f   XMLDateTime.obj
 0001:0000c86d       ?indexOf@XMLDateTime@xercesc_3_1@@ABEHKK_W@Z 1200d86d f   XMLDateTime.obj
 0001:0000c897       ?findUTCSign@XMLDateTime@xercesc_3_1@@AAEHK@Z 1200d897 f   XMLDateTime.obj
 0001:0000c8df       ?parseInt@XMLDateTime@xercesc_3_1@@ABEHKK@Z 1200d8df f   XMLDateTime.obj
 0001:0000c947       ?parseMiliSecond@XMLDateTime@xercesc_3_1@@ABENKK@Z 1200d947 f   XMLDateTime.obj
 0001:0000c9ec       ?parseIntYear@XMLDateTime@xercesc_3_1@@ABEHK@Z 1200d9ec f   XMLDateTime.obj
 0001:0000cb09       ?getDateTimeCanonicalRepresentation@XMLDateTime@xercesc_3_1@@QBEPA_WQAVMemoryManager@2@@Z 1200db09 f   XMLDateTime.obj
 0001:0000cc8c       ?getDateCanonicalRepresentation@XMLDateTime@xercesc_3_1@@QBEPA_WQAVMemoryManager@2@@Z 1200dc8c f   XMLDateTime.obj
 0001:0000cf31       ?getTimeCanonicalRepresentation@XMLDateTime@xercesc_3_1@@QBEPA_WQAVMemoryManager@2@@Z 1200df31 f   XMLDateTime.obj
 0001:0000d00f       ?fillString@XMLDateTime@xercesc_3_1@@ABEXAAPA_WHK@Z 1200e00f f   XMLDateTime.obj
 0001:0000d082       ?fillYearString@XMLDateTime@xercesc_3_1@@ABEHAAPA_WH@Z 1200e082 f   XMLDateTime.obj
 0001:0000d11f       ?searchMiliSeconds@XMLDateTime@xercesc_3_1@@ABEXAAPA_W0@Z 1200e11f f   XMLDateTime.obj
 0001:0000d17c       ?createObject@XMLDateTime@xercesc_3_1@@SAPAVXSerializable@2@PAVMemoryManager@2@@Z 1200e17c f   XMLDateTime.obj
 0001:0000d19f       ?getProtoType@XMLDateTime@xercesc_3_1@@UBEPAVXProtoType@2@XZ 1200e19f f   XMLDateTime.obj
 0001:0000d1a5       ?serialize@XMLDateTime@xercesc_3_1@@UAEXAAVXSerializeEngine@2@@Z 1200e1a5 f   XMLDateTime.obj
 0001:0000d278       ??_FXMLDouble@xercesc_3_1@@QAEXXZ 1200e278 f i XMLDouble.obj
 0001:0000d28c       ??_EXMLDouble@xercesc_3_1@@UAEPAXI@Z 1200e28c f i XMLDouble.obj
 0001:0000d2dd       ?compareValues@XMLFloat@xercesc_3_1@@SAHQBV12@0@Z 1200e2dd f i XMLFloat.obj
 0001:0000d2dd       ?compareValues@XMLDouble@xercesc_3_1@@SAHQBV12@0@Z 1200e2dd f i XMLDouble.obj
 0001:0000d2f4       ??0XMLDouble@xercesc_3_1@@QAE@QB_WQAVMemoryManager@1@@Z 1200e2f4 f   XMLDouble.obj
 0001:0000d32b       ??1XMLDouble@xercesc_3_1@@UAE@XZ 1200e32b f   XMLDouble.obj
 0001:0000d336       ?checkBoundary@XMLDouble@xercesc_3_1@@MAEXQAD@Z 1200e336 f   XMLDouble.obj
 0001:0000d33f       ?createObject@XMLDouble@xercesc_3_1@@SAPAVXSerializable@2@PAVMemoryManager@2@@Z 1200e33f f   XMLDouble.obj
 0001:0000d36c       ?getProtoType@XMLDouble@xercesc_3_1@@UBEPAVXProtoType@2@XZ 1200e36c f   XMLDouble.obj
 0001:0000d372       ??0XMLDouble@xercesc_3_1@@QAE@QAVMemoryManager@1@@Z 1200e372 f   XMLDouble.obj
 0001:0000d38b       ?serialize@XMLDouble@xercesc_3_1@@UAEXAAVXSerializeEngine@2@@Z 1200e38b f   XMLDouble.obj
 0001:0000d38b       ?serialize@XMLFloat@xercesc_3_1@@UAEXAAVXSerializeEngine@2@@Z 1200e38b f   XMLFloat.obj
 0001:0000d394       ?xlatThisOne@XMLEBCDICTranscoder@xercesc_3_1@@SA_WE@Z 1200e394 f   XMLEBCDICTranscoder.obj
 0001:0000d3a5       ??0XMLEBCDICTranscoder@xercesc_3_1@@QAE@QB_WKQAVMemoryManager@1@@Z 1200e3a5 f   XMLEBCDICTranscoder.obj
 0001:0000d3d5       ??1XMLEBCDICTranscoder@xercesc_3_1@@UAE@XZ 1200e3d5 f   XMLEBCDICTranscoder.obj
 0001:0000d3d5       ??1XMLIBM1047Transcoder@xercesc_3_1@@UAE@XZ 1200e3d5 f   XMLIBM1047Transcoder.obj
 0001:0000d3d5       ??1XML256TableTranscoder@xercesc_3_1@@UAE@XZ 1200e3d5 f   XML256TableTranscoder.obj
 0001:0000d3d5       ??1XMLWin1252Transcoder@xercesc_3_1@@UAE@XZ 1200e3d5 f   XMLWin1252Transcoder.obj
 0001:0000d3d5       ??1XMLIBM1140Transcoder@xercesc_3_1@@UAE@XZ 1200e3d5 f   XMLIBM1140Transcoder.obj
 0001:0000d3e0       ??_EXMLException@xercesc_3_1@@UAEPAXI@Z 1200e3e0 f i XMLException.obj
 0001:0000d42b       ?initializeXMLException@XMLInitializer@xercesc_3_1@@CAXXZ 1200e42b f   XMLException.obj
 0001:0000d448       ?terminateXMLException@XMLInitializer@xercesc_3_1@@CAXXZ 1200e448 f   XMLException.obj
 0001:0000d460       ??1XMLException@xercesc_3_1@@UAE@XZ 1200e460 f   XMLException.obj
 0001:0000d481       ?setPosition@XMLException@xercesc_3_1@@QAEXQBD_K@Z 1200e481 f   XMLException.obj
 0001:0000d4b3       ??0XMLException@xercesc_3_1@@QAE@XZ 1200e4b3 f   XMLException.obj
 0001:0000d4df       ??0XMLException@xercesc_3_1@@QAE@QBD_KQAVMemoryManager@1@@Z 1200e4df f   XMLException.obj
 0001:0000d52f       ??0XMLException@xercesc_3_1@@QAE@ABV01@@Z 1200e52f f   XMLException.obj
 0001:0000d586       ??4XMLException@xercesc_3_1@@QAEAAV01@ABV01@@Z 1200e586 f   XMLException.obj
 0001:0000d5fc       ?loadExceptText@XMLException@xercesc_3_1@@IAEXW4Codes@XMLExcepts@2@@Z 1200e5fc f   XMLException.obj
 0001:0000d664       ?loadExceptText@XMLException@xercesc_3_1@@IAEXW4Codes@XMLExcepts@2@QB_W111@Z 1200e664 f   XMLException.obj
 0001:0000d6ee       ?loadExceptText@XMLException@xercesc_3_1@@IAEXW4Codes@XMLExcepts@2@QBD111@Z 1200e6ee f   XMLException.obj
 0001:0000d778       ??_FXMLFloat@xercesc_3_1@@QAEXXZ 1200e778 f i XMLFloat.obj
 0001:0000d78c       ??_EXMLFloat@xercesc_3_1@@UAEPAXI@Z 1200e78c f i XMLFloat.obj
 0001:0000d7dd       ?pow@@YANNH@Z              1200e7dd f i XMLFloat.obj
 0001:0000d80d       ??0XMLFloat@xercesc_3_1@@QAE@QB_WQAVMemoryManager@1@@Z 1200e80d f   XMLFloat.obj
 0001:0000d844       ??1XMLFloat@xercesc_3_1@@UAE@XZ 1200e844 f   XMLFloat.obj
 0001:0000d84f       ?checkBoundary@XMLFloat@xercesc_3_1@@MAEXQAD@Z 1200e84f f   XMLFloat.obj
 0001:0000d96f       ?createObject@XMLFloat@xercesc_3_1@@SAPAVXSerializable@2@PAVMemoryManager@2@@Z 1200e96f f   XMLFloat.obj
 0001:0000d99c       ?getProtoType@XMLFloat@xercesc_3_1@@UBEPAVXProtoType@2@XZ 1200e99c f   XMLFloat.obj
 0001:0000d9a2       ??0XMLFloat@xercesc_3_1@@QAE@QAVMemoryManager@1@@Z 1200e9a2 f   XMLFloat.obj
 0001:0000d9bb       ?xlatThisOne@XMLIBM1047Transcoder@xercesc_3_1@@SA_WE@Z 1200e9bb f   XMLIBM1047Transcoder.obj
 0001:0000d9cc       ??0XMLIBM1047Transcoder@xercesc_3_1@@QAE@QB_WKQAVMemoryManager@1@@Z 1200e9cc f   XMLIBM1047Transcoder.obj
 0001:0000d9fc       ?xlatThisOne@XMLIBM1140Transcoder@xercesc_3_1@@SA_WE@Z 1200e9fc f   XMLIBM1140Transcoder.obj
 0001:0000da0d       ??0XMLIBM1140Transcoder@xercesc_3_1@@QAE@QB_WKQAVMemoryManager@1@@Z 1200ea0d f   XMLIBM1140Transcoder.obj
 0001:0000da3d       ?initializeStaticData@XMLInitializer@xercesc_3_1@@KAXXZ 1200ea3d f   XMLInitializer.obj
 0001:0000dab6       ?terminateStaticData@XMLInitializer@xercesc_3_1@@KAXXZ 1200eab6 f   XMLInitializer.obj
 0001:0000db0d       ?setLocale@XMLMsgLoader@xercesc_3_1@@SAXQBD@Z 1200eb0d f   XMLMsgLoader.obj
 0001:0000db6a       ?getLocale@XMLMsgLoader@xercesc_3_1@@SAPBDXZ 1200eb6a f   XMLMsgLoader.obj
 0001:0000db70       ?setNLSHome@XMLMsgLoader@xercesc_3_1@@SAXQBD@Z 1200eb70 f   XMLMsgLoader.obj
 0001:0000dbac       ?getNLSHome@XMLMsgLoader@xercesc_3_1@@SAPBDXZ 1200ebac f   XMLMsgLoader.obj
 0001:0000dbb2       ??0XMLNumber@xercesc_3_1@@IAE@XZ 1200ebb2 f   XMLNumber.obj
 0001:0000dbbb       ??0XMLNumber@xercesc_3_1@@IAE@ABV01@@Z 1200ebbb f   XMLNumber.obj
 0001:0000dbc6       ?getProtoType@XMLNumber@xercesc_3_1@@UBEPAVXProtoType@2@XZ 1200ebc6 f   XMLNumber.obj
 0001:0000dbcc       ?loadNumber@XMLNumber@xercesc_3_1@@SAPAV12@W4NumberType@12@AAVXSerializeEngine@2@@Z 1200ebcc f   XMLNumber.obj
 0001:0000dc09       ??_FXMLUri@xercesc_3_1@@QAEXXZ 1200ec09 f i XMLString.obj
 0001:0000dc15       ?getPublicId@XMLEntityDecl@xercesc_3_1@@QBEPB_WXZ 1200ec15 f i XMLDTDDescription.obj
 0001:0000dc15       ?getContentHandler@SAX2XMLFilterImpl@xercesc_3_1@@UBEPAVContentHandler@2@XZ 1200ec15 f i SAX2XMLFilterImpl.obj
 0001:0000dc15       ?getMessage@XMLException@xercesc_3_1@@QBEPB_WXZ 1200ec15 f i Base64.obj
 0001:0000dc15       ?getLocalPart@QName@xercesc_3_1@@QBEPB_WXZ 1200ec15 f i QName.obj
 0001:0000dc15       ?getAttDefCount@SchemaAttDefList@xercesc_3_1@@UBEKXZ 1200ec15 f i SchemaAttDefList.obj
 0001:0000dc15       ?getBaseURI@DOMNotationImpl@xercesc_3_1@@UBEPB_WXZ 1200ec15 f i DOMNotationImpl.obj
 0001:0000dc15       ?getParticles@XSModelGroup@xercesc_3_1@@QBEPAV?$RefVectorOf@VXSParticle@xercesc_3_1@@@2@XZ 1200ec15 f i XSModelGroup.obj
 0001:0000dc15       ?getRefKey@XSIDCDefinition@xercesc_3_1@@QBEPAV12@XZ 1200ec15 f i XSElementDeclaration.obj
 0001:0000dc15       ?getAttributeUses@XSAttributeGroupDefinition@xercesc_3_1@@QAEPAV?$RefVectorOf@VXSAttributeUse@xercesc_3_1@@@2@XZ 1200ec15 f i XSAttributeGroupDefinition.obj
 0001:0000dc15       ?getConstraintType@XSAttributeUse@xercesc_3_1@@QBE?AW4VALUE_CONSTRAINT@XSConstants@2@XZ 1200ec15 f i XSAttributeGroupDefinition.obj
 0001:0000dc15       ?getAnnotationString@XSAnnotation@xercesc_3_1@@QAEPA_WXZ 1200ec15 f i XMLGrammarPoolImpl.obj
 0001:0000dc15       ?getNamespaceURI@IdentityConstraint@xercesc_3_1@@QBEHXZ 1200ec15 f i XMLElementDecl.obj
 0001:0000dc15       ?getCompleteWildCard@XercesAttGroupInfo@xercesc_3_1@@QBEPAVSchemaAttDef@2@XZ 1200ec15 f i XMLGrammarPoolImpl.obj
 0001:0000dc15       ?getBaseURI@DOMLSInputImpl@xercesc_3_1@@UBEPB_WXZ 1200ec15 f i DOMImplementationImpl.obj
 0001:0000dc15       ?getAnnotationString@XSAnnotation@xercesc_3_1@@QBEPB_WXZ 1200ec15 f i XMLGrammarPoolImpl.obj
 0001:0000dc15       ?getValidity@PSVIItem@xercesc_3_1@@QBE?AW4VALIDITY_STATE@12@XZ 1200ec15 f i PSVIAttribute.obj
 0001:0000dc15       ?getGrammarPool@GrammarResolver@xercesc_3_1@@QBEPAVXMLGrammarPool@2@XZ 1200ec15 f i XMLValidator.obj
 0001:0000dc15       ?getRelatedData@DOMErrorImpl@xercesc_3_1@@UBEPAXXZ 1200ec15 f i DOMLSParserImpl.obj
 0001:0000dc15       ?getValue@XMLAttDef@xercesc_3_1@@QBEPB_WXZ 1200ec15 f i XMLAttDef.obj
 0001:0000dc15       ?getParameterNames@DOMLSSerializerImpl@xercesc_3_1@@UBEPBVDOMStringList@2@XZ 1200ec15 f i DOMLSSerializerImpl.obj
 0001:0000dc15       ?getParseContext@RegxParser@xercesc_3_1@@QBE?AW4parserStateContext@12@XZ 1200ec15 f i ParserForXMLSchema.obj
 0001:0000dc15       ?getDocument@DOMRangeImpl@xercesc_3_1@@QAEPAVDOMDocument@2@XZ 1200ec15 f i DOMRangeImpl.obj
 0001:0000dc15       ?getMinOccurs@XSParticle@xercesc_3_1@@QBEKXZ 1200ec15 f i XSComplexTypeDefinition.obj
 0001:0000dc15       ?getAttDefCount@DTDAttDefList@xercesc_3_1@@UBEKXZ 1200ec15 f i DTDAttDefList.obj
 0001:0000dc15       ?getGrammarDescription@DTDGrammar@xercesc_3_1@@UBEPAVXMLGrammarDescription@2@XZ 1200ec15 f i DTDGrammar.obj
 0001:0000dc15       ?getBufSize@XSerializeEngine@xercesc_3_1@@QBEKXZ 1200ec15 f i KVStringPair.obj
 0001:0000dc15       ?getBaseURI@XMLNotationDecl@xercesc_3_1@@QBEPB_WXZ 1200ec15 f i XMLDTDDescription.obj
 0001:0000dc15       ?getPath@XMLUri@xercesc_3_1@@QBEPB_WXZ 1200ec15 f i XMLString.obj
 0001:0000dc15       ?getGrammar@SchemaValidator@xercesc_3_1@@UBEPAVGrammar@2@XZ 1200ec15 f i IGXMLScanner.obj
 0001:0000dc15       ?getTargetNSURIString@SchemaInfo@xercesc_3_1@@QBEPB_WXZ 1200ec15 f i IGXMLScanner.obj
 0001:0000dc15       ?getType@DatatypeValidator@xercesc_3_1@@QBE?AW4ValidatorType@12@XZ 1200ec15 f i XMLAttr.obj
 0001:0000dc15       ?getIntVal@XMLBigDecimal@xercesc_3_1@@QBEPA_WXZ 1200ec15 f i XMLAbstractDoubleFloat.obj
 0001:0000dc15       ?getProcessContents@XSWildcard@xercesc_3_1@@QBE?AW4PROCESS_CONTENTS@12@XZ 1200ec15 f i XSComplexTypeDefinition.obj
 0001:0000dc15       ?getValue@XMLBigDecimal@xercesc_3_1@@QBEPB_WXZ 1200ec15 f i XMLAbstractDoubleFloat.obj
 0001:0000dc15       ?getData2@ModifierOp@xercesc_3_1@@UBEHXZ 1200ec15 f i Op.obj
 0001:0000dc15       ?getParameterNames@DOMLSParserImpl@xercesc_3_1@@UBEPBVDOMStringList@2@XZ 1200ec15 f i DOMLSParserImpl.obj
 0001:0000dc15       ?getSystemId@XSDLocator@xercesc_3_1@@UBEPB_WXZ 1200ec15 f i IGXMLScanner2.obj
 0001:0000dc15       ?getScopeDefined@ComplexTypeInfo@xercesc_3_1@@QBEIXZ 1200ec15 f i XMLElementDecl.obj
 0001:0000dc15       ?getModelType@DTDElementDecl@xercesc_3_1@@QBE?AW4ModelTypes@12@XZ 1200ec15 f i XMLElementDecl.obj
 0001:0000dc15       ?getEnclosingElementName@XMLSchemaDescriptionImpl@xercesc_3_1@@UBEPBVQName@2@XZ 1200ec15 f i XMLSchemaDescriptionImpl.obj
 0001:0000dc15       ?getLocalPart@QName@xercesc_3_1@@QAEPA_WXZ 1200ec15 f i QName.obj
 0001:0000dc15       ?getScope@XSElementDeclaration@xercesc_3_1@@QBE?AW4SCOPE@XSConstants@2@XZ 1200ec15 f i PSVIElement.obj
 0001:0000dc15       ?getType@ContentSpecNode@xercesc_3_1@@QBE?AW4NodeTypes@12@XZ 1200ec15 f i XMLGrammarPoolImpl.obj
 0001:0000dc15       ?getSign@XMLAbstractDoubleFloat@xercesc_3_1@@UBEHXZ 1200ec15 f i XMLAbstractDoubleFloat.obj
 0001:0000dc15       ?getTypeDefinition@XSAttributeDeclaration@xercesc_3_1@@QBEPAVXSSimpleTypeDefinition@2@XZ 1200ec15 f i PSVIAttributeList.obj
 0001:0000dc15       ?getAttributeDeclRegistry@SchemaGrammar@xercesc_3_1@@QBEPAV?$RefHashTableOf@VXMLAttDef@xercesc_3_1@@UStringHasher@2@@2@XZ 1200ec15 f i XMLGrammarPoolImpl.obj
 0001:0000dc15       ?getAnnotation@XSNotationDeclaration@xercesc_3_1@@QBEPAVXSAnnotation@2@XZ 1200ec15 f i XSModel.obj
 0001:0000dc19       ?getUriText@XMLUri@xercesc_3_1@@QBEPB_WXZ 1200ec19 f i XMLString.obj
 0001:0000dc2c       ?isReservedOrUnreservedCharacter@XMLUri@xercesc_3_1@@CA_N_W@Z 1200ec2c f i XMLString.obj
 0001:0000dc59       ?isReservedCharacter@XMLUri@xercesc_3_1@@CA_N_W@Z 1200ec59 f i XMLString.obj
 0001:0000dc75       ?isPathCharacter@XMLUri@xercesc_3_1@@CA_N_W@Z 1200ec75 f i XMLString.obj
 0001:0000dc91       ?isUnreservedCharacter@XMLUri@xercesc_3_1@@CA_N_W@Z 1200ec91 f i XMLString.obj
 0001:0000dcbe       ?sizeToText@XMLString@xercesc_3_1@@SAXKQADKIQAVMemoryManager@2@@Z 1200ecbe f   XMLString.obj
 0001:0000ddfe       ?binToText@XMLString@xercesc_3_1@@SAXKQADKIQAVMemoryManager@2@@Z 1200edfe f   XMLString.obj
 0001:0000df41       ?binToText@XMLString@xercesc_3_1@@SAXIQADKIQAVMemoryManager@2@@Z 1200ef41 f   XMLString.obj
 0001:0000df4a       ?binToText@XMLString@xercesc_3_1@@SAXJQADKIQAVMemoryManager@2@@Z 1200ef4a f   XMLString.obj
 0001:0000df76       ?binToText@XMLString@xercesc_3_1@@SAXHQADKIQAVMemoryManager@2@@Z 1200ef76 f   XMLString.obj
 0001:0000df7f       ?catString@XMLString@xercesc_3_1@@SAXQADQBD@Z 1200ef7f f   XMLString.obj
 0001:0000df89       ?compareIString@XMLString@xercesc_3_1@@SAHQBD0@Z 1200ef89 f   XMLString.obj
 0001:0000df93       ?compareNString@XMLString@xercesc_3_1@@SAHQBD0K@Z 1200ef93 f   XMLString.obj
 0001:0000dfa7       ?compareNIString@XMLString@xercesc_3_1@@SAHQBD0K@Z 1200efa7 f   XMLString.obj
 0001:0000dfbb       ?compareString@XMLString@xercesc_3_1@@SAHQBD0@Z 1200efbb f   XMLString.obj
 0001:0000dfc5       ?copyString@XMLString@xercesc_3_1@@SAXQADQBD@Z 1200efc5 f   XMLString.obj
 0001:0000dfcf       ?cut@XMLString@xercesc_3_1@@SAXQA_WK@Z 1200efcf f   XMLString.obj
 0001:0000e003       ?hash@XMLString@xercesc_3_1@@SAKQBDK@Z 1200f003 f   XMLString.obj
 0001:0000e038       ?indexOf@XMLString@xercesc_3_1@@SAHQBDD@Z 1200f038 f   XMLString.obj
 0001:0000e062       ?indexOf@XMLString@xercesc_3_1@@SAHQBDDKQAVMemoryManager@2@@Z 1200f062 f   XMLString.obj
 0001:0000e0ba       ?lastIndexOf@XMLString@xercesc_3_1@@SAHQBDD@Z 1200f0ba f   XMLString.obj
 0001:0000e0dc       ?lastIndexOf@XMLString@xercesc_3_1@@SAHQBDDKQAVMemoryManager@2@@Z 1200f0dc f   XMLString.obj
 0001:0000e134       ?replaceTokens@XMLString@xercesc_3_1@@SAKQA_WKQB_W111QAVMemoryManager@2@@Z 1200f134 f   XMLString.obj
 0001:0000e21a       ?replicate@XMLString@xercesc_3_1@@SAPADQBDQAVMemoryManager@2@@Z 1200f21a f   XMLString.obj
 0001:0000e255       ?startsWith@XMLString@xercesc_3_1@@SA_NQBD0@Z 1200f255 f   XMLString.obj
 0001:0000e278       ?startsWithI@XMLString@xercesc_3_1@@SA_NQBD0@Z 1200f278 f   XMLString.obj
 0001:0000e29b       ?stringLen@XMLString@xercesc_3_1@@SAKQBD@Z 1200f29b f   XMLString.obj
 0001:0000e2a5       ?transcode@XMLString@xercesc_3_1@@SAPADQB_WQAVMemoryManager@2@@Z 1200f2a5 f   XMLString.obj
 0001:0000e2bb       ?transcode@XMLString@xercesc_3_1@@SA_NQB_WQADKQAVMemoryManager@2@@Z 1200f2bb f   XMLString.obj
 0001:0000e2d7       ?transcode@XMLString@xercesc_3_1@@SAPA_WQBDQAVMemoryManager@2@@Z 1200f2d7 f   XMLString.obj
 0001:0000e2ed       ?transcode@XMLString@xercesc_3_1@@SA_NQBDQA_WKQAVMemoryManager@2@@Z 1200f2ed f   XMLString.obj
 0001:0000e309       ?trim@XMLString@xercesc_3_1@@SAXQAD@Z 1200f309 f   XMLString.obj
 0001:0000e37e       ?subString@XMLString@xercesc_3_1@@SAXQADQBDKKQAVMemoryManager@2@@Z 1200f37e f   XMLString.obj
 0001:0000e41c       ?isValidNOTATION@XMLString@xercesc_3_1@@SA_NQB_WQAVMemoryManager@2@@Z 1200f41c f   XMLString.obj
 0001:0000e4ee       ?isValidEncName@XMLString@xercesc_3_1@@SA_NQB_W@Z 1200f4ee f   XMLString.obj
 0001:0000e54e       ?isAlpha@XMLString@xercesc_3_1@@SA_N_W@Z 1200f54e f   XMLString.obj
 0001:0000e571       ?isDigit@XMLString@xercesc_3_1@@SA_N_W@Z 1200f571 f   XMLString.obj
 0001:0000e587       ?isAlphaNum@XMLString@xercesc_3_1@@SA_N_W@Z 1200f587 f   XMLString.obj
 0001:0000e5ac       ?isHex@XMLString@xercesc_3_1@@SA_N_W@Z 1200f5ac f   XMLString.obj
 0001:0000e5dc       ?sizeToText@XMLString@xercesc_3_1@@SAXKQA_WKIQAVMemoryManager@2@@Z 1200f5dc f   XMLString.obj
 0001:0000e732       ?binToText@XMLString@xercesc_3_1@@SAXKQA_WKIQAVMemoryManager@2@@Z 1200f732 f   XMLString.obj
 0001:0000e888       ?binToText@XMLString@xercesc_3_1@@SAXIQA_WKIQAVMemoryManager@2@@Z 1200f888 f   XMLString.obj
 0001:0000e891       ?binToText@XMLString@xercesc_3_1@@SAXJQA_WKIQAVMemoryManager@2@@Z 1200f891 f   XMLString.obj
 0001:0000e8c3       ?binToText@XMLString@xercesc_3_1@@SAXHQA_WKIQAVMemoryManager@2@@Z 1200f8c3 f   XMLString.obj
 0001:0000e8e1       ?catString@XMLString@xercesc_3_1@@SAXQA_WQB_W@Z 1200f8e1 f   XMLString.obj
 0001:0000e90d       ?compareIString@XMLString@xercesc_3_1@@SAHQB_W0@Z 1200f90d f   XMLString.obj
 0001:0000e923       ?compareIStringASCII@XMLString@xercesc_3_1@@SAHQB_W0@Z 1200f923 f   XMLString.obj
 0001:0000e998       ?compareNString@XMLString@xercesc_3_1@@SAHQB_W0K@Z 1200f998 f   XMLString.obj
 0001:0000e9d1       ?compareNIString@XMLString@xercesc_3_1@@SAHQB_W0K@Z 1200f9d1 f   XMLString.obj
 0001:0000e9ea       ?compareString@XMLString@xercesc_3_1@@SAHQB_W0@Z 1200f9ea f   XMLString.obj
 0001:0000ea37       ?regionMatches@XMLString@xercesc_3_1@@SA_NQB_WH0HK@Z 1200fa37 f   XMLString.obj
 0001:0000ea7c       ?regionIMatches@XMLString@xercesc_3_1@@SA_NQB_WH0HK@Z 1200fa7c f   XMLString.obj
 0001:0000eac1       ?copyString@XMLString@xercesc_3_1@@SAXQA_WQB_W@Z 1200fac1 f   XMLString.obj
 0001:0000eaf2       ?copyNString@XMLString@xercesc_3_1@@SA_NQA_WQB_WK@Z 1200faf2 f   XMLString.obj
 0001:0000eb3f       ?findAny@XMLString@xercesc_3_1@@SAPA_WQA_WQB_W@Z 1200fb3f f   XMLString.obj
 0001:0000eb3f       ?findAny@XMLString@xercesc_3_1@@SAPB_WQB_W0@Z 1200fb3f f   XMLString.obj
 0001:0000eb83       ?patternMatch@XMLString@xercesc_3_1@@SAHQB_W0@Z 1200fb83 f   XMLString.obj
 0001:0000ebe3       ?indexOf@XMLString@xercesc_3_1@@SAHQB_W_W@Z 1200fbe3 f   XMLString.obj
 0001:0000ec13       ?indexOf@XMLString@xercesc_3_1@@SAHQB_W_WKQAVMemoryManager@2@@Z 1200fc13 f   XMLString.obj
 0001:0000ec75       ?lastIndexOf@XMLString@xercesc_3_1@@SAH_WQB_WK@Z 1200fc75 f   XMLString.obj
 0001:0000eca1       ?lastIndexOf@XMLString@xercesc_3_1@@SAHQB_W_WKQAVMemoryManager@2@@Z 1200fca1 f   XMLString.obj
 0001:0000ed04       ?makeUName@XMLString@xercesc_3_1@@SAPA_WQB_W0@Z 1200fd04 f   XMLString.obj
 0001:0000ed91       ?textToBin@XMLString@xercesc_3_1@@SA_NQB_WAAIQAVMemoryManager@2@@Z 1200fd91 f   XMLString.obj
 0001:0000ee72       ?parseInt@XMLString@xercesc_3_1@@SAHQB_WQAVMemoryManager@2@@Z 1200fe72 f   XMLString.obj
 0001:0000f005       ?trim@XMLString@xercesc_3_1@@SAXQA_W@Z 12010005 f   XMLString.obj
 0001:0000f077       ?upperCase@XMLString@xercesc_3_1@@SAXQA_W@Z 12010077 f   XMLString.obj
 0001:0000f08a       ?upperCaseASCII@XMLString@xercesc_3_1@@SAXQA_W@Z 1201008a f   XMLString.obj
 0001:0000f0b4       ?lowerCase@XMLString@xercesc_3_1@@SAXQA_W@Z 120100b4 f   XMLString.obj
 0001:0000f0c7       ?lowerCaseASCII@XMLString@xercesc_3_1@@SAXQA_W@Z 120100c7 f   XMLString.obj
 0001:0000f0f1       ?subString@XMLString@xercesc_3_1@@SAXQA_WQB_WKKQAVMemoryManager@2@@Z 120100f1 f   XMLString.obj
 0001:0000f117       ?subString@XMLString@xercesc_3_1@@SAXQA_WQB_WKKKQAVMemoryManager@2@@Z 12010117 f   XMLString.obj
 0001:0000f1af       ?tokenizeString@XMLString@xercesc_3_1@@SAPAV?$BaseRefVectorOf@_W@2@QB_WQAVMemoryManager@2@@Z 120101af f   XMLString.obj
 0001:0000f2a2       ?isInList@XMLString@xercesc_3_1@@SA_NQB_W0@Z 120102a2 f   XMLString.obj
 0001:0000f310       ?isWSReplaced@XMLString@xercesc_3_1@@SA_NQB_W@Z 12010310 f   XMLString.obj
 0001:0000f341       ?replaceWS@XMLString@xercesc_3_1@@SAXPA_WQAVMemoryManager@2@@Z 12010341 f   XMLString.obj
 0001:0000f371       ?isWSCollapsed@XMLString@xercesc_3_1@@SA_NQB_W@Z 12010371 f   XMLString.obj
 0001:0000f3cd       ?collapseWS@XMLString@xercesc_3_1@@SAXPA_WQAVMemoryManager@2@@Z 120103cd f   XMLString.obj
 0001:0000f48e       ?removeWS@XMLString@xercesc_3_1@@SAXPA_WQAVMemoryManager@2@@Z 1201048e f   XMLString.obj
 0001:0000f4cd       ?removeChar@XMLString@xercesc_3_1@@SAXQB_WAB_WAAVXMLBuffer@2@@Z 120104cd f   XMLString.obj
 0001:0000f507       ?fixURI@XMLString@xercesc_3_1@@SAXQB_WQA_W@Z 12010507 f   XMLString.obj
 0001:0000f62f       ?release@XMLString@xercesc_3_1@@SAXPAPADQAVMemoryManager@2@@Z 1201062f f   XMLString.obj
 0001:0000f62f       ?release@XMLString@xercesc_3_1@@SAXPAPA_WQAVMemoryManager@2@@Z 1201062f f   XMLString.obj
 0001:0000f646       ?initString@XMLString@xercesc_3_1@@CAXQAVXMLLCPTranscoder@2@QAVMemoryManager@2@@Z 12010646 f   XMLString.obj
 0001:0000f65b       ?termString@XMLString@xercesc_3_1@@CAXXZ 1201065b f   XMLString.obj
 0001:0000f67a       ??1?$BaseRefVectorOf@_W@xercesc_3_1@@UAE@XZ 1201067a f i XMLString.obj
 0001:0000f681       ?setElementAt@?$BaseRefVectorOf@_W@xercesc_3_1@@UAEXQA_WK@Z 12010681 f i XMLString.obj
 0001:0000f6d9       ?removeAllElements@?$BaseRefVectorOf@_W@xercesc_3_1@@UAEXXZ 120106d9 f i XMLString.obj
 0001:0000f70b       ?removeElementAt@?$BaseRefVectorOf@_W@xercesc_3_1@@UAEXK@Z 1201070b f i XMLString.obj
 0001:0000f796       ?removeLastElement@?$BaseRefVectorOf@_W@xercesc_3_1@@UAEXXZ 12010796 f i XMLString.obj
 0001:0000f7b5       ?cleanup@?$BaseRefVectorOf@_W@xercesc_3_1@@UAEXXZ 120107b5 f i XMLString.obj
 0001:0000f7e7       ?setElementAt@?$RefArrayVectorOf@_W@xercesc_3_1@@UAEXQA_WK@Z 120107e7 f i XMLString.obj
 0001:0000f840       ?removeAllElements@?$RefArrayVectorOf@_W@xercesc_3_1@@UAEXXZ 12010840 f i XMLString.obj
 0001:0000f873       ?removeElementAt@?$RefArrayVectorOf@_W@xercesc_3_1@@UAEXK@Z 12010873 f i XMLString.obj
 0001:0000f8fc       ?removeLastElement@?$RefArrayVectorOf@_W@xercesc_3_1@@UAEXXZ 120108fc f i XMLString.obj
 0001:0000f922       ?cleanup@?$RefArrayVectorOf@_W@xercesc_3_1@@UAEXXZ 12010922 f i XMLString.obj
 0001:0000f955       ??_G?$BaseRefVectorOf@_W@xercesc_3_1@@UAEPAXI@Z 12010955 f i XMLString.obj
 0001:0000f955       ??_E?$BaseRefVectorOf@_W@xercesc_3_1@@UAEPAXI@Z 12010955 f i  CIL library: CIL module
 0001:0000f975       ??_E?$RefArrayVectorOf@_W@xercesc_3_1@@UAEPAXI@Z 12010975 f i  CIL library: CIL module
 0001:0000f975       ??_G?$RefArrayVectorOf@_W@xercesc_3_1@@UAEPAXI@Z 12010975 f i XMLString.obj
 0001:0000f9dd       ??0?$BaseRefVectorOf@_W@xercesc_3_1@@QAE@K_NQAVMemoryManager@1@@Z 120109dd f i XMLString.obj
 0001:0000fa17       ?isDelimeter@XMLStringTokenizer@xercesc_3_1@@AAE_N_W@Z 12010a17 f i XMLStringTokenizer.obj
 0001:0000fa31       ?countTokens@XMLStringTokenizer@xercesc_3_1@@QAEIXZ 12010a31 f i XMLStringTokenizer.obj
 0001:0000fa8e       ??0XMLStringTokenizer@xercesc_3_1@@QAE@QB_WQAVMemoryManager@1@@Z 12010a8e f   XMLStringTokenizer.obj
 0001:0000fb2b       ??0XMLStringTokenizer@xercesc_3_1@@QAE@QB_W0QAVMemoryManager@1@@Z 12010b2b f   XMLStringTokenizer.obj
 0001:0000fbcd       ??1XMLStringTokenizer@xercesc_3_1@@QAE@XZ 12010bcd f   XMLStringTokenizer.obj
 0001:0000fbd2       ?cleanUp@XMLStringTokenizer@xercesc_3_1@@AAEXXZ 12010bd2 f   XMLStringTokenizer.obj
 0001:0000fc02       ?nextToken@XMLStringTokenizer@xercesc_3_1@@QAEPA_WXZ 12010c02 f   XMLStringTokenizer.obj
 0001:0000fc8f       ?hasMoreTokens@XMLStringTokenizer@xercesc_3_1@@QAE_NXZ 12010c8f f   XMLStringTokenizer.obj
 0001:0000fc9a       ??_EXMLUCS4Transcoder@xercesc_3_1@@UAEPAXI@Z 12010c9a f i XMLUCS4Transcoder.obj
 0001:0000fceb       ??0XMLUCS4Transcoder@xercesc_3_1@@QAE@QB_WK_NQAVMemoryManager@1@@Z 12010ceb f   XMLUCS4Transcoder.obj
 0001:0000fd12       ??1XMLUCS4Transcoder@xercesc_3_1@@UAE@XZ 12010d12 f   XMLUCS4Transcoder.obj
 0001:0000fd1d       ?transcodeFrom@XMLUCS4Transcoder@xercesc_3_1@@UAEKQBEKQA_WKAAKQAE@Z 12010d1d f   XMLUCS4Transcoder.obj
 0001:0000fdd6       ?transcodeTo@XMLUCS4Transcoder@xercesc_3_1@@UAEKQB_WKQAEKAAKW4UnRepOpts@XMLTranscoder@2@@Z 12010dd6 f   XMLUCS4Transcoder.obj
 0001:0000fec1       ??_EXMLUri@xercesc_3_1@@UAEPAXI@Z 12010ec1 f i XMLUri.obj
 0001:0000ff0c       ??0XMLUri@xercesc_3_1@@QAE@QB_WQAVMemoryManager@1@@Z 12010f0c f   XMLUri.obj
 0001:0000ff95       ??0XMLUri@xercesc_3_1@@QAE@QBV01@QB_WQAVMemoryManager@1@@Z 12010f95 f   XMLUri.obj
 0001:00010020       ??0XMLUri@xercesc_3_1@@QAE@ABV01@@Z 12011020 f   XMLUri.obj
 0001:000100a9       ??4XMLUri@xercesc_3_1@@QAEAAV01@ABV01@@Z 120110a9 f   XMLUri.obj
 0001:00010105       ??1XMLUri@xercesc_3_1@@UAE@XZ 12011105 f   XMLUri.obj
 0001:00010131       ?cleanUp@XMLUri@xercesc_3_1@@AAEXXZ 12011131 f   XMLUri.obj
 0001:000101cd       ?initialize@XMLUri@xercesc_3_1@@AAEXABV12@@Z 120111cd f   XMLUri.obj
 0001:0001024c       ?initialize@XMLUri@xercesc_3_1@@AAEXQBV12@QB_W@Z 1201124c f   XMLUri.obj
 0001:00010a7e       ?initializeAuthority@XMLUri@xercesc_3_1@@AAEXQB_W@Z 12011a7e f   XMLUri.obj
 0001:00010cfe       ?initializeScheme@XMLUri@xercesc_3_1@@AAEXQB_W@Z 12011cfe f   XMLUri.obj
 0001:00010dd7       ?initializePath@XMLUri@xercesc_3_1@@AAEXQB_W@Z 12011dd7 f   XMLUri.obj
 0001:00011780       ?setScheme@XMLUri@xercesc_3_1@@QAEXQB_W@Z 12012780 f   XMLUri.obj
 0001:00011896       ?setUserInfo@XMLUri@xercesc_3_1@@QAEXQB_W@Z 12012896 f   XMLUri.obj
 0001:0001196b       ?setHost@XMLUri@xercesc_3_1@@QAEXQB_W@Z 1201296b f   XMLUri.obj
 0001:00011a87       ?setPort@XMLUri@xercesc_3_1@@QAEXH@Z 12012a87 f   XMLUri.obj
 0001:00011be6       ?setRegBasedAuthority@XMLUri@xercesc_3_1@@QAEXQB_W@Z 12012be6 f   XMLUri.obj
 0001:00011c98       ?setPath@XMLUri@xercesc_3_1@@QAEXQB_W@Z 12012c98 f   XMLUri.obj
 0001:00011cdf       ?setFragment@XMLUri@xercesc_3_1@@QAEXQB_W@Z 12012cdf f   XMLUri.obj
 0001:00011e60       ?setQueryString@XMLUri@xercesc_3_1@@QAEXQB_W@Z 12012e60 f   XMLUri.obj
 0001:00011fe1       ?isConformantSchemeName@XMLUri@xercesc_3_1@@CA_NQB_W@Z 12012fe1 f   XMLUri.obj
 0001:00012036       ?isConformantUserInfo@XMLUri@xercesc_3_1@@CAXQB_WQAVMemoryManager@2@@Z 12013036 f   XMLUri.obj
 0001:000121cd       ?isValidServerBasedAuthority@XMLUri@xercesc_3_1@@CA_NQB_WKH0K@Z 120131cd f   XMLUri.obj
 0001:00012291       ?isValidServerBasedAuthority@XMLUri@xercesc_3_1@@CA_NQB_WH0QAVMemoryManager@2@@Z 12013291 f   XMLUri.obj
 0001:0001232c       ?isValidRegistryBasedAuthority@XMLUri@xercesc_3_1@@CA_NQB_WK@Z 1201332c f   XMLUri.obj
 0001:000123bf       ?isValidRegistryBasedAuthority@XMLUri@xercesc_3_1@@CA_NQB_W@Z 120133bf f   XMLUri.obj
 0001:00012438       ?isURIString@XMLUri@xercesc_3_1@@SA_NQB_W@Z 12013438 f   XMLUri.obj
 0001:0001249f       ?isWellFormedAddress@XMLUri@xercesc_3_1@@CA_NQB_WQAVMemoryManager@2@@Z 1201349f f   XMLUri.obj
 0001:000125fd       ?isWellFormedIPv4Address@XMLUri@xercesc_3_1@@CA_NQB_WK@Z 120135fd f   XMLUri.obj
 0001:00012688       ?isWellFormedIPv6Reference@XMLUri@xercesc_3_1@@CA_NQB_WK@Z 12013688 f   XMLUri.obj
 0001:0001274e       ?scanHexSequence@XMLUri@xercesc_3_1@@CAHQB_WKKAAH@Z 1201374e f   XMLUri.obj
 0001:000127f2       ?isGenericURI@XMLUri@xercesc_3_1@@AAE_NXZ 120137f2 f   XMLUri.obj
 0001:000127fb       ?buildFullText@XMLUri@xercesc_3_1@@AAEXXZ 120137fb f   XMLUri.obj
 0001:000129c9       ?isValidURI@XMLUri@xercesc_3_1@@SA_NQBV12@QB_W_N@Z 120139c9 f   XMLUri.obj
 0001:00012b4e       ?isValidURI@XMLUri@xercesc_3_1@@SA_N_NQB_W0@Z 12013b4e f   XMLUri.obj
 0001:00012cd5       ?isWellFormedAddress@XMLUri@xercesc_3_1@@CA_NQB_WK@Z 12013cd5 f   XMLUri.obj
 0001:00012dd9       ?processScheme@XMLUri@xercesc_3_1@@CA_NQB_WAAK@Z 12013dd9 f   XMLUri.obj
 0001:00012e0a       ?isConformantSchemeName@XMLUri@xercesc_3_1@@CA_NQB_WK@Z 12013e0a f   XMLUri.obj
 0001:00012e5b       ?processAuthority@XMLUri@xercesc_3_1@@CA_NQB_WK@Z 12013e5b f   XMLUri.obj
 0001:00012f83       ?processPath@XMLUri@xercesc_3_1@@CA_NQB_WK_N1@Z 12013f83 f   XMLUri.obj
 0001:000130b8       ?normalizeURI@XMLUri@xercesc_3_1@@SAXQB_WAAVXMLBuffer@2@@Z 120140b8 f   XMLUri.obj
 0001:00013101       ?createObject@XMLUri@xercesc_3_1@@SAPAVXSerializable@2@PAVMemoryManager@2@@Z 12014101 f   XMLUri.obj
 0001:00013124       ?getProtoType@XMLUri@xercesc_3_1@@UBEPAVXProtoType@2@XZ 12014124 f   XMLUri.obj
 0001:0001312a       ?serialize@XMLUri@xercesc_3_1@@UAEXAAVXSerializeEngine@2@@Z 1201412a f   XMLUri.obj
 0001:0001325c       ??0XMLUri@xercesc_3_1@@QAE@QAVMemoryManager@1@@Z 1201425c f   XMLUri.obj
 0001:0001328f       ??_EXMLURL@xercesc_3_1@@UAEPAXI@Z 1201428f f i XMLURL.obj
 0001:0001332b       ?lookupByName@XMLURL@xercesc_3_1@@SA?AW4Protocols@12@QB_W@Z 1201432b f   XMLURL.obj
 0001:00013363       ??0XMLURL@xercesc_3_1@@QAE@QAVMemoryManager@1@@Z 12014363 f   XMLURL.obj
 0001:0001339c       ??0XMLURL@xercesc_3_1@@QAE@QB_W0QAVMemoryManager@1@@Z 1201439c f   XMLURL.obj
 0001:00013424       ??0XMLURL@xercesc_3_1@@QAE@QB_WQBDQAVMemoryManager@1@@Z 12014424 f   XMLURL.obj
 0001:000134d0       ??0XMLURL@xercesc_3_1@@QAE@ABV01@QB_W@Z 120144d0 f   XMLURL.obj
 0001:00013559       ??0XMLURL@xercesc_3_1@@QAE@ABV01@QBD@Z 12014559 f   XMLURL.obj
 0001:00013608       ??0XMLURL@xercesc_3_1@@QAE@QB_WQAVMemoryManager@1@@Z 12014608 f   XMLURL.obj
 0001:0001368d       ??0XMLURL@xercesc_3_1@@QAE@QBDQAVMemoryManager@1@@Z 1201468d f   XMLURL.obj
 0001:00013736       ??0XMLURL@xercesc_3_1@@QAE@ABV01@@Z 12014736 f   XMLURL.obj
 0001:00013829       ??1XMLURL@xercesc_3_1@@UAE@XZ 12014829 f   XMLURL.obj
 0001:00013834       ??4XMLURL@xercesc_3_1@@QAEAAV01@ABV01@@Z 12014834 f   XMLURL.obj
 0001:000138ce       ??8XMLURL@xercesc_3_1@@QBE_NABV01@@Z 120148ce f   XMLURL.obj
 0001:0001390b       ?getPortNum@XMLURL@xercesc_3_1@@QBEIXZ 1201490b f   XMLURL.obj
 0001:00013927       ?getProtocolName@XMLURL@xercesc_3_1@@QBEPB_WXZ 12014927 f   XMLURL.obj
 0001:00013967       ?setURL@XMLURL@xercesc_3_1@@QAEXQB_W@Z 12014967 f   XMLURL.obj
 0001:00013981       ?setURL@XMLURL@xercesc_3_1@@QAEXQB_W0@Z 12014981 f   XMLURL.obj
 0001:00013a51       ?setURL@XMLURL@xercesc_3_1@@QAE_NQB_W0AAV12@@Z 12014a51 f   XMLURL.obj
 0001:0001410b       ?setURL@XMLURL@xercesc_3_1@@QAEXABV12@QB_W@Z 1201510b f   XMLURL.obj
 0001:00014140       ?isRelative@XMLURL@xercesc_3_1@@QBE_NXZ 12015140 f   XMLURL.obj
 0001:00014158       ?getDeclaredInIntSubset@DTDEntityDecl@xercesc_3_1@@UBE_NXZ 12015158 f   XMLGrammarPoolImpl.obj
 0001:00014158       ?hasInvalidChar@XMLURL@xercesc_3_1@@QBE_NXZ 12015158 f   XMLURL.obj
 0001:0001415c       ?makeNewStream@XMLURL@xercesc_3_1@@QBEPAVBinInputStream@2@XZ 1201515c f   XMLURL.obj
 0001:0001439f       ?makeRelativeTo@XMLURL@xercesc_3_1@@QAEXQB_W@Z 1201539f f   XMLURL.obj
 0001:0001441f       ?makeRelativeTo@XMLURL@xercesc_3_1@@QAEXABV12@@Z 1201541f f   XMLURL.obj
 0001:00014439       ?buildFullText@XMLURL@xercesc_3_1@@AAEXXZ 12015439 f   XMLURL.obj
 0001:0001460c       ?cleanUp@XMLURL@xercesc_3_1@@AAEXXZ 1201560c f   XMLURL.obj
 0001:00014682       ?conglomerateWithBase@XMLURL@xercesc_3_1@@AAE_NABV12@_N@Z 12015682 f   XMLURL.obj
 0001:00014864       ?parse@XMLURL@xercesc_3_1@@AAEXQB_W@Z 12015864 f   XMLURL.obj
 0001:00014cee       ?parse@XMLURL@xercesc_3_1@@SA_NQB_WAAV12@@Z 12015cee f   XMLURL.obj
 0001:00015023       ??_EXMLUTF16Transcoder@xercesc_3_1@@UAEPAXI@Z 12016023 f i XMLUTF16Transcoder.obj
 0001:00015074       ??0XMLUTF16Transcoder@xercesc_3_1@@QAE@QB_WK_NQAVMemoryManager@1@@Z 12016074 f   XMLUTF16Transcoder.obj
 0001:0001509b       ??1XMLUTF16Transcoder@xercesc_3_1@@UAE@XZ 1201609b f   XMLUTF16Transcoder.obj
 0001:000150a6       ?transcodeFrom@XMLUTF16Transcoder@xercesc_3_1@@UAEKQBEKQA_WKAAKQAE@Z 120160a6 f   XMLUTF16Transcoder.obj
 0001:00015110       ?transcodeTo@XMLUTF16Transcoder@xercesc_3_1@@UAEKQB_WKQAEKAAKW4UnRepOpts@XMLTranscoder@2@@Z 12016110 f   XMLUTF16Transcoder.obj
 0001:00015169       ?canTranscodeTo@XMLUCS4Transcoder@xercesc_3_1@@UAE_NI@Z 12016169 f   XMLUCS4Transcoder.obj
 0001:00015169       ?canTranscodeTo@XMLChTranscoder@xercesc_3_1@@UAE_NI@Z 12016169 f   XMLChTranscoder.obj
 0001:00015169       ?isSubstitutableBy@AnySimpleTypeDatatypeValidator@xercesc_3_1@@UAE_NQBVDatatypeValidator@2@@Z 12016169 f   AnySimpleTypeDatatypeValidator.obj
 0001:00015169       ?canTranscodeTo@XMLUTF16Transcoder@xercesc_3_1@@UAE_NI@Z 12016169 f   XMLUTF16Transcoder.obj
 0001:00015169       ?isPrefixUnknown@ValidationContext@xercesc_3_1@@UAE_NPA_W@Z 12016169 f   XMLAttr.obj
 0001:0001516e       ??_EXMLUTF8Transcoder@xercesc_3_1@@UAEPAXI@Z 1201616e f i XMLUTF8Transcoder.obj
 0001:000151bf       ??0XMLUTF8Transcoder@xercesc_3_1@@QAE@QB_WKQAVMemoryManager@1@@Z 120161bf f   XMLUTF8Transcoder.obj
 0001:000151e0       ??1XMLUTF8Transcoder@xercesc_3_1@@UAE@XZ 120161e0 f   XMLUTF8Transcoder.obj
 0001:000151eb       ?transcodeFrom@XMLUTF8Transcoder@xercesc_3_1@@UAEKQBEKQA_WKAAKQAE@Z 120161eb f   XMLUTF8Transcoder.obj
 0001:00015753       ?transcodeTo@XMLUTF8Transcoder@xercesc_3_1@@UAEKQB_WKQAEKAAKW4UnRepOpts@XMLTranscoder@2@@Z 12016753 f   XMLUTF8Transcoder.obj
 0001:00015967       ?canTranscodeTo@XMLUTF8Transcoder@xercesc_3_1@@UAE_NI@Z 12016967 f   XMLUTF8Transcoder.obj
 0001:00015979       ??_EXMLEBCDICTranscoder@xercesc_3_1@@UAEPAXI@Z 12016979 f i XMLEBCDICTranscoder.obj
 0001:00015979       ??_EXMLIBM1047Transcoder@xercesc_3_1@@UAEPAXI@Z 12016979 f i XMLIBM1047Transcoder.obj
 0001:00015979       ??_EXML256TableTranscoder@xercesc_3_1@@UAEPAXI@Z 12016979 f i XML256TableTranscoder.obj
 0001:00015979       ??_EXMLWin1252Transcoder@xercesc_3_1@@UAEPAXI@Z 12016979 f i XMLWin1252Transcoder.obj
 0001:00015979       ??_EXMLIBM1140Transcoder@xercesc_3_1@@UAEPAXI@Z 12016979 f i XMLIBM1140Transcoder.obj
 0001:000159ca       ??0XMLWin1252Transcoder@xercesc_3_1@@QAE@QB_WKQAVMemoryManager@1@@Z 120169ca f   XMLWin1252Transcoder.obj
 0001:000159fa       ??_EWin32MsgLoader@xercesc_3_1@@UAEPAXI@Z 120169fa f i Win32MsgLoader.obj
 0001:00015a45       _DllMain@12                12016a45 f   Win32MsgLoader.obj
 0001:00015a5d       ??0Win32MsgLoader@xercesc_3_1@@QAE@QB_W@Z 12016a5d f   Win32MsgLoader.obj
 0001:00015b23       ??1Win32MsgLoader@xercesc_3_1@@UAE@XZ 12016b23 f   Win32MsgLoader.obj
 0001:00015b58       ?loadMsg@Win32MsgLoader@xercesc_3_1@@UAE_NIQA_WK@Z 12016b58 f   Win32MsgLoader.obj
 0001:00015be0       ?loadMsg@Win32MsgLoader@xercesc_3_1@@UAE_NIQA_WKQB_W111QAVMemoryManager@2@@Z 12016be0 f   Win32MsgLoader.obj
 0001:00015c18       ?loadMsg@Win32MsgLoader@xercesc_3_1@@UAE_NIQA_WKQBD111QAVMemoryManager@2@@Z 12016c18 f   Win32MsgLoader.obj
 0001:00015ce2       ??_EWin32TransService@xercesc_3_1@@UAEPAXI@Z 12016ce2 f i Win32TransService.obj
 0001:00015d2d       ??_EWin32Transcoder@xercesc_3_1@@UAEPAXI@Z 12016d2d f i Win32TransService.obj
 0001:00015d7e       ??_EWin32LCPTranscoder@xercesc_3_1@@UAEPAXI@Z 12016d7e f i Win32TransService.obj
 0001:00015dca       ?isAlias@xercesc_3_1@@YA_NQAUHKEY__@@QADI@Z 12016dca f   Win32TransService.obj
 0001:00015df4       ??0CPMapEntry@xercesc_3_1@@QAE@QBDIPAVMemoryManager@1@@Z 12016df4 f   Win32TransService.obj
 0001:00015e58       ??0Win32TransService@xercesc_3_1@@QAE@PAVMemoryManager@1@@Z 12016e58 f   Win32TransService.obj
 0001:000162cd       ??1Win32TransService@xercesc_3_1@@UAE@XZ 120172cd f   Win32TransService.obj
 0001:00016315       ?compareIString@Win32TransService@xercesc_3_1@@UAEHQB_W0@Z 12017315 f   Win32TransService.obj
 0001:0001632a       ?compareNIString@Win32TransService@xercesc_3_1@@UAEHQB_W0K@Z 1201732a f   Win32TransService.obj
 0001:00016343       ?getId@Win32TransService@xercesc_3_1@@UBEPB_WXZ 12017343 f   Win32TransService.obj
 0001:00016349       ?makeNewLCPTranscoder@Win32TransService@xercesc_3_1@@UAEPAVXMLLCPTranscoder@2@PAVMemoryManager@2@@Z 12017349 f   Win32TransService.obj
 0001:0001636a       ?upperCase@Win32TransService@xercesc_3_1@@UAEXQA_W@Z 1201736a f   Win32TransService.obj
 0001:0001637b       ?lowerCase@Win32TransService@xercesc_3_1@@UAEXQA_W@Z 1201737b f   Win32TransService.obj
 0001:0001638c       ?makeNewXMLTranscoder@Win32TransService@xercesc_3_1@@MAEPAVXMLTranscoder@2@QB_WAAW4Codes@XMLTransService@2@KQAVMemoryManager@2@@Z 1201738c f   Win32TransService.obj
 0001:00016438       ?getFlagsValue@xercesc_3_1@@YAKIK@Z 12017438 f i Win32TransService.obj
 0001:00016478       ??0Win32Transcoder@xercesc_3_1@@QAE@QB_WIKQAVMemoryManager@1@@Z 12017478 f   Win32TransService.obj
 0001:000164d2       ??1Win32Transcoder@xercesc_3_1@@UAE@XZ 120174d2 f   Win32TransService.obj
 0001:000164dd       ?transcodeFrom@Win32Transcoder@xercesc_3_1@@UAEKQBEKQA_WKAAKQAE@Z 120174dd f   Win32TransService.obj
 0001:00016694       ?transcodeTo@Win32Transcoder@xercesc_3_1@@UAEKQB_WKQAEKAAKW4UnRepOpts@XMLTranscoder@2@@Z 12017694 f   Win32TransService.obj
 0001:000167e4       ?canTranscodeTo@Win32Transcoder@xercesc_3_1@@UAE_NI@Z 120177e4 f   Win32TransService.obj
 0001:00016869       ??0Win32LCPTranscoder@xercesc_3_1@@QAE@XZ 12017869 f   Win32TransService.obj
 0001:00016872       ??1Win32LCPTranscoder@xercesc_3_1@@UAE@XZ 12017872 f   Win32TransService.obj
 0001:00016872       ??1XMLLCPTranscoder@xercesc_3_1@@UAE@XZ 12017872 f   TransService.obj
 0001:00016879       ?calcRequiredSize@Win32LCPTranscoder@xercesc_3_1@@UAEKQBDQAVMemoryManager@2@@Z 12017879 f   Win32TransService.obj
 0001:00016897       ?calcRequiredSize@Win32LCPTranscoder@xercesc_3_1@@UAEKQB_WQAVMemoryManager@2@@Z 12017897 f   Win32TransService.obj
 0001:000168b6       ?transcode@Win32LCPTranscoder@xercesc_3_1@@UAEPADQB_WQAVMemoryManager@2@@Z 120178b6 f   Win32TransService.obj
 0001:00016917       ?transcode@Win32LCPTranscoder@xercesc_3_1@@UAEPA_WQBDQAVMemoryManager@2@@Z 12017917 f   Win32TransService.obj
 0001:0001698b       ?transcode@Win32LCPTranscoder@xercesc_3_1@@UAE_NQBDQA_WKQAVMemoryManager@2@@Z 1201798b f   Win32TransService.obj
 0001:000169c8       ?transcode@Win32LCPTranscoder@xercesc_3_1@@UAE_NQB_WQADKQAVMemoryManager@2@@Z 120179c8 f   Win32TransService.obj
 0001:00016a13       ??0?$RefHashTableOf@VCPMapEntry@xercesc_3_1@@UStringHasher@2@@xercesc_3_1@@QAE@KQAVMemoryManager@1@@Z 12017a13 f i Win32TransService.obj
 0001:00016a55       ?put@?$RefHashTableOf@VCPMapEntry@xercesc_3_1@@UStringHasher@2@@xercesc_3_1@@QAEXPAXQAVCPMapEntry@2@@Z 12017a55 f i Win32TransService.obj
 0001:00016ae3       ?rehash@?$RefHashTableOf@VXMLAttDef@xercesc_3_1@@UStringHasher@2@@xercesc_3_1@@AAEXXZ 12017ae3 f i XTemplateSerializer.obj
 0001:00016ae3       ?rehash@?$RefHashTableOf@VXercesAttGroupInfo@xercesc_3_1@@UStringHasher@2@@xercesc_3_1@@AAEXXZ 12017ae3 f i XTemplateSerializer.obj
 0001:00016ae3       ?rehash@?$RefHashTableOf@VDTDElementDecl@xercesc_3_1@@UStringHasher@2@@xercesc_3_1@@AAEXXZ 12017ae3 f i XMLGrammarPoolImpl.obj
 0001:00016ae3       ?rehash@?$RefHashTableOf@VCPMapEntry@xercesc_3_1@@UStringHasher@2@@xercesc_3_1@@AAEXXZ 12017ae3 f i Win32TransService.obj
 0001:00016ae3       ?rehash@?$RefHashTableOf@UPoolElem@XMLStringPool@xercesc_3_1@@UStringHasher@3@@xercesc_3_1@@AAEXXZ 12017ae3 f i StringPool.obj
 0001:00016ae3       ?rehash@?$RefHashTableOf@VDOMElement@xercesc_3_1@@UStringHasher@2@@xercesc_3_1@@AAEXXZ 12017ae3 f i SchemaInfo.obj
 0001:00016ae3       ?rehash@?$RefHashTableOf@VDTDAttDef@xercesc_3_1@@UStringHasher@2@@xercesc_3_1@@AAEXXZ 12017ae3 f i XTemplateSerializer.obj
 0001:00016ae3       ?rehash@?$RefHashTableOf@VRangeFactory@xercesc_3_1@@UStringHasher@2@@xercesc_3_1@@AAEXXZ 12017ae3 f i RangeTokenMap.obj
 0001:00016ae3       ?rehash@?$RefHashTableOf@VXMLElementDecl@xercesc_3_1@@UStringHasher@2@@xercesc_3_1@@AAEXXZ 12017ae3 f i WFXMLScanner.obj
 0001:00016ae3       ?rehash@?$RefHashTableOf@VDTDEntityDecl@xercesc_3_1@@UStringHasher@2@@xercesc_3_1@@AAEXXZ 12017ae3 f i XMLGrammarPoolImpl.obj
 0001:00016ae3       ?rehash@?$RefHashTableOf@VComplexTypeInfo@xercesc_3_1@@UStringHasher@2@@xercesc_3_1@@AAEXXZ 12017ae3 f i XTemplateSerializer.obj
 0001:00016ae3       ?rehash@?$RefHashTableOf@VRangeTokenElemMap@xercesc_3_1@@UStringHasher@2@@xercesc_3_1@@AAEXXZ 12017ae3 f i RangeTokenMap.obj
 0001:00016ae3       ?rehash@?$RefHashTableOf@VENameMap@xercesc_3_1@@UStringHasher@2@@xercesc_3_1@@AAEXXZ 12017ae3 f i TransService.obj
 0001:00016ae3       ?rehash@?$RefHashTableOf@V?$ValueVectorOf@PAVSchemaElementDecl@xercesc_3_1@@@xercesc_3_1@@UStringHasher@2@@xercesc_3_1@@AAEXXZ 12017ae3 f i TraverseSchema.obj
 0001:00016ae3       ?rehash@?$RefHashTableOf@VXercesGroupInfo@xercesc_3_1@@UStringHasher@2@@xercesc_3_1@@AAEXXZ 12017ae3 f i XTemplateSerializer.obj
 0001:00016ae3       ?rehash@?$RefHashTableOf@_WUStringHasher@xercesc_3_1@@@xercesc_3_1@@AAEXXZ 12017ae3 f i DOMLSSerializerImpl.obj
 0001:00016ae3       ?rehash@?$RefHashTableOf@VDatatypeValidator@xercesc_3_1@@UStringHasher@2@@xercesc_3_1@@AAEXXZ 12017ae3 f i XTemplateSerializer.obj
 0001:00016ae3       ?rehash@?$RefHashTableOf@VXSNamespaceItem@xercesc_3_1@@UStringHasher@2@@xercesc_3_1@@AAEXXZ 12017ae3 f i XSModel.obj
 0001:00016ae3       ?rehash@?$RefHashTableOf@VKVStringPair@xercesc_3_1@@UStringHasher@2@@xercesc_3_1@@AAEXXZ 12017ae3 f i XTemplateSerializer.obj
 0001:00016ae3       ?rehash@?$RefHashTableOf@VXMLRefInfo@xercesc_3_1@@UStringHasher@2@@xercesc_3_1@@AAEXXZ 12017ae3 f i ValidationContextImpl.obj
 0001:00016ae3       ?rehash@?$RefHashTableOf@VXMLNotationDecl@xercesc_3_1@@UStringHasher@2@@xercesc_3_1@@AAEXXZ 12017ae3 f i XMLGrammarPoolImpl.obj
 0001:00016ae3       ?rehash@?$RefHashTableOf@VGrammar@xercesc_3_1@@UStringHasher@2@@xercesc_3_1@@AAEXXZ 12017ae3 f i XMLGrammarPoolImpl.obj
 0001:00016b83       ?removeAll@?$RefHashTableOf@VCPMapEntry@xercesc_3_1@@UStringHasher@2@@xercesc_3_1@@QAEXXZ 12017b83 f i Win32TransService.obj
 0001:00016bf1       ??0CharBuffer@xercesc_3_1@@QAE@KPAVMemoryManager@1@@Z 12017bf1 f i BinHTTPInputStreamCommon.obj
 0001:00016c17       ??1CharBuffer@xercesc_3_1@@QAE@XZ 12017c17 f i BinHTTPInputStreamCommon.obj
 0001:00016c24       ?getRawBuffer@CharBuffer@xercesc_3_1@@QAEPADXZ 12017c24 f i BinHTTPInputStreamCommon.obj
 0001:00016c24       ?getRawBuffer@CharBuffer@xercesc_3_1@@QBEPBDXZ 12017c24 f i BinHTTPInputStreamCommon.obj
 0001:00016c30       ?append@CharBuffer@xercesc_3_1@@QAEXPBD@Z 12017c30 f i BinHTTPInputStreamCommon.obj
 0001:00016c78       ?append@CharBuffer@xercesc_3_1@@QAEXPBDK@Z 12017c78 f i BinHTTPInputStreamCommon.obj
 0001:00016cb8       ?appendDecimalNumber@CharBuffer@xercesc_3_1@@QAEXI@Z 12017cb8 f i BinHTTPInputStreamCommon.obj
 0001:00016d00       ?set@CharBuffer@xercesc_3_1@@QAEXPBD@Z 12017d00 f i BinHTTPInputStreamCommon.obj
 0001:00016d0d       ?ensureCapacity@CharBuffer@xercesc_3_1@@AAEXK@Z 12017d0d f i BinHTTPInputStreamCommon.obj
 0001:00016d55       ??_FCharBuffer@xercesc_3_1@@QAEXXZ 12017d55 f i BinHTTPInputStreamCommon.obj
 0001:00016d7a       ??_EBinHTTPInputStreamCommon@xercesc_3_1@@MAEPAXI@Z 12017d7a f i BinHTTPInputStreamCommon.obj
 0001:00016dc5       ?curPos@BinHTTPInputStreamCommon@xercesc_3_1@@UBE_KXZ 12017dc5 f i BinHTTPInputStreamCommon.obj
 0001:00016dcb       ??0BinHTTPInputStreamCommon@xercesc_3_1@@IAE@PAVMemoryManager@1@@Z 12017dcb f   BinHTTPInputStreamCommon.obj
 0001:00016e1b       ??1BinHTTPInputStreamCommon@xercesc_3_1@@MAE@XZ 12017e1b f   BinHTTPInputStreamCommon.obj
 0001:00016e64       ?createHTTPRequest@BinHTTPInputStreamCommon@xercesc_3_1@@AAEXABVXMLURL@2@PBVXMLNetHTTPInfo@2@AAVCharBuffer@2@@Z 12017e64 f   BinHTTPInputStreamCommon.obj
 0001:00017201       ?findHeader@BinHTTPInputStreamCommon@xercesc_3_1@@IAEPA_WPBD@Z 12018201 f   BinHTTPInputStreamCommon.obj
 0001:0001729c       ?sendRequest@BinHTTPInputStreamCommon@xercesc_3_1@@IAEHABVXMLURL@2@PBVXMLNetHTTPInfo@2@@Z 1201829c f   BinHTTPInputStreamCommon.obj
 0001:00017638       ?getContentType@BinHTTPInputStreamCommon@xercesc_3_1@@UBEPB_WXZ 12018638 f   BinHTTPInputStreamCommon.obj
 0001:00017653       ?readBytes@BinHTTPInputStreamCommon@xercesc_3_1@@UAEKQAEK@Z 12018653 f   BinHTTPInputStreamCommon.obj
 0001:000176d5       ??_EBinHTTPURLInputStream@xercesc_3_1@@UAEPAXI@Z 120186d5 f i BinHTTPURLInputStream.obj
 0001:00017720       ??1SocketJanitor@xercesc_3_1@@QAE@XZ 12018720 f i BinHTTPURLInputStream.obj
 0001:00017728       ?reset@SocketJanitor@xercesc_3_1@@QAEXPAI@Z 12018728 f i BinHTTPURLInputStream.obj
 0001:0001774e       ?Initialize@BinHTTPURLInputStream@xercesc_3_1@@CAXQAVMemoryManager@2@@Z 1201874e f   BinHTTPURLInputStream.obj
 0001:00017971       ?Cleanup@BinHTTPURLInputStream@xercesc_3_1@@SAXXZ 12018971 f   BinHTTPURLInputStream.obj
 0001:00017a12       ??0BinHTTPURLInputStream@xercesc_3_1@@QAE@ABVXMLURL@1@PBVXMLNetHTTPInfo@1@@Z 12018a12 f   BinHTTPURLInputStream.obj
 0001:00017ecd       ??1BinHTTPURLInputStream@xercesc_3_1@@UAE@XZ 12018ecd f   BinHTTPURLInputStream.obj
 0001:00017f0e       ?send@BinHTTPURLInputStream@xercesc_3_1@@UAE_NPBDK@Z 12018f0e f   BinHTTPURLInputStream.obj
 0001:00017f4c       ?receive@BinHTTPURLInputStream@xercesc_3_1@@UAEHPADK@Z 12018f4c f   BinHTTPURLInputStream.obj
 0001:00017f6c       ??_EWinSockNetAccessor@xercesc_3_1@@UAEPAXI@Z 12018f6c f i WinSockNetAccessor.obj
 0001:00017fb7       ??0WinSockNetAccessor@xercesc_3_1@@QAE@XZ 12018fb7 f   WinSockNetAccessor.obj
 0001:00017fc0       ??1WinSockNetAccessor@xercesc_3_1@@UAE@XZ 12018fc0 f   WinSockNetAccessor.obj
 0001:00017fec       ?makeNew@WinSockNetAccessor@xercesc_3_1@@UAEPAVBinInputStream@2@ABVXMLURL@2@PBVXMLNetHTTPInfo@2@@Z 12018fec f   WinSockNetAccessor.obj
 0001:00018082       ??_ERangeFactory@xercesc_3_1@@UAEPAXI@Z 12019082 f i RangeFactory.obj
 0001:00018082       ??_EUnicodeRangeFactory@xercesc_3_1@@UAEPAXI@Z 12019082 f i UnicodeRangeFactory.obj
 0001:00018082       ??_EXMLRangeFactory@xercesc_3_1@@UAEPAXI@Z 12019082 f i XMLRangeFactory.obj
 0001:00018082       ??_EBlockRangeFactory@xercesc_3_1@@UAEPAXI@Z 12019082 f i BlockRangeFactory.obj
 0001:00018082       ??_EASCIIRangeFactory@xercesc_3_1@@UAEPAXI@Z 12019082 f i ASCIIRangeFactory.obj
 0001:000180ce       ?getMax@Token@xercesc_3_1@@UBEHXZ 120190ce f i ASCIIRangeFactory.obj
 0001:000180ce       ?getChar@Token@xercesc_3_1@@UBEHXZ 120190ce f i ASCIIRangeFactory.obj
 0001:000180ce       ?getMin@Token@xercesc_3_1@@UBEHXZ 120190ce f i ASCIIRangeFactory.obj
 0001:000180d2       ?isSet@Token@xercesc_3_1@@AAE_NHI@Z 120190d2 f i ASCIIRangeFactory.obj
 0001:000180e7       ?addChild@Token@xercesc_3_1@@UAEXQAV12@QAVTokenFactory@2@@Z 120190e7 f i ASCIIRangeFactory.obj
 0001:00018118       ?addRange@Token@xercesc_3_1@@UAEXHH@Z 12019118 f i ASCIIRangeFactory.obj
 0001:00018149       ?mergeRanges@Token@xercesc_3_1@@UAEXQBV12@@Z 12019149 f i ASCIIRangeFactory.obj
 0001:0001817a       ?sortRanges@Token@xercesc_3_1@@UAEXXZ 1201917a f i ASCIIRangeFactory.obj
 0001:000181ab       ?compactRanges@Token@xercesc_3_1@@UAEXXZ 120191ab f i ASCIIRangeFactory.obj
 0001:000181dc       ?subtractRanges@Token@xercesc_3_1@@UAEXQAVRangeToken@2@@Z 120191dc f i ASCIIRangeFactory.obj
 0001:0001820d       ?intersectRanges@Token@xercesc_3_1@@UAEXQAVRangeToken@2@@Z 1201920d f i ASCIIRangeFactory.obj
 0001:0001823e       ??_FTokenFactory@xercesc_3_1@@QAEXXZ 1201923e f i ASCIIRangeFactory.obj
 0001:0001824a       ?getRange@TokenFactory@xercesc_3_1@@QAEPAVRangeToken@2@QB_W_N@Z 1201924a f i ASCIIRangeFactory.obj
 0001:0001825e       ?createMap@RangeToken@xercesc_3_1@@QAEXXZ 1201925e f i ASCIIRangeFactory.obj
 0001:0001826a       ?empty@RangeToken@xercesc_3_1@@QBE_NXZ 1201926a f i ASCIIRangeFactory.obj
 0001:00018273       ?getRangeToken@RangeTokenElemMap@xercesc_3_1@@QBEPAVRangeToken@2@_N@Z 12019273 f i ASCIIRangeFactory.obj
 0001:00018288       ?setRangeToken@RangeTokenElemMap@xercesc_3_1@@QAEXQAVRangeToken@2@_N@Z 12019288 f i ASCIIRangeFactory.obj
 0001:000182a0       ??0ASCIIRangeFactory@xercesc_3_1@@QAE@XZ 120192a0 f   ASCIIRangeFactory.obj
 0001:000182af       ?buildRanges@ASCIIRangeFactory@xercesc_3_1@@MAEXPAVRangeTokenMap@2@@Z 120192af f   ASCIIRangeFactory.obj
 0001:00018524       ?initializeKeywordMap@ASCIIRangeFactory@xercesc_3_1@@UAEXPAVRangeTokenMap@2@@Z 12019524 f   ASCIIRangeFactory.obj
 0001:0001858c       ??0BlockRangeFactory@xercesc_3_1@@QAE@XZ 1201958c f   BlockRangeFactory.obj
 0001:0001859b       ?buildRanges@BlockRangeFactory@xercesc_3_1@@MAEXPAVRangeTokenMap@2@@Z 1201959b f   BlockRangeFactory.obj
 0001:000186de       ?initializeKeywordMap@BlockRangeFactory@xercesc_3_1@@UAEXPAVRangeTokenMap@2@@Z 120196de f   BlockRangeFactory.obj
 0001:00018718       ??0BMPattern@xercesc_3_1@@QAE@QB_W_NQAVMemoryManager@1@@Z 12019718 f   BMPattern.obj
 0001:00018780       ??0BMPattern@xercesc_3_1@@QAE@QB_WH_NQAVMemoryManager@1@@Z 12019780 f   BMPattern.obj
 0001:000187e7       ??1BMPattern@xercesc_3_1@@QAE@XZ 120197e7 f   BMPattern.obj
 0001:000187ec       ?matches@BMPattern@xercesc_3_1@@QBEHQB_WKK@Z 120197ec f   BMPattern.obj
 0001:000188db       ?initialize@BMPattern@xercesc_3_1@@AAEXXZ 120198db f   BMPattern.obj
 0001:000189c6       ?cleanUp@BMPattern@xercesc_3_1@@AAEXXZ 120199c6 f   BMPattern.obj
 0001:000189ec       ??_ECharToken@xercesc_3_1@@UAEPAXI@Z 120199ec f i CharToken.obj
 0001:00018a38       ?match@CharToken@xercesc_3_1@@QAE_NH@Z 12019a38 f i CharToken.obj
 0001:00018a4a       ??0CharToken@xercesc_3_1@@QAE@W4tokType@Token@1@HQAVMemoryManager@1@@Z 12019a4a f   CharToken.obj
 0001:00018a6b       ??_EClosureToken@xercesc_3_1@@UAEPAXI@Z 12019a6b f i ClosureToken.obj
 0001:00018ab7       ?getChild@ClosureToken@xercesc_3_1@@UBEPAVToken@2@K@Z 12019ab7 f i ClosureToken.obj
 0001:00018abd       ??0ClosureToken@xercesc_3_1@@QAE@W4tokType@Token@1@QAV31@QAVMemoryManager@1@@Z 12019abd f   ClosureToken.obj
 0001:00018ae6       ??1Token@xercesc_3_1@@UAE@XZ 12019ae6 f   Token.obj
 0001:00018ae6       ??1ClosureToken@xercesc_3_1@@UAE@XZ 12019ae6 f   ClosureToken.obj
 0001:00018ae6       ??1ParenToken@xercesc_3_1@@UAE@XZ 12019ae6 f   ParenToken.obj
 0001:00018ae6       ??1CharToken@xercesc_3_1@@UAE@XZ 12019ae6 f   CharToken.obj
 0001:00018ae6       ??1ConcatToken@xercesc_3_1@@UAE@XZ 12019ae6 f   ConcatToken.obj
 0001:00018aed       ?getChild@ConcatToken@xercesc_3_1@@UBEPAVToken@2@K@Z 12019aed f i ConcatToken.obj
 0001:00018b02       ??0ConcatToken@xercesc_3_1@@QAE@QAVToken@1@0QAVMemoryManager@1@@Z 12019b02 f   ConcatToken.obj
 0001:00018b2a       ??_FMatch@xercesc_3_1@@QAEXXZ 12019b2a f i Match.obj
 0001:00018b36       ??_EMatch@xercesc_3_1@@UAEPAXI@Z 12019b36 f i Match.obj
 0001:00018b87       ?getNoGroups@Match@xercesc_3_1@@QBEHXZ 12019b87 f i Match.obj
 0001:00018bbd       ?getStartPos@Match@xercesc_3_1@@QBEHH@Z 12019bbd f i Match.obj
 0001:00018c2c       ?getEndPos@Match@xercesc_3_1@@QBEHH@Z 12019c2c f i Match.obj
 0001:00018ca1       ?setStartPos@Match@xercesc_3_1@@QAEXHH@Z 12019ca1 f i Match.obj
 0001:00018d19       ?setEndPos@Match@xercesc_3_1@@QAEXHH@Z 12019d19 f i Match.obj
 0001:00018d91       ??0Match@xercesc_3_1@@QAE@QAVMemoryManager@1@@Z 12019d91 f   Match.obj
 0001:00018db4       ??0Match@xercesc_3_1@@QAE@ABV01@@Z 12019db4 f   Match.obj
 0001:00018de0       ??4Match@xercesc_3_1@@QAEAAV01@ABV01@@Z 12019de0 f   Match.obj
 0001:00018df5       ??1Match@xercesc_3_1@@UAE@XZ 12019df5 f   Match.obj
 0001:00018e00       ?setNoGroups@Match@xercesc_3_1@@QAEXH@Z 12019e00 f   Match.obj
 0001:00018e60       ?initialize@Match@xercesc_3_1@@AAEXABV12@@Z 12019e60 f   Match.obj
 0001:00018ec2       ?cleanUp@Match@xercesc_3_1@@AAEXXZ 12019ec2 f   Match.obj
 0001:00018ee5       ??_EOp@xercesc_3_1@@UAEPAXI@Z 12019ee5 f i Op.obj
 0001:00018f31       ??1UnionOp@xercesc_3_1@@UAE@XZ 12019f31 f i Op.obj
 0001:00018f65       ??_EUnionOp@xercesc_3_1@@UAEPAXI@Z 12019f65 f i Op.obj
 0001:00018fb0       ??1CharOp@xercesc_3_1@@UAE@XZ 12019fb0 f i Op.obj
 0001:00018fb0       ??1ModifierOp@xercesc_3_1@@UAE@XZ 12019fb0 f i Op.obj
 0001:00018fb0       ??1RangeOp@xercesc_3_1@@UAE@XZ 12019fb0 f i Op.obj
 0001:00018fb0       ??1Op@xercesc_3_1@@UAE@XZ  12019fb0 f i Op.obj
 0001:00018fb0       ??1ChildOp@xercesc_3_1@@UAE@XZ 12019fb0 f i Op.obj
 0001:00018fb7       ??_EModifierOp@xercesc_3_1@@UAEPAXI@Z 12019fb7 f i Op.obj
 0001:00019003       ??_ECharOp@xercesc_3_1@@UAEPAXI@Z 1201a003 f i Op.obj
 0001:00019003       ??_EChildOp@xercesc_3_1@@UAEPAXI@Z 1201a003 f i Op.obj
 0001:00019003       ??_ERangeOp@xercesc_3_1@@UAEPAXI@Z 1201a003 f i Op.obj
 0001:0001904f       ??1StringOp@xercesc_3_1@@UAE@XZ 1201a04f f i Op.obj
 0001:00019081       ??_EStringOp@xercesc_3_1@@UAEPAXI@Z 1201a081 f i Op.obj
 0001:000190cc       ??0Op@xercesc_3_1@@IAE@W4opType@01@QAVMemoryManager@1@@Z 1201a0cc f   Op.obj
 0001:000190eb       ?getSize@Op@xercesc_3_1@@UBEKXZ 1201a0eb f   Op.obj
 0001:00019119       ?getData@Op@xercesc_3_1@@UBEHXZ 1201a119 f   Op.obj
 0001:00019147       ?getData2@Op@xercesc_3_1@@UBEHXZ 1201a147 f   Op.obj
 0001:00019175       ?elementAt@Op@xercesc_3_1@@UBEPBV12@K@Z 1201a175 f   Op.obj
 0001:000191a3       ?getChild@Op@xercesc_3_1@@UBEPBV12@XZ 1201a1a3 f   Op.obj
 0001:000191d1       ?getLiteral@Op@xercesc_3_1@@UBEPB_WXZ 1201a1d1 f   Op.obj
 0001:000191ff       ?getToken@Op@xercesc_3_1@@UBEPBVToken@2@XZ 1201a1ff f   Op.obj
 0001:0001922d       ??0CharOp@xercesc_3_1@@QAE@W4opType@Op@1@HQAVMemoryManager@1@@Z 1201a22d f   Op.obj
 0001:00019252       ??0UnionOp@xercesc_3_1@@QAE@W4opType@Op@1@KQAVMemoryManager@1@@Z 1201a252 f   Op.obj
 0001:000192b2       ?getSize@UnionOp@xercesc_3_1@@UBEKXZ 1201a2b2 f   Op.obj
 0001:000192b9       ?elementAt@UnionOp@xercesc_3_1@@UBEPBVOp@2@K@Z 1201a2b9 f   Op.obj
 0001:000192fb       ?addElement@UnionOp@xercesc_3_1@@QAEXQAVOp@2@@Z 1201a2fb f   Op.obj
 0001:0001930f       ??0ChildOp@xercesc_3_1@@QAE@W4opType@Op@1@QAVMemoryManager@1@@Z 1201a30f f   Op.obj
 0001:00019332       ?getOffset@RegxParser@xercesc_3_1@@QBEKXZ 1201a332 f   ParserForXMLSchema.obj
 0001:00019332       ?getLocationHints@XMLSchemaDescriptionImpl@xercesc_3_1@@UBEPBV?$RefArrayVectorOf@_W@2@XZ 1201a332 f   XMLSchemaDescriptionImpl.obj
 0001:00019332       ?getBlockSet@ComplexTypeInfo@xercesc_3_1@@QBEHXZ 1201a332 f   XMLElementDecl.obj
 0001:00019332       ?getScanner@XMLValidator@xercesc_3_1@@IAEPAVXMLScanner@2@XZ 1201a332 f   XMLValidator.obj
 0001:00019332       ?getTranscoder@XMLFormatter@xercesc_3_1@@QBEPBVXMLTranscoder@2@XZ 1201a332 f   LocalFileFormatTarget.obj
 0001:00019332       ?getAttName@XMLAttr@xercesc_3_1@@QBEPAVQName@2@XZ 1201a332 f   XMLAttr.obj
 0001:00019332       ?getNextSibling@DOMCommentImpl@xercesc_3_1@@UBEPAVDOMNode@2@XZ 1201a332 f   DOMCommentImpl.obj
 0001:00019332       ?getURI@QName@xercesc_3_1@@QBEIXZ 1201a332 f   QName.obj
 0001:00019332       ?getSystemId@InputSource@xercesc_3_1@@UBEPB_WXZ 1201a332 f   LocalFileInputSource.obj
 0001:00019332       ?getOwnerDocument@DOMAttrImpl@xercesc_3_1@@UBEPAVDOMDocument@2@XZ 1201a332 f   DOMAttrImpl.obj
 0001:00019332       ?getPublicId@XMLNotationDecl@xercesc_3_1@@QBEPB_WXZ 1201a332 f   XMLDTDDescription.obj
 0001:00019332       ?getPassword@XMLURL@xercesc_3_1@@QBEPB_WXZ 1201a332 f   PlatformUtils.obj
 0001:00019332       ?getNextSibling@DOMTextImpl@xercesc_3_1@@UBEPAVDOMNode@2@XZ 1201a332 f   DOMTextImpl.obj
 0001:00019332       ?getType@XMLAbstractDoubleFloat@xercesc_3_1@@QBE?AW4LiteralType@12@XZ 1201a332 f   XMLAbstractDoubleFloat.obj
 0001:00019332       ?getEntityDeclPool@DTDGrammar@xercesc_3_1@@QBEPBV?$NameIdPool@VDTDEntityDecl@xercesc_3_1@@@2@XZ 1201a332 f   XMLGrammarPoolImpl.obj
 0001:00019332       ?getNextSibling@DOMCDATASectionImpl@xercesc_3_1@@UBEPAVDOMNode@2@XZ 1201a332 f   DOMCDATASectionImpl.obj
 0001:00019332       ?getString@StringToken@xercesc_3_1@@UBEPB_WXZ 1201a332 f   ParserForXMLSchema.obj
 0001:00019332       ?getId@XSObject@xercesc_3_1@@UBEKXZ 1201a332 f   XSObject.obj
 0001:00019332       ?getBuiltinDatatypeValidatorFactory@GrammarResolver@xercesc_3_1@@QAEPAVDatatypeValidatorFactory@2@XZ 1201a332 f   XMLValidator.obj
 0001:00019332       ?getOwnerDocument@DOMDocumentFragmentImpl@xercesc_3_1@@UBEPAVDOMDocument@2@XZ 1201a332 f   DOMDocumentFragmentImpl.obj
 0001:00019332       ?getPublicId@DOMLSInputImpl@xercesc_3_1@@UBEPB_WXZ 1201a332 f   DOMImplementationImpl.obj
 0001:00019332       ?getName@XMLEntityDecl@xercesc_3_1@@QBEPB_WXZ 1201a332 f   XMLDTDDescription.obj
 0001:00019332       ?getFacetsDefined@DatatypeValidator@xercesc_3_1@@IBEHXZ 1201a332 f   XMLAttr.obj
 0001:00019332       ?getOwnerDocument@DOMElementImpl@xercesc_3_1@@UBEPAVDOMDocument@2@XZ 1201a332 f   DOMElementImpl.obj
 0001:00019332       ?getNamespaceId@XercesGroupInfo@xercesc_3_1@@QBEIXZ 1201a332 f   XMLGrammarPoolImpl.obj
 0001:00019332       ?getData@CharOp@xercesc_3_1@@UBEHXZ 1201a332 f   Op.obj
 0001:00019332       ?getSchemaDefault@PSVIItem@xercesc_3_1@@QAEPB_WXZ 1201a332 f   PSVIAttribute.obj
 0001:00019332       ?getHost@XMLUri@xercesc_3_1@@QBEPB_WXZ 1201a332 f   XMLString.obj
 0001:00019332       ?getMax@ClosureToken@xercesc_3_1@@UBEHXZ 1201a332 f   ClosureToken.obj
 0001:00019332       ?getKey@XMLEntityDecl@xercesc_3_1@@QBEPB_WXZ 1201a332 f   XMLDTDDescription.obj
 0001:00019332       ?getFirst@ContentSpecNode@xercesc_3_1@@QBEPBV12@XZ 1201a332 f   XMLGrammarPoolImpl.obj
 0001:00019332       ?getTranscoder@XMLFormatter@xercesc_3_1@@QAEPAVXMLTranscoder@2@XZ 1201a332 f   LocalFileFormatTarget.obj
 0001:00019332       ?getValue@KVStringPair@xercesc_3_1@@QBEPB_WXZ 1201a332 f   KVStringPair.obj
 0001:00019332       ?getNamespaceScope@SchemaInfo@xercesc_3_1@@QBEPAVNamespaceScope@2@XZ 1201a332 f   IGXMLScanner.obj
 0001:00019332       ?getOwnerDocument@DOMEntityImpl@xercesc_3_1@@UBEPAVDOMDocument@2@XZ 1201a332 f   DOMEntityImpl.obj
 0001:00019332       ?getChild@ChildOp@xercesc_3_1@@UBEPBVOp@2@XZ 1201a332 f   Op.obj
 0001:00019332       ?getEntityDeclPool@DTDGrammar@xercesc_3_1@@QAEPAV?$NameIdPool@VDTDEntityDecl@xercesc_3_1@@@2@XZ 1201a332 f   XMLGrammarPoolImpl.obj
 0001:00019332       ?getNameSpace@XMLResourceIdentifier@xercesc_3_1@@QBEPB_WXZ 1201a332 f   DGXMLScanner.obj
 0001:00019332       ?getSchemaLocation@DOMConfigurationImpl@xercesc_3_1@@QBEPB_WXZ 1201a332 f   DOMConfigurationImpl.obj
 0001:00019332       ?getScanner@XMLValidator@xercesc_3_1@@IBEPBVXMLScanner@2@XZ 1201a332 f   XMLValidator.obj
 0001:00019332       ?getRoot@DOMTreeWalkerImpl@xercesc_3_1@@UAEPAVDOMNode@2@XZ 1201a332 f   DOMTreeWalkerImpl.obj
 0001:00019332       ?getValue@KVStringPair@xercesc_3_1@@QAEPA_WXZ 1201a332 f   KVStringPair.obj
 0001:00019332       ?getNextSibling@DOMProcessingInstructionImpl@xercesc_3_1@@UBEPAVDOMNode@2@XZ 1201a332 f   DOMProcessingInstructionImpl.obj
 0001:00019332       ?getLiteral@StringOp@xercesc_3_1@@UBEPB_WXZ 1201a332 f   Op.obj
 0001:00019332       ?getOwnerDocument@DOMDocumentTypeImpl@xercesc_3_1@@UBEPAVDOMDocument@2@XZ 1201a332 f   DOMDocumentTypeImpl.obj
 0001:00019332       ?getId@XMLElementDecl@xercesc_3_1@@QBEKXZ 1201a332 f   XMLDTDDescription.obj
 0001:00019332       ?getOwnerDocument@DOMEntityReferenceImpl@xercesc_3_1@@UBEPAVDOMDocument@2@XZ 1201a332 f   DOMEntityReferenceImpl.obj
 0001:00019332       ?getFirst@ContentSpecNode@xercesc_3_1@@QAEPAV12@XZ 1201a332 f   XMLGrammarPoolImpl.obj
 0001:00019332       ?getLocation@DOMErrorImpl@xercesc_3_1@@UBEPAVDOMLocator@2@XZ 1201a332 f   DOMLSParserImpl.obj
 0001:00019332       ?getFilter@DOMNodeIteratorImpl@xercesc_3_1@@UAEPAVDOMNodeFilter@2@XZ 1201a332 f   DOMNodeIteratorImpl.obj
 0001:00019332       ?getToken@RangeOp@xercesc_3_1@@UBEPBVToken@2@XZ 1201a332 f   Op.obj
 0001:00019332       ?getPublicId@DOMNotationImpl@xercesc_3_1@@UBEPB_WXZ 1201a332 f   DOMNotationImpl.obj
 0001:00019336       ??0ModifierOp@xercesc_3_1@@QAE@W4opType@Op@1@HHQAVMemoryManager@1@@Z 1201a336 f   Op.obj
 0001:0001935e       ??0RangeOp@xercesc_3_1@@QAE@W4opType@Op@1@QBVToken@1@QAVMemoryManager@1@@Z 1201a35e f   Op.obj
 0001:00019383       ??0StringOp@xercesc_3_1@@QAE@W4opType@Op@1@QB_WQAVMemoryManager@1@@Z 1201a383 f   Op.obj
 0001:000193c6       ??1?$BaseRefVectorOf@VOp@xercesc_3_1@@@xercesc_3_1@@UAE@XZ 1201a3c6 f i Op.obj
 0001:000193cd       ?addElement@?$BaseRefVectorOf@VXSObject@xercesc_3_1@@@xercesc_3_1@@QAEXQAVXSObject@2@@Z 1201a3cd f i XSModel.obj
 0001:000193cd       ?addElement@?$BaseRefVectorOf@VSchemaInfo@xercesc_3_1@@@xercesc_3_1@@QAEXQAVSchemaInfo@2@@Z 1201a3cd f i IGXMLScanner.obj
 0001:000193cd       ?addElement@?$BaseRefVectorOf@V?$ValueStackOf@K@xercesc_3_1@@@xercesc_3_1@@QAEXQAV?$ValueStackOf@K@2@@Z 1201a3cd f i XPathMatcher.obj
 0001:000193cd       ?addElement@?$BaseRefVectorOf@VScope@InScopeNamespaces@DOMNormalizer@xercesc_3_1@@@xercesc_3_1@@QAEXQAVScope@InScopeNamespaces@DOMNormalizer@2@@Z 1201a3cd f i DOMNormalizer.obj
 0001:000193cd       ?addElement@?$BaseRefVectorOf@V?$RefHashTableOf@_WUStringHasher@xercesc_3_1@@@xercesc_3_1@@@xercesc_3_1@@QAEXQAV?$RefHashTableOf@_WUStringHasher@xercesc_3_1@@@2@@Z 1201a3cd f i DOMLSSerializerImpl.obj
 0001:000193cd       ?addElement@?$BaseRefVectorOf@VDatatypeValidator@xercesc_3_1@@@xercesc_3_1@@QAEXQAVDatatypeValidator@2@@Z 1201a3cd f i XTemplateSerializer.obj
 0001:000193cd       ?addElement@?$BaseRefVectorOf@VXSMultiValueFacet@xercesc_3_1@@@xercesc_3_1@@QAEXQAVXSMultiValueFacet@2@@Z 1201a3cd f i XSObjectFactory.obj
 0001:000193cd       ?addElement@?$BaseRefVectorOf@VXMLEntityDecl@xercesc_3_1@@@xercesc_3_1@@QAEXQAVXMLEntityDecl@2@@Z 1201a3cd f i ReaderMgr.obj
 0001:000193cd       ?addElement@?$BaseRefVectorOf@VXSParticle@xercesc_3_1@@@xercesc_3_1@@QAEXQAVXSParticle@2@@Z 1201a3cd f i XSObjectFactory.obj
 0001:000193cd       ?addElement@?$BaseRefVectorOf@VSchemaAttDef@xercesc_3_1@@@xercesc_3_1@@QAEXQAVSchemaAttDef@2@@Z 1201a3cd f i XMLGrammarPoolImpl.obj
 0001:000193cd       ?addElement@?$BaseRefVectorOf@V?$RefHashTableOf@VValueStore@xercesc_3_1@@UPtrHasher@2@@xercesc_3_1@@@xercesc_3_1@@QAEXQAV?$RefHashTableOf@VValueStore@xercesc_3_1@@UPtrHasher@2@@2@@Z 1201a3cd f i ValueStoreCache.obj
 0001:000193cd       ?addElement@?$BaseRefVectorOf@VXSFacet@xercesc_3_1@@@xercesc_3_1@@QAEXQAVXSFacet@2@@Z 1201a3cd f i XSObjectFactory.obj
 0001:000193cd       ?addElement@?$BaseRefVectorOf@VContentSpecNode@xercesc_3_1@@@xercesc_3_1@@QAEXQAVContentSpecNode@2@@Z 1201a3cd f i XTemplateSerializer.obj
 0001:000193cd       ?addElement@?$BaseRefVectorOf@VDOMImplementation@xercesc_3_1@@@xercesc_3_1@@QAEXQAVDOMImplementation@2@@Z 1201a3cd f i DOMImplementationListImpl.obj
 0001:000193cd       ?addElement@?$BaseRefVectorOf@VDOMDocumentImpl@xercesc_3_1@@@xercesc_3_1@@QAEXQAVDOMDocumentImpl@2@@Z 1201a3cd f i AbstractDOMParser.obj
 0001:000193cd       ?addElement@?$BaseRefVectorOf@VDOMNode@xercesc_3_1@@@xercesc_3_1@@QAEXQAVDOMNode@2@@Z 1201a3cd f i DOMDocumentImpl.obj
 0001:000193cd       ?addElement@?$BaseRefVectorOf@VOp@xercesc_3_1@@@xercesc_3_1@@QAEXQAVOp@2@@Z 1201a3cd f i Op.obj
 0001:000193cd       ?addElement@?$BaseRefVectorOf@VXSAttributeUse@xercesc_3_1@@@xercesc_3_1@@QAEXQAVXSAttributeUse@2@@Z 1201a3cd f i XSObjectFactory.obj
 0001:000193cd       ?addElement@?$BaseRefVectorOf@VPSVIAttributeStorage@xercesc_3_1@@@xercesc_3_1@@QAEXQAVPSVIAttributeStorage@2@@Z 1201a3cd f i PSVIAttributeList.obj
 0001:000193cd       ?addElement@?$BaseRefVectorOf@VSchemaElementDecl@xercesc_3_1@@@xercesc_3_1@@QAEXQAVSchemaElementDecl@2@@Z 1201a3cd f i XMLElementDecl.obj
 0001:000193cd       ?addElement@?$BaseRefVectorOf@VIC_Field@xercesc_3_1@@@xercesc_3_1@@QAEXQAVIC_Field@2@@Z 1201a3cd f i XMLElementDecl.obj
 0001:000193cd       ?addElement@?$BaseRefVectorOf@VDOMBuffer@xercesc_3_1@@@xercesc_3_1@@QAEXQAVDOMBuffer@2@@Z 1201a3cd f i DOMDocumentImpl.obj
 0001:000193cd       ?addElement@?$BaseRefVectorOf@VIdentityConstraint@xercesc_3_1@@@xercesc_3_1@@QAEXQAVIdentityConstraint@2@@Z 1201a3cd f i XMLElementDecl.obj
 0001:000193cd       ?addElement@?$BaseRefVectorOf@VToken@xercesc_3_1@@@xercesc_3_1@@QAEXQAVToken@2@@Z 1201a3cd f i TokenFactory.obj
 0001:000193cd       ?addElement@?$BaseRefVectorOf@VKVStringPair@xercesc_3_1@@@xercesc_3_1@@QAEXQAVKVStringPair@2@@Z 1201a3cd f i IGXMLScanner.obj
 0001:000193cd       ?addElement@?$BaseRefVectorOf@VXercesLocationPath@xercesc_3_1@@@xercesc_3_1@@QAEXQAVXercesLocationPath@2@@Z 1201a3cd f i XTemplateSerializer.obj
 0001:000193cd       ?addElement@?$BaseRefVectorOf@_W@xercesc_3_1@@QAEXQA_W@Z 1201a3cd f i XMLString.obj
 0001:000193cd       ?addElement@?$BaseRefVectorOf@VReferencePosition@RegxParser@xercesc_3_1@@@xercesc_3_1@@QAEXQAVReferencePosition@RegxParser@2@@Z 1201a3cd f i RegxParser.obj
 0001:000193cd       ?addElement@?$BaseRefVectorOf@VMatch@xercesc_3_1@@@xercesc_3_1@@QAEXQAVMatch@2@@Z 1201a3cd f i RegularExpression.obj
 0001:000193cd       ?addElement@?$BaseRefVectorOf@VXMLReader@xercesc_3_1@@@xercesc_3_1@@QAEXQAVXMLReader@2@@Z 1201a3cd f i ReaderMgr.obj
 0001:000193cd       ?addElement@?$BaseRefVectorOf@VXPathMatcher@xercesc_3_1@@@xercesc_3_1@@QAEXQAVXPathMatcher@2@@Z 1201a3cd f i IGXMLScanner.obj
 0001:000193cd       ?addElement@?$BaseRefVectorOf@VXMLAttr@xercesc_3_1@@@xercesc_3_1@@QAEXQAVXMLAttr@2@@Z 1201a3cd f i DGXMLScanner.obj
 0001:000193cd       ?addElement@?$BaseRefVectorOf@VValueStore@xercesc_3_1@@@xercesc_3_1@@QAEXQAVValueStore@2@@Z 1201a3cd f i ValueStoreCache.obj
 0001:000193cd       ?addElement@?$BaseRefVectorOf@VXSAnnotation@xercesc_3_1@@@xercesc_3_1@@QAEXQAVXSAnnotation@2@@Z 1201a3cd f i XSComplexTypeDefinition.obj
 0001:000193cd       ?addElement@?$BaseRefVectorOf@VXSIDCDefinition@xercesc_3_1@@@xercesc_3_1@@QAEXQAVXSIDCDefinition@2@@Z 1201a3cd f i XSObjectFactory.obj
 0001:000193cd       ?addElement@?$BaseRefVectorOf@VXSSimpleTypeDefinition@xercesc_3_1@@@xercesc_3_1@@QAEXQAVXSSimpleTypeDefinition@2@@Z 1201a3cd f i XSObjectFactory.obj
 0001:000193cd       ?addElement@?$BaseRefVectorOf@VDOMNodeIteratorImpl@xercesc_3_1@@@xercesc_3_1@@QAEXQAVDOMNodeIteratorImpl@2@@Z 1201a3cd f i DOMDocumentImpl.obj
 0001:000193cd       ?addElement@?$BaseRefVectorOf@VXSNamespaceItem@xercesc_3_1@@@xercesc_3_1@@QAEXQAVXSNamespaceItem@2@@Z 1201a3cd f i XSModel.obj
 0001:000193cd       ?addElement@?$BaseRefVectorOf@VXMLElementDecl@xercesc_3_1@@@xercesc_3_1@@QAEXQAVXMLElementDecl@2@@Z 1201a3cd f i WFXMLScanner.obj
 0001:000193cd       ?addElement@?$BaseRefVectorOf@VDOMRangeImpl@xercesc_3_1@@@xercesc_3_1@@QAEXQAVDOMRangeImpl@2@@Z 1201a3cd f i DOMDocumentImpl.obj
 0001:00019449       ??0?$RefVectorOf@VOp@xercesc_3_1@@@xercesc_3_1@@QAE@K_NQAVMemoryManager@1@@Z 1201a449 f i Op.obj
 0001:00019489       ??_G?$BaseRefVectorOf@VOp@xercesc_3_1@@@xercesc_3_1@@UAEPAXI@Z 1201a489 f i Op.obj
 0001:00019489       ??_E?$BaseRefVectorOf@VOp@xercesc_3_1@@@xercesc_3_1@@UAEPAXI@Z 1201a489 f i  CIL library: CIL module
 0001:000194a9       ??_G?$RefVectorOf@VOp@xercesc_3_1@@@xercesc_3_1@@UAEPAXI@Z 1201a4a9 f i Op.obj
 0001:000194a9       ??_E?$RefVectorOf@VOp@xercesc_3_1@@@xercesc_3_1@@UAEPAXI@Z 1201a4a9 f i  CIL library: CIL module
 0001:00019513       ??_FOpFactory@xercesc_3_1@@QAEXXZ 1201a513 f i OpFactory.obj
 0001:0001951f       ?reset@OpFactory@xercesc_3_1@@QAEXXZ 1201a51f f i OpFactory.obj
 0001:00019526       ??0OpFactory@xercesc_3_1@@QAE@QAVMemoryManager@1@@Z 1201a526 f   OpFactory.obj
 0001:00019574       ??1TokenFactory@xercesc_3_1@@QAE@XZ 1201a574 f   TokenFactory.obj
 0001:00019574       ??1OpFactory@xercesc_3_1@@QAE@XZ 1201a574 f   OpFactory.obj
 0001:00019588       ?createDotOp@OpFactory@xercesc_3_1@@QAEPAVOp@2@XZ 1201a588 f   OpFactory.obj
 0001:000195bf       ?createCharOp@OpFactory@xercesc_3_1@@QAEPAVCharOp@2@H@Z 1201a5bf f   OpFactory.obj
 0001:00019606       ?createAnchorOp@OpFactory@xercesc_3_1@@QAEPAVCharOp@2@H@Z 1201a606 f   OpFactory.obj
 0001:0001964d       ?createCaptureOp@OpFactory@xercesc_3_1@@QAEPAVCharOp@2@HQBVOp@2@@Z 1201a64d f   OpFactory.obj
 0001:0001969a       ?createUnionOp@OpFactory@xercesc_3_1@@QAEPAVUnionOp@2@K@Z 1201a69a f   OpFactory.obj
 0001:000196ea       ?createClosureOp@OpFactory@xercesc_3_1@@QAEPAVChildOp@2@H@Z 1201a6ea f   OpFactory.obj
 0001:00019728       ?createNonGreedyClosureOp@OpFactory@xercesc_3_1@@QAEPAVChildOp@2@XZ 1201a728 f   OpFactory.obj
 0001:00019766       ?createQuestionOp@OpFactory@xercesc_3_1@@QAEPAVChildOp@2@_N@Z 1201a766 f   OpFactory.obj
 0001:000197a9       ?createRangeOp@OpFactory@xercesc_3_1@@QAEPAVRangeOp@2@QBVToken@2@@Z 1201a7a9 f   OpFactory.obj
 0001:000197f0       ?createBackReferenceOp@OpFactory@xercesc_3_1@@QAEPAVCharOp@2@H@Z 1201a7f0 f   OpFactory.obj
 0001:00019837       ?createStringOp@OpFactory@xercesc_3_1@@QAEPAVStringOp@2@QB_W@Z 1201a837 f   OpFactory.obj
 0001:00019887       ??_EParenToken@xercesc_3_1@@UAEPAXI@Z 1201a887 f i ParenToken.obj
 0001:00019887       ??_EConcatToken@xercesc_3_1@@UAEPAXI@Z 1201a887 f i ConcatToken.obj
 0001:000198d3       ?getChild@ParenToken@xercesc_3_1@@UBEPAVToken@2@K@Z 1201a8d3 f i ParenToken.obj
 0001:000198d9       ??0ParenToken@xercesc_3_1@@QAE@W4tokType@Token@1@QAV31@HQAVMemoryManager@1@@Z 1201a8d9 f   ParenToken.obj
 0001:00019900       ??_FRegxParser@xercesc_3_1@@QAEXXZ 1201a900 f i ParserForXMLSchema.obj
 0001:0001990c       ?setSchemaType@DOMConfigurationImpl@xercesc_3_1@@QAEXPB_W@Z 1201a90c f i DOMConfigurationImpl.obj
 0001:0001990c       ?setDocTypeHandler@DTDScanner@xercesc_3_1@@QAEXQAVDocTypeHandler@2@@Z 1201a90c f i DGXMLScanner.obj
 0001:0001990c       ?setCreateReason@XMLElementDecl@xercesc_3_1@@QAEXW4CreateReasons@12@@Z 1201a90c f i XMLDTDDescription.obj
 0001:0001990c       ?setUnRepFlags@XMLFormatter@xercesc_3_1@@QAEXW4UnRepFlags@12@@Z 1201a90c f i LocalFileFormatTarget.obj
 0001:0001990c       ?setMessage@DOMErrorImpl@xercesc_3_1@@QAEXQB_W@Z 1201a90c f i DOMLSParserImpl.obj
 0001:0001990c       ?setNextOp@Op@xercesc_3_1@@QAEXQBV12@@Z 1201a90c f i Op.obj
 0001:0001990c       ?setCreateReason@XMLAttDef@xercesc_3_1@@QAEXW4CreateReasons@12@@Z 1201a90c f i XMLAttDef.obj
 0001:0001990c       ?setDerivedBy@ComplexTypeInfo@xercesc_3_1@@QAEXH@Z 1201a90c f i XMLElementDecl.obj
 0001:0001990c       ?setOptions@RegxParser@xercesc_3_1@@QAEXH@Z 1201a90c f i ParserForXMLSchema.obj
 0001:0001990c       ?setMin@ClosureToken@xercesc_3_1@@UAEXH@Z 1201a90c f i ClosureToken.obj
 0001:0001990c       ?setEntityHandler@ReaderMgr@xercesc_3_1@@QAEXQAVXMLEntityHandler@2@@Z 1201a90c f i XMLValidator.obj
 0001:00019919       ?isSet@RegxParser@xercesc_3_1@@IAE_NH@Z 1201a919 f i ParserForXMLSchema.obj
 0001:0001992e       ?hexChar@RegxParser@xercesc_3_1@@AAEHH@Z 1201a92e f i ParserForXMLSchema.obj
 0001:00019966       ??_FParserForXMLSchema@xercesc_3_1@@QAEXXZ 1201a966 f i ParserForXMLSchema.obj
 0001:00019972       ??_EParserForXMLSchema@xercesc_3_1@@UAEPAXI@Z 1201a972 f i ParserForXMLSchema.obj
 0001:000199c3       ?setString@StringToken@xercesc_3_1@@QAEXQB_W@Z 1201a9c3 f i ParserForXMLSchema.obj
 0001:000199ed       ?size@UnionToken@xercesc_3_1@@UBEKXZ 1201a9ed f i ParserForXMLSchema.obj
 0001:000199f9       ?getChild@UnionToken@xercesc_3_1@@UBEPAVToken@2@K@Z 1201a9f9 f i ParserForXMLSchema.obj
 0001:00019a18       ??0ParseException@xercesc_3_1@@QAE@QBD_KW4Codes@XMLExcepts@1@PAVMemoryManager@1@@Z 1201aa18 f i ParserForXMLSchema.obj
 0001:00019a58       ??0ParseException@xercesc_3_1@@QAE@ABV01@@Z 1201aa58 f i ParserForXMLSchema.obj
 0001:00019a73       ??0ParseException@xercesc_3_1@@QAE@QBD_KW4Codes@XMLExcepts@1@QB_W333PAVMemoryManager@1@@Z 1201aa73 f i ParserForXMLSchema.obj
 0001:00019abf       ??0ParseException@xercesc_3_1@@QAE@QBD_KW4Codes@XMLExcepts@1@0000PAVMemoryManager@1@@Z 1201aabf f i ParserForXMLSchema.obj
 0001:00019b0b       ??1ParseException@xercesc_3_1@@UAE@XZ 1201ab0b f i ParserForXMLSchema.obj
 0001:00019b16       ?duplicate@ParseException@xercesc_3_1@@UBEPAVXMLException@2@XZ 1201ab16 f i ParserForXMLSchema.obj
 0001:00019b57       ?getType@ParseException@xercesc_3_1@@UBEPB_WXZ 1201ab57 f i ParserForXMLSchema.obj
 0001:00019b5d       ??_EParseException@xercesc_3_1@@UAEPAXI@Z 1201ab5d f i ParserForXMLSchema.obj
 0001:00019bae       ??0ParserForXMLSchema@xercesc_3_1@@QAE@QAVMemoryManager@1@@Z 1201abae f   ParserForXMLSchema.obj
 0001:00019bc9       ??1ParserForXMLSchema@xercesc_3_1@@UAE@XZ 1201abc9 f   ParserForXMLSchema.obj
 0001:00019bd4       ?processCaret@ParserForXMLSchema@xercesc_3_1@@MAEPAVToken@2@XZ 1201abd4 f   ParserForXMLSchema.obj
 0001:00019bea       ?processDollar@ParserForXMLSchema@xercesc_3_1@@MAEPAVToken@2@XZ 1201abea f   ParserForXMLSchema.obj
 0001:00019c00       ?processPlus@ParserForXMLSchema@xercesc_3_1@@MAEPAVToken@2@QAV32@@Z 1201ac00 f   ParserForXMLSchema.obj
 0001:00019c2a       ?processStar@ParserForXMLSchema@xercesc_3_1@@MAEPAVToken@2@QAV32@@Z 1201ac2a f   ParserForXMLSchema.obj
 0001:00019c47       ?processQuestion@ParserForXMLSchema@xercesc_3_1@@MAEPAVToken@2@QAV32@@Z 1201ac47 f   ParserForXMLSchema.obj
 0001:00019cc3       ?processParen@ParserForXMLSchema@xercesc_3_1@@MAEPAVToken@2@XZ 1201acc3 f   ParserForXMLSchema.obj
 0001:00019d28       ?processBackReference@ParserForXMLSchema@xercesc_3_1@@MAEPAVToken@2@XZ 1201ad28 f   ParserForXMLSchema.obj
 0001:00019d56       ?decodeEscaped@ParserForXMLSchema@xercesc_3_1@@MAEHXZ 1201ad56 f   ParserForXMLSchema.obj
 0001:00019e8d       ??0RangeFactory@xercesc_3_1@@IAE@XZ 1201ae8d f   RangeFactory.obj
 0001:00019e9c       ??_ERangeToken@xercesc_3_1@@UAEPAXI@Z 1201ae9c f i RangeToken.obj
 0001:00019ee7       ??0RangeToken@xercesc_3_1@@QAE@W4tokType@Token@1@QAVMemoryManager@1@@Z 1201aee7 f   RangeToken.obj
 0001:00019f21       ??1RangeToken@xercesc_3_1@@UAE@XZ 1201af21 f   RangeToken.obj
 0001:00019f6e       ?getCaseInsensitiveToken@RangeToken@xercesc_3_1@@QAEPAV12@QAVTokenFactory@2@@Z 1201af6e f   RangeToken.obj
 0001:0001a07f       ?setRangeValues@RangeToken@xercesc_3_1@@QAEXQAHI@Z 1201b07f f   RangeToken.obj
 0001:0001a0c6       ?addRange@RangeToken@xercesc_3_1@@UAEXHH@Z 1201b0c6 f   RangeToken.obj
 0001:0001a210       ?sortRanges@RangeToken@xercesc_3_1@@UAEXXZ 1201b210 f   RangeToken.obj
 0001:0001a293       ?compactRanges@RangeToken@xercesc_3_1@@UAEXXZ 1201b293 f   RangeToken.obj
 0001:0001a331       ?mergeRanges@RangeToken@xercesc_3_1@@UAEXQBVToken@2@@Z 1201b331 f   RangeToken.obj
 0001:0001a4ee       ?subtractRanges@RangeToken@xercesc_3_1@@UAEXQAV12@@Z 1201b4ee f   RangeToken.obj
 0001:0001a678       ?intersectRanges@RangeToken@xercesc_3_1@@UAEXQAV12@@Z 1201b678 f   RangeToken.obj
 0001:0001a7b7       ?complementRanges@RangeToken@xercesc_3_1@@SAPAV12@QAV12@QAVTokenFactory@2@QAVMemoryManager@2@@Z 1201b7b7 f   RangeToken.obj
 0001:0001a886       ?match@RangeToken@xercesc_3_1@@QAE_NH@Z 1201b886 f   RangeToken.obj
 0001:0001a955       ?expand@RangeToken@xercesc_3_1@@AAEXI@Z 1201b955 f   RangeToken.obj
 0001:0001a9c5       ?doCreateMap@RangeToken@xercesc_3_1@@AAEXXZ 1201b9c5 f   RangeToken.obj
 0001:0001aa5c       ?initializeRangeTokenMap@XMLInitializer@xercesc_3_1@@CAXXZ 1201ba5c f   RangeTokenMap.obj
 0001:0001aaa6       ?terminateRangeTokenMap@XMLInitializer@xercesc_3_1@@CAXXZ 1201baa6 f   RangeTokenMap.obj
 0001:0001aac8       ??0RangeTokenElemMap@xercesc_3_1@@QAE@I@Z 1201bac8 f   RangeTokenMap.obj
 0001:0001aade       ??0RangeTokenMap@xercesc_3_1@@IAE@PAVMemoryManager@1@@Z 1201bade f   RangeTokenMap.obj
 0001:0001ac3d       ??1RangeTokenMap@xercesc_3_1@@IAE@XZ 1201bc3d f   RangeTokenMap.obj
 0001:0001ac69       ?getRange@RangeTokenMap@xercesc_3_1@@IAEPAVRangeToken@2@QB_W_N@Z 1201bc69 f   RangeTokenMap.obj
 0001:0001ad4c       ?addCategory@RangeTokenMap@xercesc_3_1@@QAEXQB_W@Z 1201bd4c f   RangeTokenMap.obj
 0001:0001ad58       ?addRangeMap@RangeTokenMap@xercesc_3_1@@QAEXQB_WQAVRangeFactory@2@@Z 1201bd58 f   RangeTokenMap.obj
 0001:0001ad6f       ?addKeywordMap@RangeTokenMap@xercesc_3_1@@QAEXQB_W0@Z 1201bd6f f   RangeTokenMap.obj
 0001:0001ae2b       ?setRangeToken@RangeTokenMap@xercesc_3_1@@QAEXQB_WQAVRangeToken@2@_N@Z 1201be2b f   RangeTokenMap.obj
 0001:0001aec2       ?initializeRegistry@RangeTokenMap@xercesc_3_1@@AAEXXZ 1201bec2 f   RangeTokenMap.obj
 0001:0001afda       ?buildTokenRanges@RangeTokenMap@xercesc_3_1@@AAEXXZ 1201bfda f   RangeTokenMap.obj
 0001:0001b068       ?instance@RangeTokenMap@xercesc_3_1@@SAPAV12@XZ 1201c068 f   RangeTokenMap.obj
 0001:0001b06e       ?cleanUp@RangeTokenMap@xercesc_3_1@@AAEXXZ 1201c06e f   RangeTokenMap.obj
 0001:0001b0bd       ?containsKey@?$RefHashTableOf@VXercesGroupInfo@xercesc_3_1@@UStringHasher@2@@xercesc_3_1@@QBE_NQBX@Z 1201c0bd f i TraverseSchema.obj
 0001:0001b0bd       ?containsKey@?$RefHashTableOf@VKVStringPair@xercesc_3_1@@UStringHasher@2@@xercesc_3_1@@QBE_NQBX@Z 1201c0bd f i TraverseSchema.obj
 0001:0001b0bd       ?containsKey@?$RefHashTableOf@VDatatypeValidator@xercesc_3_1@@UStringHasher@2@@xercesc_3_1@@QBE_NQBX@Z 1201c0bd f i XMLGrammarPoolImpl.obj
 0001:0001b0bd       ?containsKey@?$RefHashTableOf@VXMLAttDef@xercesc_3_1@@UStringHasher@2@@xercesc_3_1@@QBE_NQBX@Z 1201c0bd f i TraverseSchema.obj
 0001:0001b0bd       ?containsKey@?$RefHashTableOf@VGrammar@xercesc_3_1@@UStringHasher@2@@xercesc_3_1@@QBE_NQBX@Z 1201c0bd f i XMLGrammarPoolImpl.obj
 0001:0001b0bd       ?containsKey@?$RefHashTableOf@VRangeTokenElemMap@xercesc_3_1@@UStringHasher@2@@xercesc_3_1@@QBE_NQBX@Z 1201c0bd f i RangeTokenMap.obj
 0001:0001b0bd       ?containsKey@?$RefHashTableOf@VXercesAttGroupInfo@xercesc_3_1@@UStringHasher@2@@xercesc_3_1@@QBE_NQBX@Z 1201c0bd f i TraverseSchema.obj
 0001:0001b0fc       ?put@?$RefHashTableOf@VRangeTokenElemMap@xercesc_3_1@@UStringHasher@2@@xercesc_3_1@@QAEXPAXQAVRangeTokenElemMap@2@@Z 1201c0fc f i RangeTokenMap.obj
 0001:0001b17c       ?isEOLChar@RegxUtil@xercesc_3_1@@SA_N_W@Z 1201c17c f i RegularExpression.obj
 0001:0001b1a8       ?composeFromSurrogate@RegxUtil@xercesc_3_1@@SAH_W0@Z 1201c1a8 f i RegularExpression.obj
 0001:0001b1bf       ?isLowSurrogate@RegxUtil@xercesc_3_1@@SA_N_W@Z 1201c1bf f i RegularExpression.obj
 0001:0001b1d9       ?isHighSurrogate@RegxUtil@xercesc_3_1@@SA_N_W@Z 1201c1d9 f i RegularExpression.obj
 0001:0001b1f3       ?decomposeToSurrogates@RegxUtil@xercesc_3_1@@SAXHAA_W0@Z 1201c1f3 f i RegularExpression.obj
 0001:0001b21c       ?isWordChar@RegxUtil@xercesc_3_1@@SA_N_W@Z 1201c21c f i RegularExpression.obj
 0001:0001b255       ??_FContext@RegularExpression@xercesc_3_1@@QAEXXZ 1201c255 f i RegularExpression.obj
 0001:0001b261       ??_ERegularExpression@xercesc_3_1@@UAEPAXI@Z 1201c261 f i RegularExpression.obj
 0001:0001b2ac       ?staticCleanup@RegularExpression@xercesc_3_1@@SAXXZ 1201c2ac f i RegularExpression.obj
 0001:0001b2ac       ?terminateRegularExpression@XMLInitializer@xercesc_3_1@@CAXXZ 1201c2ac f i RegularExpression.obj
 0001:0001b2b4       ?cleanUp@RegularExpression@xercesc_3_1@@IAEXXZ 1201c2b4 f i RegularExpression.obj
 0001:0001b2fb       ?isSet@RegularExpression@xercesc_3_1@@SA_NHH@Z 1201c2fb f i RegularExpression.obj
 0001:0001b30e       ?compileUnion@RegularExpression@xercesc_3_1@@IAEPAVOp@2@QBVToken@2@QAV32@_N@Z 1201c30e f i RegularExpression.obj
 0001:0001b374       ?compileParenthesis@RegularExpression@xercesc_3_1@@IAEPAVOp@2@QBVToken@2@QAV32@_N@Z 1201c374 f i RegularExpression.obj
 0001:0001b40d       ?compileConcat@RegularExpression@xercesc_3_1@@IAEPAVOp@2@QBVToken@2@QAV32@_N@Z 1201c40d f i RegularExpression.obj
 0001:0001b47f       ?compileClosure@RegularExpression@xercesc_3_1@@IAEPAVOp@2@QBVToken@2@QAV32@_NW4tokType@42@@Z 1201c47f f i RegularExpression.obj
 0001:0001b5c3       ?matchIgnoreCase@RegularExpression@xercesc_3_1@@IBE_NHH@Z 1201c5c3 f   RegularExpression.obj
 0001:0001b65d       ??0Context@RegularExpression@xercesc_3_1@@QAE@QAVMemoryManager@2@@Z 1201c65d f   RegularExpression.obj
 0001:0001b68b       ??0Context@RegularExpression@xercesc_3_1@@QAE@PAV012@@Z 1201c68b f   RegularExpression.obj
 0001:0001b741       ??4Context@RegularExpression@xercesc_3_1@@QAEAAV012@ABV012@@Z 1201c741 f   RegularExpression.obj
 0001:0001b878       ??1Context@RegularExpression@xercesc_3_1@@QAE@XZ 1201c878 f   RegularExpression.obj
 0001:0001b89f       ?reset@Context@RegularExpression@xercesc_3_1@@QAEXQB_WKKKHI@Z 1201c89f f   RegularExpression.obj
 0001:0001b924       ?nextCh@Context@RegularExpression@xercesc_3_1@@QAE_NAAHAAK@Z 1201c924 f   RegularExpression.obj
 0001:0001b9a3       ??0RegularExpression@xercesc_3_1@@QAE@QBDQAVMemoryManager@1@@Z 1201c9a3 f   RegularExpression.obj
 0001:0001ba60       ??0RegularExpression@xercesc_3_1@@QAE@QBD0QAVMemoryManager@1@@Z 1201ca60 f   RegularExpression.obj
 0001:0001bb43       ??0RegularExpression@xercesc_3_1@@QAE@QB_WQAVMemoryManager@1@@Z 1201cb43 f   RegularExpression.obj
 0001:0001bbde       ??0RegularExpression@xercesc_3_1@@QAE@QB_W0QAVMemoryManager@1@@Z 1201cbde f   RegularExpression.obj
 0001:0001bc7b       ??1RegularExpression@xercesc_3_1@@UAE@XZ 1201cc7b f   RegularExpression.obj
 0001:0001bcad       ?getRegexParser@RegularExpression@xercesc_3_1@@MAEPAVRegxParser@2@HQAVMemoryManager@2@@Z 1201ccad f   RegularExpression.obj
 0001:0001bceb       ?setPattern@RegularExpression@xercesc_3_1@@IAEXQB_W0@Z 1201cceb f   RegularExpression.obj
 0001:0001bd9f       ?matches@RegularExpression@xercesc_3_1@@QBE_NQBDQAVMemoryManager@2@@Z 1201cd9f f   RegularExpression.obj
 0001:0001bdf5       ?matches@RegularExpression@xercesc_3_1@@QBE_NQBDKKQAVMemoryManager@2@@Z 1201cdf5 f   RegularExpression.obj
 0001:0001be44       ?matches@RegularExpression@xercesc_3_1@@QBE_NQBDQAVMatch@2@QAVMemoryManager@2@@Z 1201ce44 f   RegularExpression.obj
 0001:0001be9a       ?matches@RegularExpression@xercesc_3_1@@QBE_NQBDKKQAVMatch@2@QAVMemoryManager@2@@Z 1201ce9a f   RegularExpression.obj
 0001:0001beea       ?matches@RegularExpression@xercesc_3_1@@QBE_NQB_WQAVMemoryManager@2@@Z 1201ceea f   RegularExpression.obj
 0001:0001bf10       ?matches@RegularExpression@xercesc_3_1@@QBE_NQB_WKKQAVMemoryManager@2@@Z 1201cf10 f   RegularExpression.obj
 0001:0001bf2a       ?matches@RegularExpression@xercesc_3_1@@QBE_NQB_WQAVMatch@2@QAVMemoryManager@2@@Z 1201cf2a f   RegularExpression.obj
 0001:0001bf51       ?matches@RegularExpression@xercesc_3_1@@QBE_NQB_WKKQAVMatch@2@QAVMemoryManager@2@@Z 1201cf51 f   RegularExpression.obj
 0001:0001c26e       ?tokenize@RegularExpression@xercesc_3_1@@QBEPAV?$RefArrayVectorOf@_W@2@QBDQAVMemoryManager@2@@Z 1201d26e f   RegularExpression.obj
 0001:0001c2c1       ?tokenize@RegularExpression@xercesc_3_1@@QBEPAV?$RefArrayVectorOf@_W@2@QBDKKQAVMemoryManager@2@@Z 1201d2c1 f   RegularExpression.obj
 0001:0001c30e       ?tokenize@RegularExpression@xercesc_3_1@@QBEPAV?$RefArrayVectorOf@_W@2@QB_WQAVMemoryManager@2@@Z 1201d30e f   RegularExpression.obj
 0001:0001c332       ?tokenize@RegularExpression@xercesc_3_1@@QBEPAV?$RefArrayVectorOf@_W@2@QB_WKKQAVMemoryManager@2@@Z 1201d332 f   RegularExpression.obj
 0001:0001c4ae       ?allMatches@RegularExpression@xercesc_3_1@@QBEXQB_WKKPAV?$RefVectorOf@VMatch@xercesc_3_1@@@2@QAVMemoryManager@2@@Z 1201d4ae f   RegularExpression.obj
 0001:0001c5a3       ?replace@RegularExpression@xercesc_3_1@@QBEPA_WQBD0QAVMemoryManager@2@@Z 1201d5a3 f   RegularExpression.obj
 0001:0001c654       ?replace@RegularExpression@xercesc_3_1@@QBEPA_WQBD0KKQAVMemoryManager@2@@Z 1201d654 f   RegularExpression.obj
 0001:0001c6fb       ?replace@RegularExpression@xercesc_3_1@@QBEPA_WQB_W0QAVMemoryManager@2@@Z 1201d6fb f   RegularExpression.obj
 0001:0001c722       ?replace@RegularExpression@xercesc_3_1@@QBEPA_WQB_W0KKQAVMemoryManager@2@@Z 1201d722 f   RegularExpression.obj
 0001:0001c882       ?subInExp@RegularExpression@xercesc_3_1@@IBEXQB_W0PBVMatch@2@AAVXMLBuffer@2@QAVMemoryManager@2@@Z 1201d882 f   RegularExpression.obj
 0001:0001c9aa       ?initializeRegularExpression@XMLInitializer@xercesc_3_1@@CAXXZ 1201d9aa f   RegularExpression.obj
 0001:0001c9b7       ?staticInitialize@RegularExpression@xercesc_3_1@@SAXPAVMemoryManager@2@@Z 1201d9b7 f   RegularExpression.obj
 0001:0001ca29       ?getOptionValue@RegularExpression@xercesc_3_1@@SAH_W@Z 1201da29 f   RegularExpression.obj
 0001:0001ca7a       ?match@RegularExpression@xercesc_3_1@@IBEHQAVContext@12@QBVOp@2@K@Z 1201da7a f   RegularExpression.obj
 0001:0001cf16       ?matchChar@RegularExpression@xercesc_3_1@@IBE_NQAVContext@12@HAAK_N@Z 1201df16 f   RegularExpression.obj
 0001:0001cf6c       ?matchDot@RegularExpression@xercesc_3_1@@IBE_NQAVContext@12@AAK@Z 1201df6c f   RegularExpression.obj
 0001:0001cfb3       ?matchRange@RegularExpression@xercesc_3_1@@IBE_NQAVContext@12@QBVOp@2@AAK_N@Z 1201dfb3 f   RegularExpression.obj
 0001:0001d00d       ?matchAnchor@RegularExpression@xercesc_3_1@@IBE_NQAVContext@12@HK@Z 1201e00d f   RegularExpression.obj
 0001:0001d0bd       ?matchBackReference@RegularExpression@xercesc_3_1@@IBE_NQAVContext@12@HAAK_N@Z 1201e0bd f   RegularExpression.obj
 0001:0001d17f       ?matchString@RegularExpression@xercesc_3_1@@IBE_NQAVContext@12@QB_WAAK_N@Z 1201e17f f   RegularExpression.obj
 0001:0001d1cf       ?matchCapture@RegularExpression@xercesc_3_1@@IBEHQAVContext@12@QBVOp@2@K@Z 1201e1cf f   RegularExpression.obj
 0001:0001d276       ?matchUnion@RegularExpression@xercesc_3_1@@IBEHQAVContext@12@QBVOp@2@K@Z 1201e276 f   RegularExpression.obj
 0001:0001d3ae       ?parseOptions@RegularExpression@xercesc_3_1@@IAEHQB_W@Z 1201e3ae f   RegularExpression.obj
 0001:0001d445       ?compile@RegularExpression@xercesc_3_1@@IAEXQBVToken@2@@Z 1201e445 f   RegularExpression.obj
 0001:0001d467       ?compile@RegularExpression@xercesc_3_1@@IAEPAVOp@2@QBVToken@2@QAV32@_N@Z 1201e467 f   RegularExpression.obj
 0001:0001d597       ?prepare@RegularExpression@xercesc_3_1@@IAEXXZ 1201e597 f   RegularExpression.obj
 0001:0001d7b3       ?doTokenOverlap@RegularExpression@xercesc_3_1@@IAE_NPBVOp@2@PAVToken@2@@Z 1201e7b3 f   RegularExpression.obj
 0001:0001d8af       ??1?$BaseRefVectorOf@VMatch@xercesc_3_1@@@xercesc_3_1@@UAE@XZ 1201e8af f i RegularExpression.obj
 0001:0001d8b6       ??0?$RefVectorOf@VMatch@xercesc_3_1@@@xercesc_3_1@@QAE@K_NQAVMemoryManager@1@@Z 1201e8b6 f i RegularExpression.obj
 0001:0001d8f6       ??1?$Janitor@VXMLSchemaDescription@xercesc_3_1@@@xercesc_3_1@@QAE@XZ 1201e8f6 f i TraverseSchema.obj
 0001:0001d8f6       ??1?$Janitor@VBinInputStream@xercesc_3_1@@@xercesc_3_1@@QAE@XZ 1201e8f6 f i ReaderMgr.obj
 0001:0001d8f6       ??1?$Janitor@VXMLGrammarDescription@xercesc_3_1@@@xercesc_3_1@@QAE@XZ 1201e8f6 f i GrammarResolver.obj
 0001:0001d8f6       ??1?$Janitor@VSchemaAttDef@xercesc_3_1@@@xercesc_3_1@@QAE@XZ 1201e8f6 f i TraverseSchema.obj
 0001:0001d8f6       ??1?$Janitor@VInputSource@xercesc_3_1@@@xercesc_3_1@@QAE@XZ 1201e8f6 f i DGXMLScanner.obj
 0001:0001d8f6       ??1?$Janitor@VXMLTranscoder@xercesc_3_1@@@xercesc_3_1@@QAE@XZ 1201e8f6 f i TransService.obj
 0001:0001d8f6       ??1?$Janitor@VRegxParser@xercesc_3_1@@@xercesc_3_1@@QAE@XZ 1201e8f6 f i RegularExpression.obj
 0001:0001d8f6       ??1?$Janitor@VXercesGroupInfo@xercesc_3_1@@@xercesc_3_1@@QAE@XZ 1201e8f6 f i TraverseSchema.obj
 0001:0001d8f6       ??1?$Janitor@V?$RefVectorOf@VXercesStep@xercesc_3_1@@@xercesc_3_1@@@xercesc_3_1@@QAE@XZ 1201e8f6 f i XercesXPath.obj
 0001:0001d8f6       ??1?$Janitor@VIC_Key@xercesc_3_1@@@xercesc_3_1@@QAE@XZ 1201e8f6 f i TraverseSchema.obj
 0001:0001d8f6       ??1?$Janitor@VIC_Unique@xercesc_3_1@@@xercesc_3_1@@QAE@XZ 1201e8f6 f i TraverseSchema.obj
 0001:0001d8f6       ??1?$Janitor@VDTDElementDecl@xercesc_3_1@@@xercesc_3_1@@QAE@XZ 1201e8f6 f i DGXMLScanner.obj
 0001:0001d8f6       ??1?$Janitor@V?$RefVectorOf@VMatch@xercesc_3_1@@@xercesc_3_1@@@xercesc_3_1@@QAE@XZ 1201e8f6 f i RegularExpression.obj
 0001:0001d8f6       ??1?$Janitor@VMemBufInputSource@xercesc_3_1@@@xercesc_3_1@@QAE@XZ 1201e8f6 f i TraverseSchema.obj
 0001:0001d8f6       ??1?$Janitor@V?$RefVectorOf@VDatatypeValidator@xercesc_3_1@@@xercesc_3_1@@@xercesc_3_1@@QAE@XZ 1201e8f6 f i TraverseSchema.obj
 0001:0001d8f6       ??1?$Janitor@VIC_KeyRef@xercesc_3_1@@@xercesc_3_1@@QAE@XZ 1201e8f6 f i TraverseSchema.obj
 0001:0001d8f6       ??1?$Janitor@VXMLFormatTarget@xercesc_3_1@@@xercesc_3_1@@QAE@XZ 1201e8f6 f i DOMLSSerializerImpl.obj
 0001:0001d8f6       ??1?$Janitor@VXercesAttGroupInfo@xercesc_3_1@@@xercesc_3_1@@QAE@XZ 1201e8f6 f i TraverseSchema.obj
 0001:0001d8f6       ??1?$Janitor@VXMLDateTime@xercesc_3_1@@@xercesc_3_1@@QAE@XZ 1201e8f6 f i DateDatatypeValidator.obj
 0001:0001d8f6       ??1?$Janitor@VDTDEntityDecl@xercesc_3_1@@@xercesc_3_1@@QAE@XZ 1201e8f6 f i DGXMLScanner.obj
 0001:0001d8f6       ??1?$Janitor@V?$RefArrayVectorOf@_W@xercesc_3_1@@@xercesc_3_1@@QAE@XZ 1201e8f6 f i DatatypeValidatorFactory.obj
 0001:0001d8f6       ??1?$Janitor@VSchemaElementDecl@xercesc_3_1@@@xercesc_3_1@@QAE@XZ 1201e8f6 f i TraverseSchema.obj
 0001:0001d8f6       ??1?$Janitor@V?$BaseRefVectorOf@_W@xercesc_3_1@@@xercesc_3_1@@QAE@XZ 1201e8f6 f i SGXMLScanner.obj
 0001:0001d8f6       ??1?$Janitor@VXSAXMLScanner@xercesc_3_1@@@xercesc_3_1@@QAE@XZ 1201e8f6 f i TraverseSchema.obj
 0001:0001d906       ??1?$Janitor@V?$ValueStackOf@URE_RuntimeContext@xercesc_3_1@@@xercesc_3_1@@@xercesc_3_1@@QAE@XZ 1201e906 f i RegularExpression.obj
 0001:0001d90e       ?reset@?$Janitor@V?$ValueStackOf@URE_RuntimeContext@xercesc_3_1@@@xercesc_3_1@@@xercesc_3_1@@QAEXPAV?$ValueStackOf@URE_RuntimeContext@xercesc_3_1@@@2@@Z 1201e90e f i RegularExpression.obj
 0001:0001d934       ?push@?$ValueStackOf@URE_RuntimeContext@xercesc_3_1@@@xercesc_3_1@@QAEXABURE_RuntimeContext@2@@Z 1201e934 f i RegularExpression.obj
 0001:0001d95d       ??_G?$BaseRefVectorOf@VMatch@xercesc_3_1@@@xercesc_3_1@@UAEPAXI@Z 1201e95d f i RegularExpression.obj
 0001:0001d95d       ??_E?$BaseRefVectorOf@VMatch@xercesc_3_1@@@xercesc_3_1@@UAEPAXI@Z 1201e95d f i  CIL library: CIL module
 0001:0001d97d       ??_G?$RefVectorOf@VMatch@xercesc_3_1@@@xercesc_3_1@@UAEPAXI@Z 1201e97d f i RegularExpression.obj
 0001:0001d97d       ??_E?$RefVectorOf@VMatch@xercesc_3_1@@@xercesc_3_1@@UAEPAXI@Z 1201e97d f i  CIL library: CIL module
 0001:0001d9e7       ?ensureExtraCapacity@?$ValueVectorOf@URE_RuntimeContext@xercesc_3_1@@@xercesc_3_1@@QAEXK@Z 1201e9e7 f i RegularExpression.obj
 0001:0001da5b       ??_ERegxParser@xercesc_3_1@@UAEPAXI@Z 1201ea5b f i RegxParser.obj
 0001:0001daa6       ??0RegxParser@xercesc_3_1@@QAE@QAVMemoryManager@1@@Z 1201eaa6 f   RegxParser.obj
 0001:0001dae1       ??1RegxParser@xercesc_3_1@@UAE@XZ 1201eae1 f   RegxParser.obj
 0001:0001db04       ?parse@RegxParser@xercesc_3_1@@QAEPAVToken@2@QB_WH@Z 1201eb04 f   RegxParser.obj
 0001:0001dcd6       ?processNext@RegxParser@xercesc_3_1@@IAEXXZ 1201ecd6 f   RegxParser.obj
 0001:0001dee0       ?parseRegx@RegxParser@xercesc_3_1@@IAEPAVToken@2@_N@Z 1201eee0 f   RegxParser.obj
 0001:0001df4e       ?parseTerm@RegxParser@xercesc_3_1@@AAEPAVToken@2@_N@Z 1201ef4e f   RegxParser.obj
 0001:0001e01a       ?processCaret@RegxParser@xercesc_3_1@@MAEPAVToken@2@XZ 1201f01a f   RegxParser.obj
 0001:0001e02b       ?processDollar@RegxParser@xercesc_3_1@@MAEPAVToken@2@XZ 1201f02b f   RegxParser.obj
 0001:0001e03c       ?processStar@RegxParser@xercesc_3_1@@MAEPAVToken@2@QAV32@@Z 1201f03c f   RegxParser.obj
 0001:0001e070       ?processPlus@RegxParser@xercesc_3_1@@MAEPAVToken@2@QAV32@@Z 1201f070 f   RegxParser.obj
 0001:0001e0b0       ?processQuestion@RegxParser@xercesc_3_1@@MAEPAVToken@2@QAV32@@Z 1201f0b0 f   RegxParser.obj
 0001:0001e1ad       ?processParen@RegxParser@xercesc_3_1@@MAEPAVToken@2@XZ 1201f1ad f   RegxParser.obj
 0001:0001e21b       ?processBackReference@RegxParser@xercesc_3_1@@MAEPAVToken@2@XZ 1201f21b f   RegxParser.obj
 0001:0001e2d7       ?parseFactor@RegxParser@xercesc_3_1@@AAEPAVToken@2@XZ 1201f2d7 f   RegxParser.obj
 0001:0001e68d       ?parseAtom@RegxParser@xercesc_3_1@@AAEPAVToken@2@XZ 1201f68d f   RegxParser.obj
 0001:0001e8b4       ?processBacksolidus_pP@RegxParser@xercesc_3_1@@IAEPAVRangeToken@2@H@Z 1201f8b4 f   RegxParser.obj
 0001:0001e9df       ?parseCharacterClass@RegxParser@xercesc_3_1@@IAEPAVRangeToken@2@_N@Z 1201f9df f   RegxParser.obj
 0001:0001ee28       ?getTokenForShorthand@RegxParser@xercesc_3_1@@IAEPAVRangeToken@2@H@Z 1201fe28 f   RegxParser.obj
 0001:0001eeb4       ?decodeEscaped@RegxParser@xercesc_3_1@@MAEHXZ 1201feb4 f   RegxParser.obj
 0001:0001eff8       ?checkQuestion@RegxParser@xercesc_3_1@@MAE_NK@Z 1201fff8 f   RegxParser.obj
 0001:0001f018       ??1?$BaseRefVectorOf@VReferencePosition@RegxParser@xercesc_3_1@@@xercesc_3_1@@UAE@XZ 12020018 f i RegxParser.obj
 0001:0001f01f       ?setElementAt@?$BaseRefVectorOf@VReferencePosition@RegxParser@xercesc_3_1@@@xercesc_3_1@@UAEXQAVReferencePosition@RegxParser@2@K@Z 1202001f f i RegxParser.obj
 0001:0001f076       ?removeAllElements@?$BaseRefVectorOf@VReferencePosition@RegxParser@xercesc_3_1@@@xercesc_3_1@@UAEXXZ 12020076 f i RegxParser.obj
 0001:0001f0a7       ?removeElementAt@?$BaseRefVectorOf@VReferencePosition@RegxParser@xercesc_3_1@@@xercesc_3_1@@UAEXK@Z 120200a7 f i RegxParser.obj
 0001:0001f131       ?removeLastElement@?$BaseRefVectorOf@VReferencePosition@RegxParser@xercesc_3_1@@@xercesc_3_1@@UAEXXZ 12020131 f i RegxParser.obj
 0001:0001f14f       ?cleanup@?$BaseRefVectorOf@VReferencePosition@RegxParser@xercesc_3_1@@@xercesc_3_1@@UAEXXZ 1202014f f i RegxParser.obj
 0001:0001f180       ??0?$RefVectorOf@VReferencePosition@RegxParser@xercesc_3_1@@@xercesc_3_1@@QAE@K_NQAVMemoryManager@1@@Z 12020180 f i RegxParser.obj
 0001:0001f1c0       ??_E?$BaseRefVectorOf@VReferencePosition@RegxParser@xercesc_3_1@@@xercesc_3_1@@UAEPAXI@Z 120201c0 f i  CIL library: CIL module
 0001:0001f1c0       ??_G?$BaseRefVectorOf@VReferencePosition@RegxParser@xercesc_3_1@@@xercesc_3_1@@UAEPAXI@Z 120201c0 f i RegxParser.obj
 0001:0001f1e0       ??_G?$RefVectorOf@VReferencePosition@RegxParser@xercesc_3_1@@@xercesc_3_1@@UAEPAXI@Z 120201e0 f i RegxParser.obj
 0001:0001f1e0       ??_E?$RefVectorOf@VReferencePosition@RegxParser@xercesc_3_1@@@xercesc_3_1@@UAEPAXI@Z 120201e0 f i  CIL library: CIL module
 0001:0001f246       ?decomposeToSurrogates@RegxUtil@xercesc_3_1@@SAPA_WHQAVMemoryManager@2@@Z 12020246 f   RegxUtil.obj
 0001:0001f271       ?stripExtendedComment@RegxUtil@xercesc_3_1@@SAPA_WQB_WQAVMemoryManager@2@@Z 12020271 f   RegxUtil.obj
 0001:0001f342       ??_EStringToken@xercesc_3_1@@UAEPAXI@Z 12020342 f i StringToken.obj
 0001:0001f38d       ??0StringToken@xercesc_3_1@@QAE@W4tokType@Token@1@QB_WHQAVMemoryManager@1@@Z 1202038d f   StringToken.obj
 0001:0001f3d5       ??1StringToken@xercesc_3_1@@UAE@XZ 120203d5 f   StringToken.obj
 0001:0001f407       ??_EToken@xercesc_3_1@@UAEPAXI@Z 12020407 f i Token.obj
 0001:0001f453       ??0Token@xercesc_3_1@@QAE@W4tokType@01@QAVMemoryManager@1@@Z 12020453 f   Token.obj
 0001:0001f46e       ?getMinLength@Token@xercesc_3_1@@QBEKXZ 1202046e f   Token.obj
 0001:0001f592       ?getMaxLength@Token@xercesc_3_1@@QBEHXZ 12020592 f   Token.obj
 0001:0001f6d2       ?analyzeFirstCharacter@Token@xercesc_3_1@@QAE?AW4firstCharacterOptions@12@QAVRangeToken@2@HQAVTokenFactory@2@@Z 120206d2 f   Token.obj
 0001:0001f89e       ?findFixedString@Token@xercesc_3_1@@QAEPAV12@HAAH@Z 1202089e f   Token.obj
 0001:0001f95b       ?isShorterThan@Token@xercesc_3_1@@AAE_NQAV12@@Z 1202095b f   Token.obj
 0001:0001f99f       ??0TokenFactory@xercesc_3_1@@QAE@QAVMemoryManager@1@@Z 1202099f f   TokenFactory.obj
 0001:0001f9f8       ?createToken@TokenFactory@xercesc_3_1@@QAEPAVToken@2@W4tokType@32@@Z 120209f8 f   TokenFactory.obj
 0001:0001fa4d       ?createParenthesis@TokenFactory@xercesc_3_1@@QAEPAVParenToken@2@QAVToken@2@H@Z 12020a4d f   TokenFactory.obj
 0001:0001fa99       ?createClosure@TokenFactory@xercesc_3_1@@QAEPAVClosureToken@2@QAVToken@2@_N@Z 12020a99 f   TokenFactory.obj
 0001:0001fae9       ?createConcat@TokenFactory@xercesc_3_1@@QAEPAVConcatToken@2@QAVToken@2@0@Z 12020ae9 f   TokenFactory.obj
 0001:0001fb26       ?createUnion@TokenFactory@xercesc_3_1@@QAEPAVUnionToken@2@_N@Z 12020b26 f   TokenFactory.obj
 0001:0001fb80       ?createRange@TokenFactory@xercesc_3_1@@QAEPAVRangeToken@2@_N@Z 12020b80 f   TokenFactory.obj
 0001:0001fbca       ?createChar@TokenFactory@xercesc_3_1@@QAEPAVCharToken@2@I_N@Z 12020bca f   TokenFactory.obj
 0001:0001fc23       ?createBackReference@TokenFactory@xercesc_3_1@@QAEPAVStringToken@2@H@Z 12020c23 f   TokenFactory.obj
 0001:0001fc74       ?createString@TokenFactory@xercesc_3_1@@QAEPAVStringToken@2@QB_W@Z 12020c74 f   TokenFactory.obj
 0001:0001fcc5       ?staticGetRange@TokenFactory@xercesc_3_1@@SAPAVRangeToken@2@QB_W_N@Z 12020cc5 f   TokenFactory.obj
 0001:0001fcdb       ?getLineBegin@TokenFactory@xercesc_3_1@@QAEPAVToken@2@XZ 12020cdb f   TokenFactory.obj
 0001:0001fcf5       ?getLineEnd@TokenFactory@xercesc_3_1@@QAEPAVToken@2@XZ 12020cf5 f   TokenFactory.obj
 0001:0001fd0f       ?getDot@TokenFactory@xercesc_3_1@@QAEPAVToken@2@XZ 12020d0f f   TokenFactory.obj
 0001:0001fd27       ??1?$BaseRefVectorOf@VToken@xercesc_3_1@@@xercesc_3_1@@UAE@XZ 12020d27 f i TokenFactory.obj
 0001:0001fd2e       ?removeAllElements@?$BaseRefVectorOf@VXSAttributeUse@xercesc_3_1@@@xercesc_3_1@@UAEXXZ 12020d2e f i XSObjectFactory.obj
 0001:0001fd2e       ?removeAllElements@?$BaseRefVectorOf@VContentSpecNode@xercesc_3_1@@@xercesc_3_1@@UAEXXZ 12020d2e f i XTemplateSerializer.obj
 0001:0001fd2e       ?removeAllElements@?$BaseRefVectorOf@VIC_Field@xercesc_3_1@@@xercesc_3_1@@UAEXXZ 12020d2e f i XMLElementDecl.obj
 0001:0001fd2e       ?removeAllElements@?$BaseRefVectorOf@VOp@xercesc_3_1@@@xercesc_3_1@@UAEXXZ 12020d2e f i Op.obj
 0001:0001fd2e       ?removeAllElements@?$BaseRefVectorOf@VXMLNumber@xercesc_3_1@@@xercesc_3_1@@UAEXXZ 12020d2e f i XTemplateSerializer.obj
 0001:0001fd2e       ?removeAllElements@?$BaseRefVectorOf@VSchemaAttDef@xercesc_3_1@@@xercesc_3_1@@UAEXXZ 12020d2e f i XMLGrammarPoolImpl.obj
 0001:0001fd2e       ?removeAllElements@?$BaseRefVectorOf@VXSParticle@xercesc_3_1@@@xercesc_3_1@@UAEXXZ 12020d2e f i XSObjectFactory.obj
 0001:0001fd2e       ?removeAllElements@?$BaseRefVectorOf@VKVStringPair@xercesc_3_1@@@xercesc_3_1@@UAEXXZ 12020d2e f i IGXMLScanner.obj
 0001:0001fd2e       ?removeAllElements@?$BaseRefVectorOf@VXercesStep@xercesc_3_1@@@xercesc_3_1@@UAEXXZ 12020d2e f i XTemplateSerializer.obj
 0001:0001fd2e       ?removeAllElements@?$BaseRefVectorOf@VSchemaElementDecl@xercesc_3_1@@@xercesc_3_1@@UAEXXZ 12020d2e f i XMLElementDecl.obj
 0001:0001fd2e       ?removeAllElements@?$BaseRefVectorOf@VXSMultiValueFacet@xercesc_3_1@@@xercesc_3_1@@UAEXXZ 12020d2e f i XSObjectFactory.obj
 0001:0001fd2e       ?removeAllElements@?$BaseRefVectorOf@VToken@xercesc_3_1@@@xercesc_3_1@@UAEXXZ 12020d2e f i TokenFactory.obj
 0001:0001fd2e       ?removeAllElements@?$BaseRefVectorOf@VENameMap@xercesc_3_1@@@xercesc_3_1@@UAEXXZ 12020d2e f i TransService.obj
 0001:0001fd2e       ?removeAllElements@?$BaseRefVectorOf@VDOMImplementationSource@xercesc_3_1@@@xercesc_3_1@@UAEXXZ 12020d2e f i DOMImplementationRegistry.obj
 0001:0001fd2e       ?removeAllElements@?$BaseRefVectorOf@VXSAnnotation@xercesc_3_1@@@xercesc_3_1@@UAEXXZ 12020d2e f i XSComplexTypeDefinition.obj
 0001:0001fd2e       ?removeAllElements@?$BaseRefVectorOf@VXSIDCDefinition@xercesc_3_1@@@xercesc_3_1@@UAEXXZ 12020d2e f i XSObjectFactory.obj
 0001:0001fd2e       ?removeAllElements@?$BaseRefVectorOf@VIdentityConstraint@xercesc_3_1@@@xercesc_3_1@@UAEXXZ 12020d2e f i XMLElementDecl.obj
 0001:0001fd2e       ?removeAllElements@?$BaseRefVectorOf@VXMLElementDecl@xercesc_3_1@@@xercesc_3_1@@UAEXXZ 12020d2e f i WFXMLScanner.obj
 0001:0001fd2e       ?removeAllElements@?$BaseRefVectorOf@VDOMImplementation@xercesc_3_1@@@xercesc_3_1@@UAEXXZ 12020d2e f i DOMImplementationListImpl.obj
 0001:0001fd2e       ?removeAllElements@?$BaseRefVectorOf@VDOMDocumentImpl@xercesc_3_1@@@xercesc_3_1@@UAEXXZ 12020d2e f i AbstractDOMParser.obj
 0001:0001fd2e       ?removeAllElements@?$BaseRefVectorOf@VXPathMatcher@xercesc_3_1@@@xercesc_3_1@@UAEXXZ 12020d2e f i XPathMatcherStack.obj
 0001:0001fd2e       ?removeAllElements@?$BaseRefVectorOf@VDatatypeValidator@xercesc_3_1@@@xercesc_3_1@@UAEXXZ 12020d2e f i XTemplateSerializer.obj
 0001:0001fd2e       ?removeAllElements@?$BaseRefVectorOf@VXercesLocationPath@xercesc_3_1@@@xercesc_3_1@@UAEXXZ 12020d2e f i XTemplateSerializer.obj
 0001:0001fd2e       ?removeAllElements@?$BaseRefVectorOf@VMatch@xercesc_3_1@@@xercesc_3_1@@UAEXXZ 12020d2e f i RegularExpression.obj
 0001:0001fd2e       ?removeAllElements@?$BaseRefVectorOf@VXSFacet@xercesc_3_1@@@xercesc_3_1@@UAEXXZ 12020d2e f i XSObjectFactory.obj
 0001:0001fd2e       ?removeAllElements@?$BaseRefVectorOf@VDOMNode@xercesc_3_1@@@xercesc_3_1@@UAEXXZ 12020d2e f i DOMDocumentImpl.obj
 0001:0001fd2e       ?removeAllElements@?$BaseRefVectorOf@VXMLEntityDecl@xercesc_3_1@@@xercesc_3_1@@UAEXXZ 12020d2e f i ReaderMgr.obj
 0001:0001fd2e       ?removeAllElements@?$BaseRefVectorOf@VDOMRangeImpl@xercesc_3_1@@@xercesc_3_1@@UAEXXZ 12020d2e f i DOMDocumentImpl.obj
 0001:0001fd2e       ?removeAllElements@?$BaseRefVectorOf@VDOMNodeIteratorImpl@xercesc_3_1@@@xercesc_3_1@@UAEXXZ 12020d2e f i DOMDocumentImpl.obj
 0001:0001fd2e       ?removeAllElements@?$BaseRefVectorOf@VXSSimpleTypeDefinition@xercesc_3_1@@@xercesc_3_1@@UAEXXZ 12020d2e f i XSObjectFactory.obj
 0001:0001fd2e       ?removeAllElements@?$BaseRefVectorOf@VXSObject@xercesc_3_1@@@xercesc_3_1@@UAEXXZ 12020d2e f i XSModel.obj
 0001:0001fd63       ??0?$RefVectorOf@VToken@xercesc_3_1@@@xercesc_3_1@@QAE@K_NQAVMemoryManager@1@@Z 12020d63 f i TokenFactory.obj
 0001:0001fda3       ??_E?$BaseRefVectorOf@VToken@xercesc_3_1@@@xercesc_3_1@@UAEPAXI@Z 12020da3 f i  CIL library: CIL module
 0001:0001fda3       ??_G?$BaseRefVectorOf@VToken@xercesc_3_1@@@xercesc_3_1@@UAEPAXI@Z 12020da3 f i TokenFactory.obj
 0001:0001fdc3       ??_G?$RefVectorOf@VToken@xercesc_3_1@@@xercesc_3_1@@UAEPAXI@Z 12020dc3 f i TokenFactory.obj
 0001:0001fdc3       ??_E?$RefVectorOf@VToken@xercesc_3_1@@@xercesc_3_1@@UAEPAXI@Z 12020dc3 f i  CIL library: CIL module
 0001:0001fe2d       ??0UnicodeRangeFactory@xercesc_3_1@@QAE@XZ 12020e2d f   UnicodeRangeFactory.obj
 0001:0001fe3c       ??1ASCIIRangeFactory@xercesc_3_1@@UAE@XZ 12020e3c f   ASCIIRangeFactory.obj
 0001:0001fe3c       ??1UnicodeRangeFactory@xercesc_3_1@@UAE@XZ 12020e3c f   UnicodeRangeFactory.obj
 0001:0001fe3c       ??1RangeFactory@xercesc_3_1@@UAE@XZ 12020e3c f   RangeFactory.obj
 0001:0001fe3c       ??1BlockRangeFactory@xercesc_3_1@@UAE@XZ 12020e3c f   BlockRangeFactory.obj
 0001:0001fe3c       ??1XMLRangeFactory@xercesc_3_1@@UAE@XZ 12020e3c f   XMLRangeFactory.obj
 0001:0001fe43       ?buildRanges@UnicodeRangeFactory@xercesc_3_1@@MAEXPAVRangeTokenMap@2@@Z 12020e43 f   UnicodeRangeFactory.obj
 0001:0002014e       ?initializeKeywordMap@UnicodeRangeFactory@xercesc_3_1@@UAEXPAVRangeTokenMap@2@@Z 1202114e f   UnicodeRangeFactory.obj
 0001:000201e2       ?getUniCategory@UnicodeRangeFactory@xercesc_3_1@@SAGG@Z 120211e2 f   UnicodeRangeFactory.obj
 0001:00020258       ??_EUnionToken@xercesc_3_1@@UAEPAXI@Z 12021258 f i UnionToken.obj
 0001:000202a3       ??0UnionToken@xercesc_3_1@@QAE@W4tokType@Token@1@QAVMemoryManager@1@@Z 120212a3 f   UnionToken.obj
 0001:000202c2       ??1UnionToken@xercesc_3_1@@UAE@XZ 120212c2 f   UnionToken.obj
 0001:000202f6       ?addChild@UnionToken@xercesc_3_1@@UAEXQAVToken@2@QAVTokenFactory@2@@Z 120212f6 f   UnionToken.obj
 0001:00020529       ??0XMLRangeFactory@xercesc_3_1@@QAE@XZ 12021529 f   XMLRangeFactory.obj
 0001:00020538       ?buildRanges@XMLRangeFactory@xercesc_3_1@@MAEXPAVRangeTokenMap@2@@Z 12021538 f   XMLRangeFactory.obj
 0001:00020a47       ?initializeKeywordMap@XMLRangeFactory@xercesc_3_1@@UAEXPAVRangeTokenMap@2@@Z 12021a47 f   XMLRangeFactory.obj
 0001:00020aaf       ?getType@XMLUniCharacter@xercesc_3_1@@SAG_W@Z 12021aaf f   XMLUniCharacter.obj
 0001:00020abf       ??_EXMLFileMgr@xercesc_3_1@@UAEPAXI@Z 12021abf f i  CIL library: CIL module
 0001:00020abf       ??_GXMLFileMgr@xercesc_3_1@@UAEPAXI@Z 12021abf f i WindowsFileMgr.obj
 0001:00020abf       ??_GWindowsFileMgr@xercesc_3_1@@UAEPAXI@Z 12021abf f i WindowsFileMgr.obj
 0001:00020abf       ??_EWindowsFileMgr@xercesc_3_1@@UAEPAXI@Z 12021abf f i  CIL library: CIL module
 0001:00020adf       ?fileOpen@WindowsFileMgr@xercesc_3_1@@UAEPAXPB_W_NQAVMemoryManager@2@@Z 12021adf f   WindowsFileMgr.obj
 0001:00020c6e       ?fileOpen@WindowsFileMgr@xercesc_3_1@@UAEPAXPBD_NQAVMemoryManager@2@@Z 12021c6e f   WindowsFileMgr.obj
 0001:00020cb8       ?openStdIn@WindowsFileMgr@xercesc_3_1@@UAEPAXQAVMemoryManager@2@@Z 12021cb8 f   WindowsFileMgr.obj
 0001:00020de8       ?fileClose@WindowsFileMgr@xercesc_3_1@@UAEXPAXQAVMemoryManager@2@@Z 12021de8 f   WindowsFileMgr.obj
 0001:00020e57       ?fileReset@WindowsFileMgr@xercesc_3_1@@UAEXPAXQAVMemoryManager@2@@Z 12021e57 f   WindowsFileMgr.obj
 0001:00020ecc       ?curPos@WindowsFileMgr@xercesc_3_1@@UAE_KPAXQAVMemoryManager@2@@Z 12021ecc f   WindowsFileMgr.obj
 0001:00020f69       ?fileSize@WindowsFileMgr@xercesc_3_1@@UAE_KPAXQAVMemoryManager@2@@Z 12021f69 f   WindowsFileMgr.obj
 0001:00020ffe       ?fileRead@WindowsFileMgr@xercesc_3_1@@UAEKPAXKPAEQAVMemoryManager@2@@Z 12021ffe f   WindowsFileMgr.obj
 0001:00021093       ?fileWrite@WindowsFileMgr@xercesc_3_1@@UAEXPAXKPBEQAVMemoryManager@2@@Z 12022093 f   WindowsFileMgr.obj
 0001:0002112c       ?getFullPath@WindowsFileMgr@xercesc_3_1@@UAEPA_WQB_WQAVMemoryManager@2@@Z 1202212c f   WindowsFileMgr.obj
 0001:000211e7       ?getCurrentDirectory@WindowsFileMgr@xercesc_3_1@@UAEPA_WQAVMemoryManager@2@@Z 120221e7 f   WindowsFileMgr.obj
 0001:00021261       ?isRelative@WindowsFileMgr@xercesc_3_1@@UAE_NQB_WQAVMemoryManager@2@@Z 12022261 f   WindowsFileMgr.obj
 0001:000212b1       ??_EWindowsMutexMgr@xercesc_3_1@@UAEPAXI@Z 120222b1 f i  CIL library: CIL module
 0001:000212b1       ??_EXMLMutexMgr@xercesc_3_1@@UAEPAXI@Z 120222b1 f i  CIL library: CIL module
 0001:000212b1       ??_GWindowsMutexMgr@xercesc_3_1@@UAEPAXI@Z 120222b1 f i WindowsMutexMgr.obj
 0001:000212b1       ??_GXMLMutexMgr@xercesc_3_1@@UAEPAXI@Z 120222b1 f i WindowsMutexMgr.obj
 0001:000212d1       ?create@WindowsMutexMgr@xercesc_3_1@@UAEPAXQAVMemoryManager@2@@Z 120222d1 f   WindowsMutexMgr.obj
 0001:000212ef       ?destroy@WindowsMutexMgr@xercesc_3_1@@UAEXPAXQAVMemoryManager@2@@Z 120222ef f   WindowsMutexMgr.obj
 0001:0002130a       ?lock@WindowsMutexMgr@xercesc_3_1@@UAEXPAX@Z 1202230a f   WindowsMutexMgr.obj
 0001:00021314       ?unlock@WindowsMutexMgr@xercesc_3_1@@UAEXPAX@Z 12022314 f   WindowsMutexMgr.obj
 0001:0002131e       ??1XMLFormatTarget@xercesc_3_1@@UAE@XZ 1202231e f i LocalFileFormatTarget.obj
 0001:00021325       ??0XMLFormatTarget@xercesc_3_1@@IAE@XZ 12022325 f i LocalFileFormatTarget.obj
 0001:0002132e       ??_EXMLFormatTarget@xercesc_3_1@@UAEPAXI@Z 1202232e f i LocalFileFormatTarget.obj
 0001:0002137a       ?setCategoryId@RangeTokenElemMap@xercesc_3_1@@QAEXI@Z 1202237a f i ASCIIRangeFactory.obj
 0001:0002137a       ?setSign@XMLBigInteger@xercesc_3_1@@AAEXH@Z 1202237a f i XMLBigDecimal.obj
 0001:0002137a       ?setEscapeFlags@XMLFormatter@xercesc_3_1@@QAEXW4EscapeFlags@12@@Z 1202237a f i LocalFileFormatTarget.obj
 0001:0002137a       ?setValueStoreCache@FieldActivator@xercesc_3_1@@QAEXQAVValueStoreCache@2@@Z 1202237a f i FieldActivator.obj
 0001:00021386       ??6XMLFormatter@xercesc_3_1@@QAEAAV01@W4UnRepFlags@01@@Z 12022386 f i LocalFileFormatTarget.obj
 0001:00021395       ??_ELocalFileFormatTarget@xercesc_3_1@@UAEPAXI@Z 12022395 f i LocalFileFormatTarget.obj
 0001:000213e0       ??0LocalFileFormatTarget@xercesc_3_1@@QAE@QB_WQAVMemoryManager@1@@Z 120223e0 f   LocalFileFormatTarget.obj
 0001:0002147b       ??0LocalFileFormatTarget@xercesc_3_1@@QAE@QBDQAVMemoryManager@1@@Z 1202247b f   LocalFileFormatTarget.obj
 0001:00021516       ??1LocalFileFormatTarget@xercesc_3_1@@UAE@XZ 12022516 f   LocalFileFormatTarget.obj
 0001:0002158d       ?flush@LocalFileFormatTarget@xercesc_3_1@@UAEXXZ 1202258d f   LocalFileFormatTarget.obj
 0001:000215aa       ?writeChars@LocalFileFormatTarget@xercesc_3_1@@UAEXQBEKQAVXMLFormatter@2@@Z 120225aa f   LocalFileFormatTarget.obj
 0001:00021628       ?ensureCapacity@LocalFileFormatTarget@xercesc_3_1@@AAEXK@Z 12022628 f   LocalFileFormatTarget.obj
 0001:0002167d       ??_FInputSource@xercesc_3_1@@QAEXXZ 1202267d f i LocalFileInputSource.obj
 0001:00021689       ??_ELocalFileInputSource@xercesc_3_1@@UAEPAXI@Z 12022689 f i LocalFileInputSource.obj
 0001:000216da       ??0LocalFileInputSource@xercesc_3_1@@QAE@QB_W0QAVMemoryManager@1@@Z 120226da f   LocalFileInputSource.obj
 0001:0002174b       ??0LocalFileInputSource@xercesc_3_1@@QAE@QB_WQAVMemoryManager@1@@Z 1202274b f   LocalFileInputSource.obj
 0001:00021827       ??1LocalFileInputSource@xercesc_3_1@@UAE@XZ 12022827 f   LocalFileInputSource.obj
 0001:00021832       ?makeStream@LocalFileInputSource@xercesc_3_1@@UBEPAVBinInputStream@2@XZ 12022832 f   LocalFileInputSource.obj
 0001:0002188c       ??_FMemBufFormatTarget@xercesc_3_1@@QAEXXZ 1202288c f i MemBufFormatTarget.obj
 0001:0002189d       ??_EMemBufFormatTarget@xercesc_3_1@@UAEPAXI@Z 1202289d f i MemBufFormatTarget.obj
 0001:000218e8       ??0MemBufFormatTarget@xercesc_3_1@@QAE@KQAVMemoryManager@1@@Z 120228e8 f   MemBufFormatTarget.obj
 0001:00021930       ??1MemBufFormatTarget@xercesc_3_1@@UAE@XZ 12022930 f   MemBufFormatTarget.obj
 0001:00021962       ?writeChars@MemBufFormatTarget@xercesc_3_1@@UAEXQBEKQAVXMLFormatter@2@@Z 12022962 f   MemBufFormatTarget.obj
 0001:0002199d       ?reset@MemBufFormatTarget@xercesc_3_1@@QAEXXZ 1202299d f   MemBufFormatTarget.obj
 0001:000219ca       ?ensureCapacity@MemBufFormatTarget@xercesc_3_1@@AAEXK@Z 120229ca f   MemBufFormatTarget.obj
 0001:00021a10       ??_EMemBufInputSource@xercesc_3_1@@UAEPAXI@Z 12022a10 f i MemBufInputSource.obj
 0001:00021a5b       ??0MemBufInputSource@xercesc_3_1@@QAE@QBEKQB_W_NQAVMemoryManager@1@@Z 12022a5b f   MemBufInputSource.obj
 0001:00021a8f       ??0MemBufInputSource@xercesc_3_1@@QAE@QBEKQBD_NQAVMemoryManager@1@@Z 12022a8f f   MemBufInputSource.obj
 0001:00021ac3       ??1MemBufInputSource@xercesc_3_1@@UAE@XZ 12022ac3 f   MemBufInputSource.obj
 0001:00021aff       ?resetMemBufInputSource@MemBufInputSource@xercesc_3_1@@QAEXQBEK@Z 12022aff f   MemBufInputSource.obj
 0001:00021b12       ?makeStream@MemBufInputSource@xercesc_3_1@@UBEPAVBinInputStream@2@XZ 12022b12 f   MemBufInputSource.obj
 0001:00021b5c       ??_FStdInInputSource@xercesc_3_1@@QAEXXZ 12022b5c f i StdInInputSource.obj
 0001:00021b77       ??_EStdInInputSource@xercesc_3_1@@UAEPAXI@Z 12022b77 f i StdInInputSource.obj
 0001:00021bc8       ??0StdInInputSource@xercesc_3_1@@QAE@QAVMemoryManager@1@@Z 12022bc8 f i StdInInputSource.obj
 0001:00021be8       ??1StdInInputSource@xercesc_3_1@@UAE@XZ 12022be8 f i StdInInputSource.obj
 0001:00021bf3       ?makeStream@StdInInputSource@xercesc_3_1@@UBEPAVBinInputStream@2@XZ 12022bf3 f   StdInInputSource.obj
 0001:00021c5a       ??_EStdOutFormatTarget@xercesc_3_1@@UAEPAXI@Z 12022c5a f i StdOutFormatTarget.obj
 0001:00021ca5       ??0StdOutFormatTarget@xercesc_3_1@@QAE@XZ 12022ca5 f   StdOutFormatTarget.obj
 0001:00021cae       ??1StdOutFormatTarget@xercesc_3_1@@UAE@XZ 12022cae f   StdOutFormatTarget.obj
 0001:00021cc4       ?flush@StdOutFormatTarget@xercesc_3_1@@UAEXXZ 12022cc4 f   StdOutFormatTarget.obj
 0001:00021cd6       ?writeChars@StdOutFormatTarget@xercesc_3_1@@UAEXQBEKQAVXMLFormatter@2@@Z 12022cd6 f   StdOutFormatTarget.obj
 0001:00021d52       ??_EURLInputSource@xercesc_3_1@@UAEPAXI@Z 12022d52 f i URLInputSource.obj
 0001:00021d9d       ??0URLInputSource@xercesc_3_1@@QAE@ABVXMLURL@1@QAVMemoryManager@1@@Z 12022d9d f   URLInputSource.obj
 0001:00021df1       ??0URLInputSource@xercesc_3_1@@QAE@QB_W0QAVMemoryManager@1@@Z 12022df1 f   URLInputSource.obj
 0001:00021e4e       ??0URLInputSource@xercesc_3_1@@QAE@QB_W00QAVMemoryManager@1@@Z 12022e4e f   URLInputSource.obj
 0001:00021eb0       ??0URLInputSource@xercesc_3_1@@QAE@QB_WQBDQAVMemoryManager@1@@Z 12022eb0 f   URLInputSource.obj
 0001:00021f0d       ??0URLInputSource@xercesc_3_1@@QAE@QB_WQBD1QAVMemoryManager@1@@Z 12022f0d f   URLInputSource.obj
 0001:00021f6f       ??1URLInputSource@xercesc_3_1@@UAE@XZ 12022f6f f   URLInputSource.obj
 0001:00021fa9       ?makeStream@URLInputSource@xercesc_3_1@@UBEPAVBinInputStream@2@XZ 12022fa9 f   URLInputSource.obj
 0001:00021fb4       ??_EWrapper4DOMLSInput@xercesc_3_1@@UAEPAXI@Z 12022fb4 f i Wrapper4DOMLSInput.obj
 0001:00021fff       ??0DOMLSInput@xercesc_3_1@@IAE@XZ 12022fff f i Wrapper4DOMLSInput.obj
 0001:00022008       ??1DOMLSInput@xercesc_3_1@@UAE@XZ 12023008 f i Wrapper4DOMLSInput.obj
 0001:0002200f       ??_EDOMLSInput@xercesc_3_1@@UAEPAXI@Z 1202300f f i Wrapper4DOMLSInput.obj
 0001:0002205c       ??0DOMLSResourceResolver@xercesc_3_1@@IAE@XZ 1202305c f i Wrapper4DOMLSInput.obj
 0001:00022065       ??1DOMLSResourceResolver@xercesc_3_1@@UAE@XZ 12023065 f i Wrapper4DOMLSInput.obj
 0001:0002206c       ??_EDOMLSResourceResolver@xercesc_3_1@@UAEPAXI@Z 1202306c f i Wrapper4DOMLSInput.obj
 0001:000220b9       ??0Wrapper4DOMLSInput@xercesc_3_1@@QAE@QAVDOMLSInput@1@PAVDOMLSResourceResolver@1@_NQAVMemoryManager@1@@Z 120230b9 f   Wrapper4DOMLSInput.obj
 0001:00022123       ??1Wrapper4DOMLSInput@xercesc_3_1@@UAE@XZ 12023123 f   Wrapper4DOMLSInput.obj
 0001:00022162       ?getIssueFatalErrorIfNotFound@Wrapper4DOMLSInput@xercesc_3_1@@UBE_NXZ 12023162 f   Wrapper4DOMLSInput.obj
 0001:0002216a       ?getEncoding@Wrapper4DOMLSInput@xercesc_3_1@@UBEPB_WXZ 1202316a f   Wrapper4DOMLSInput.obj
 0001:0002217e       ?getSystemId@Wrapper4DOMLSInput@xercesc_3_1@@UBEPB_WXZ 1202317e f   Wrapper4DOMLSInput.obj
 0001:00022186       ?getPublicId@Wrapper4DOMLSInput@xercesc_3_1@@UBEPB_WXZ 12023186 f   Wrapper4DOMLSInput.obj
 0001:0002218e       ?setIssueFatalErrorIfNotFound@Wrapper4DOMLSInput@xercesc_3_1@@UAEX_N@Z 1202318e f   Wrapper4DOMLSInput.obj
 0001:0002219a       ?setEncoding@Wrapper4DOMLSInput@xercesc_3_1@@UAEXQB_W@Z 1202319a f   Wrapper4DOMLSInput.obj
 0001:000221a6       ?setPublicId@Wrapper4DOMLSInput@xercesc_3_1@@UAEXQB_W@Z 120231a6 f   Wrapper4DOMLSInput.obj
 0001:000221b2       ?setSystemId@Wrapper4DOMLSInput@xercesc_3_1@@UAEXQB_W@Z 120231b2 f   Wrapper4DOMLSInput.obj
 0001:000221be       ?makeStream@Wrapper4DOMLSInput@xercesc_3_1@@UBEPAVBinInputStream@2@XZ 120231be f   Wrapper4DOMLSInput.obj
 0001:000223d8       ??_EWrapper4InputSource@xercesc_3_1@@UAEPAXI@Z 120233d8 f i Wrapper4InputSource.obj
 0001:00022424       ??0Wrapper4InputSource@xercesc_3_1@@QAE@QAVInputSource@1@_NQAVMemoryManager@1@@Z 12023424 f   Wrapper4InputSource.obj
 0001:0002247a       ??1Wrapper4InputSource@xercesc_3_1@@UAE@XZ 1202347a f   Wrapper4InputSource.obj
 0001:000224b4       ?getIssueFatalErrorIfNotFound@Wrapper4InputSource@xercesc_3_1@@UBE_NXZ 120234b4 f   Wrapper4InputSource.obj
 0001:000224bc       ?getEncoding@Wrapper4InputSource@xercesc_3_1@@UBEPB_WXZ 120234bc f   Wrapper4InputSource.obj
 0001:000224c4       ?getSystemId@Wrapper4InputSource@xercesc_3_1@@UBEPB_WXZ 120234c4 f   Wrapper4InputSource.obj
 0001:000224cc       ?getPublicId@Wrapper4InputSource@xercesc_3_1@@UBEPB_WXZ 120234cc f   Wrapper4InputSource.obj
 0001:000224d4       ?setIssueFatalErrorIfNotFound@Wrapper4InputSource@xercesc_3_1@@UAEX_N@Z 120234d4 f   Wrapper4InputSource.obj
 0001:000224e0       ?setEncoding@Wrapper4InputSource@xercesc_3_1@@UAEXQB_W@Z 120234e0 f   Wrapper4InputSource.obj
 0001:000224ec       ?setPublicId@Wrapper4InputSource@xercesc_3_1@@UAEXQB_W@Z 120234ec f   Wrapper4InputSource.obj
 0001:000224f8       ?setSystemId@Wrapper4InputSource@xercesc_3_1@@UAEXQB_W@Z 120234f8 f   Wrapper4InputSource.obj
 0001:00022504       ??_FXMLAttDef@xercesc_3_1@@QAEXXZ 12023504 f i XMLAttDef.obj
 0001:00022514       ??_EXMLAttDef@xercesc_3_1@@UAEPAXI@Z 12023514 f i XMLAttDef.obj
 0001:0002255f       ?getFormattedString@XMLBigDecimal@xercesc_3_1@@UBEPB_WXZ 1202355f f i XMLAbstractDoubleFloat.obj
 0001:0002255f       ?getFirstChild@DOMAttrImpl@xercesc_3_1@@UBEPAVDOMNode@2@XZ 1202355f f i DOMAttrImpl.obj
 0001:0002255f       ?getNotationName@XMLEntityDecl@xercesc_3_1@@QBEPB_WXZ 1202355f f i XMLDTDDescription.obj
 0001:0002255f       ?getFirstChild@DOMDocumentFragmentImpl@xercesc_3_1@@UBEPAVDOMNode@2@XZ 1202355f f i DOMDocumentFragmentImpl.obj
 0001:0002255f       ?getRegBasedAuthority@XMLUri@xercesc_3_1@@QBEPB_WXZ 1202355f f i XMLString.obj
 0001:0002255f       ?getPrefix@QName@xercesc_3_1@@QAEPA_WXZ 1202355f f i QName.obj
 0001:0002255f       ?getFirstChild@DOMEntityReferenceImpl@xercesc_3_1@@UBEPAVDOMNode@2@XZ 1202355f f i DOMEntityReferenceImpl.obj
 0001:0002255f       ?getTypeCategory@XSTypeDefinition@xercesc_3_1@@QBE?AW4TYPE_CATEGORY@12@XZ 1202355f f i XMLAttr.obj
 0001:0002255f       ?getMemoryManager@TokenFactory@xercesc_3_1@@QBEPAVMemoryManager@2@XZ 1202355f f i ASCIIRangeFactory.obj
 0001:0002255f       ?getFirstChild@DOMDocumentTypeImpl@xercesc_3_1@@UBEPAVDOMNode@2@XZ 1202355f f i DOMDocumentTypeImpl.obj
 0001:0002255f       ?getGrammar@DTDValidator@xercesc_3_1@@UBEPAVGrammar@2@XZ 1202355f f i DGXMLScanner.obj
 0001:0002255f       ?getBufCount@XSerializeEngine@xercesc_3_1@@QBEKXZ 1202355f f i KVStringPair.obj
 0001:0002255f       ?getParameterNames@DOMConfigurationImpl@xercesc_3_1@@UBEPBVDOMStringList@2@XZ 1202355f f i DOMConfigurationImpl.obj
 0001:0002255f       ?getType@DOMErrorImpl@xercesc_3_1@@UBEPB_WXZ 1202355f f i DOMLSParserImpl.obj
 0001:0002255f       ?getConstraintType@XSWildcard@xercesc_3_1@@QBE?AW4NAMESPACE_CONSTRAINT@12@XZ 1202355f f i XSComplexTypeDefinition.obj
 0001:0002255f       ?getRawData@XMLBigDecimal@xercesc_3_1@@UBEPA_WXZ 1202355f f i XMLAbstractDoubleFloat.obj
 0001:0002255f       ?getPrefix@QName@xercesc_3_1@@QBEPB_WXZ 1202355f f i QName.obj
 0001:0002255f       ?getPath@XMLURL@xercesc_3_1@@QBEPB_WXZ 1202355f f i PlatformUtils.obj
 0001:0002255f       ?getCompositor@XSModelGroup@xercesc_3_1@@QBE?AW4COMPOSITOR_TYPE@12@XZ 1202355f f i XSModelGroup.obj
 0001:0002255f       ?getTriggeringComponent@XMLSchemaDescriptionImpl@xercesc_3_1@@UBEPBVQName@2@XZ 1202355f f i XMLSchemaDescriptionImpl.obj
 0001:0002255f       ?getNoParen@RegxParser@xercesc_3_1@@QBEHXZ 1202355f f i ParserForXMLSchema.obj
 0001:0002255f       ?getFixed@DatatypeValidator@xercesc_3_1@@IBEHXZ 1202355f f i XMLAttr.obj
 0001:0002255f       ?getData@ModifierOp@xercesc_3_1@@UBEHXZ 1202355f f i Op.obj
 0001:0002255f       ?getFirstChild@DOMDocumentImpl@xercesc_3_1@@UBEPAVDOMNode@2@XZ 1202355f f i DOMDocumentImpl.obj
 0001:0002255f       ?getSystemId@DOMNotationImpl@xercesc_3_1@@UBEPB_WXZ 1202355f f i DOMNotationImpl.obj
 0001:0002255f       ?getFilter@DOMLSParserImpl@xercesc_3_1@@UBEPBVDOMLSParserFilter@2@XZ 1202355f f i DOMLSParserImpl.obj
 0001:0002255f       ?getFacetKind@XSMultiValueFacet@xercesc_3_1@@QBE?AW4FACET@XSSimpleTypeDefinition@2@XZ 1202355f f i XSMultiValueFacet.obj
 0001:0002255f       ?getFilter@DOMLSSerializerImpl@xercesc_3_1@@UBEPAVDOMLSSerializerFilter@2@XZ 1202355f f i DOMLSSerializerImpl.obj
 0001:0002255f       ?getTermType@XSParticle@xercesc_3_1@@QBE?AW4TERM_TYPE@12@XZ 1202355f f i XSComplexTypeDefinition.obj
 0001:0002255f       ?getFinalSet@ComplexTypeInfo@xercesc_3_1@@QBEHXZ 1202355f f i XMLElementDecl.obj
 0001:0002255f       ?getSecond@ContentSpecNode@xercesc_3_1@@QBEPBV12@XZ 1202355f f i XMLGrammarPoolImpl.obj
 0001:0002255f       ?getSecond@ContentSpecNode@xercesc_3_1@@QAEPAV12@XZ 1202355f f i XMLGrammarPoolImpl.obj
 0001:0002255f       ?getLocator@XMLResourceIdentifier@xercesc_3_1@@QBEPBVLocator@2@XZ 1202355f f i DGXMLScanner.obj
 0001:0002255f       ?getCanonicalRepresentation@PSVIItem@xercesc_3_1@@QBEPB_WXZ 1202355f f i PSVIAttribute.obj
 0001:0002255f       ?getCurrentSchemaURL@SchemaInfo@xercesc_3_1@@QBEPA_WXZ 1202355f f i IGXMLScanner.obj
 0001:0002255f       ?getContentSpec@XercesGroupInfo@xercesc_3_1@@QBEPAVContentSpecNode@2@XZ 1202355f f i XMLGrammarPoolImpl.obj
 0001:0002255f       ?getId@XMLAttDef@xercesc_3_1@@QBEKXZ 1202355f f i XMLAttDef.obj
 0001:0002255f       ?getParent@SAX2XMLFilterImpl@xercesc_3_1@@UBEPAVSAX2XMLReader@2@XZ 1202355f f i SAX2XMLFilterImpl.obj
 0001:0002255f       ?getValidatingMemberType@ValidationContextImpl@xercesc_3_1@@UBEPAVDatatypeValidator@2@XZ 1202355f f i ValidationContextImpl.obj
 0001:0002255f       ?getSystemId@XMLNotationDecl@xercesc_3_1@@QBEPB_WXZ 1202355f f i XMLDTDDescription.obj
 0001:0002255f       ?getFirstChild@DOMElementImpl@xercesc_3_1@@UBEPAVDOMNode@2@XZ 1202355f f i DOMElementImpl.obj
 0001:0002255f       ?getSystemId@DOMLSInputImpl@xercesc_3_1@@UBEPB_WXZ 1202355f f i DOMImplementationImpl.obj
 0001:0002255f       ?getFacetKind@XSFacet@xercesc_3_1@@QBE?AW4FACET@XSSimpleTypeDefinition@2@XZ 1202355f f i XSFacet.obj
 0001:00022563       ?setEnumeration@XMLAttDef@xercesc_3_1@@QAEXQB_W@Z 12023563 f i XMLAttDef.obj
 0001:0002258e       ?setContextType@XMLSchemaDescriptionImpl@xercesc_3_1@@UAEXW4ContextType@XMLSchemaDescription@2@@Z 1202358e f i XMLSchemaDescriptionImpl.obj
 0001:0002258e       ?setErrorReporter@XMLValidator@xercesc_3_1@@QAEXQAVXMLErrorReporter@2@@Z 1202358e f i XMLValidator.obj
 0001:0002258e       ?setScope@XercesGroupInfo@xercesc_3_1@@QAEXI@Z 1202358e f i XMLGrammarPoolImpl.obj
 0001:0002258e       ?setLowWaterMark@XMLScanner@xercesc_3_1@@QAEXK@Z 1202358e f i XMLValidator.obj
 0001:0002258e       ?setType@XMLAttDef@xercesc_3_1@@QAEXW4AttTypes@12@@Z 1202358e f i XMLAttDef.obj
 0001:0002258e       ?setFinalDefault@SchemaInfo@xercesc_3_1@@QAEXH@Z 1202358e f i IGXMLScanner.obj
 0001:0002258e       ?setErrorHandler@DOMConfigurationImpl@xercesc_3_1@@QAEXPAVDOMErrorHandler@2@@Z 1202358e f i DOMConfigurationImpl.obj
 0001:0002258e       ?setOpType@Op@xercesc_3_1@@QAEXW4opType@12@@Z 1202358e f i Op.obj
 0001:0002258e       ?setByteStream@DOMLSInputImpl@xercesc_3_1@@UAEXPAVInputSource@2@@Z 1202358e f i DOMLSInputImpl.obj
 0001:0002258e       ?setErrorReporter@XSDErrorReporter@xercesc_3_1@@QAEXQAVXMLErrorReporter@2@@Z 1202358e f i IGXMLScanner.obj
 0001:0002258e       ?setSeverity@DOMErrorImpl@xercesc_3_1@@QAEXW4ErrorSeverity@DOMError@2@@Z 1202358e f i DOMLSParserImpl.obj
 0001:0002258e       ?setNameSpaceId@XMLNotationDecl@xercesc_3_1@@QAEXI@Z 1202358e f i XMLDTDDescription.obj
 0001:0002259b       ?setValue@XMLAttDef@xercesc_3_1@@QAEXQB_W@Z 1202359b f i XMLAttDef.obj
 0001:000225c6       ?getAttTypeString@XMLAttDef@xercesc_3_1@@SAPB_WW4AttTypes@12@QAVMemoryManager@2@@Z 120235c6 f   XMLAttDef.obj
 0001:00022602       ?getDefAttTypeString@XMLAttDef@xercesc_3_1@@SAPB_WW4DefAttTypes@12@QAVMemoryManager@2@@Z 12023602 f   XMLAttDef.obj
 0001:0002263e       ??1XMLAttDef@xercesc_3_1@@UAE@XZ 1202363e f   XMLAttDef.obj
 0001:0002266a       ??0XMLAttDef@xercesc_3_1@@IAE@W4AttTypes@01@W4DefAttTypes@01@QAVMemoryManager@1@@Z 1202366a f   XMLAttDef.obj
 0001:000226a0       ??0XMLAttDef@xercesc_3_1@@IAE@QB_WW4AttTypes@01@W4DefAttTypes@01@0QAVMemoryManager@1@@Z 120236a0 f   XMLAttDef.obj
 0001:00022728       ?cleanUp@XMLAttDef@xercesc_3_1@@AAEXXZ 12023728 f   XMLAttDef.obj
 0001:0002274d       ?getProtoType@XMLAttDef@xercesc_3_1@@UBEPAVXProtoType@2@XZ 1202374d f   XMLAttDef.obj
 0001:00022753       ?serialize@XMLAttDef@xercesc_3_1@@UAEXAAVXSerializeEngine@2@@Z 12023753 f   XMLAttDef.obj
 0001:0002282a       ??_FXMLAttDefList@xercesc_3_1@@QAEXXZ 1202382a f i XMLAttDefList.obj
 0001:00022839       ??_EXMLDTDDescription@xercesc_3_1@@UAEPAXI@Z 12023839 f i XMLDTDDescription.obj
 0001:00022839       ??_EXMLAttDefList@xercesc_3_1@@UAEPAXI@Z 12023839 f i XMLAttDefList.obj
 0001:00022839       ??_EXMLSchemaDescription@xercesc_3_1@@UAEPAXI@Z 12023839 f i XMLSchemaDescription.obj
 0001:00022839       ??_EXMLGrammarDescription@xercesc_3_1@@UAEPAXI@Z 12023839 f i XMLGrammarDescription.obj
 0001:00022885       ??0XMLAttDefList@xercesc_3_1@@IAE@QAVMemoryManager@1@@Z 12023885 f i XMLAttDefList.obj
 0001:0002289a       ?getProtoType@XMLAttDefList@xercesc_3_1@@UBEPAVXProtoType@2@XZ 1202389a f   XMLAttDefList.obj
 0001:000228a0       ?getFinal@XSTypeDefinition@xercesc_3_1@@QBEFXZ 120238a0 f i XMLAttr.obj
 0001:000228a5       ?getPrimitiveType@XSSimpleTypeDefinition@xercesc_3_1@@QAEPAV12@XZ 120238a5 f i XMLAttr.obj
 0001:000228b2       ?getItemType@XSSimpleTypeDefinition@xercesc_3_1@@QAEPAV12@XZ 120238b2 f i XMLAttr.obj
 0001:000228bf       ?setDatatypeValidator@ComplexTypeInfo@xercesc_3_1@@QAEXQAVDatatypeValidator@2@@Z 120238bf f i XMLElementDecl.obj
 0001:000228bf       ?setPrimitiveType@XSSimpleTypeDefinition@xercesc_3_1@@AAEXQAV12@@Z 120238bf f i XMLAttr.obj
 0001:000228cc       ??1ValidationContext@xercesc_3_1@@UAE@XZ 120238cc f i XMLAttr.obj
 0001:000228d3       ?getChild@Token@xercesc_3_1@@UBEPAV12@K@Z 120238d3 f i ASCIIRangeFactory.obj
 0001:000228d3       ?getURIForPrefix@ValidationContext@xercesc_3_1@@UAEPB_WPA_W@Z 120238d3 f i XMLAttr.obj
 0001:000228d8       ??0ValidationContext@xercesc_3_1@@IAE@QAVMemoryManager@1@@Z 120238d8 f i XMLAttr.obj
 0001:000228ed       ??_FValidationContext@xercesc_3_1@@QAEXXZ 120238ed f i XMLAttr.obj
 0001:000228fc       ??_EValidationContext@xercesc_3_1@@UAEPAXI@Z 120238fc f i XMLAttr.obj
 0001:00022948       ?getWSFacet@DatatypeValidator@xercesc_3_1@@QBEFXZ 12023948 f i XMLAttr.obj
 0001:0002294d       ?getAdoptContentSpec@ComplexTypeInfo@xercesc_3_1@@QBE_NXZ 1202394d f i XMLElementDecl.obj
 0001:0002294d       ?getBounded@DatatypeValidator@xercesc_3_1@@QBE_NXZ 1202394d f i XMLAttr.obj
 0001:00022951       ?setWhiteSpace@DatatypeValidator@xercesc_3_1@@IAEXF@Z 12023951 f i XMLAttr.obj
 0001:00022960       ?setFacetsDefined@DatatypeValidator@xercesc_3_1@@IAEXH@Z 12023960 f i XMLAttr.obj
 0001:0002296d       ?setFixed@DatatypeValidator@xercesc_3_1@@IAEXH@Z 1202396d f i XMLAttr.obj
 0001:0002297a       ?setPattern@DatatypeValidator@xercesc_3_1@@IAEXPB_W@Z 1202397a f i XMLAttr.obj
 0001:000229ef       ?setAnonymous@ComplexTypeInfo@xercesc_3_1@@QAEXXZ 120239ef f i XMLElementDecl.obj
 0001:000229ef       ?setAnonymous@DatatypeValidator@xercesc_3_1@@QAEXXZ 120239ef f i XMLAttr.obj
 0001:000229f4       ?setBounded@DatatypeValidator@xercesc_3_1@@IAEX_N@Z 120239f4 f i XMLAttr.obj
 0001:000229f4       ?setAdoptContentSpec@ComplexTypeInfo@xercesc_3_1@@QAEX_N@Z 120239f4 f i XMLElementDecl.obj
 0001:00022a01       ?compare@AbstractStringValidator@xercesc_3_1@@UAEHQB_W0QAVMemoryManager@2@@Z 12023a01 f i AbstractStringValidator.obj
 0001:00022a01       ?compare@AnySimpleTypeDatatypeValidator@xercesc_3_1@@UAEHQB_W0QAVMemoryManager@2@@Z 12023a01 f i AnySimpleTypeDatatypeValidator.obj
 0001:00022a01       ?compare@DatatypeValidator@xercesc_3_1@@UAEHQB_W0QAVMemoryManager@2@@Z 12023a01 f i XMLAttr.obj
 0001:00022a15       ?isSubstitutableBy@DatatypeValidator@xercesc_3_1@@UAE_NQBV12@@Z 12023a15 f i XMLAttr.obj
 0001:00022a32       ??_FXMLAttr@xercesc_3_1@@QAEXXZ 12023a32 f i XMLAttr.obj
 0001:00022a3e       ??1XMLAttr@xercesc_3_1@@QAE@XZ 12023a3e f i XMLAttr.obj
 0001:00022a43       ?getName@XMLAttr@xercesc_3_1@@QBEPB_WXZ 12023a43 f i XMLAttr.obj
 0001:00022a4a       ?getPrefix@XMLAttr@xercesc_3_1@@QBEPB_WXZ 12023a4a f i XMLAttr.obj
 0001:00022a51       ?getSpecified@XMLAttr@xercesc_3_1@@QBE_NXZ 12023a51 f i XMLAttr.obj
 0001:00022a54       ?getURIId@XMLAttr@xercesc_3_1@@QBEIXZ 12023a54 f i XMLAttr.obj
 0001:00022a5b       ?set@XMLAttr@xercesc_3_1@@QAEXIQB_W00W4AttTypes@XMLAttDef@2@PAVDatatypeValidator@2@_N@Z 12023a5b f i XMLAttr.obj
 0001:00022a87       ?set@XMLAttr@xercesc_3_1@@QAEXIQB_W0W4AttTypes@XMLAttDef@2@PAVDatatypeValidator@2@_N@Z 12023a87 f i XMLAttr.obj
 0001:00022ab0       ?setSpecified@XMLAttr@xercesc_3_1@@QAEX_N@Z 12023ab0 f i XMLAttr.obj
 0001:00022abc       ??0XMLAttr@xercesc_3_1@@QAE@QAVMemoryManager@1@@Z 12023abc f   XMLAttr.obj
 0001:00022b00       ??0XMLAttr@xercesc_3_1@@QAE@IQB_W00W4AttTypes@XMLAttDef@1@_NQAVMemoryManager@1@PAVDatatypeValidator@1@2@Z 12023b00 f   XMLAttr.obj
 0001:00022b92       ??0XMLAttr@xercesc_3_1@@QAE@IQB_W0W4AttTypes@XMLAttDef@1@_NQAVMemoryManager@1@PAVDatatypeValidator@1@2@Z 12023b92 f   XMLAttr.obj
 0001:00022c21       ?getQName@XMLAttr@xercesc_3_1@@QBEPB_WXZ 12023c21 f   XMLAttr.obj
 0001:00022c29       ?setName@XMLAttr@xercesc_3_1@@QAEXIQB_W0@Z 12023c29 f   XMLAttr.obj
 0001:00022c41       ?setURIId@XMLAttr@xercesc_3_1@@QAEXI@Z 12023c41 f   XMLAttr.obj
 0001:00022c51       ?setValue@XMLAttr@xercesc_3_1@@QAEXQB_W@Z 12023c51 f   XMLAttr.obj
 0001:00022cad       ?cleanUp@XMLAttr@xercesc_3_1@@AAEXXZ 12023cad f   XMLAttr.obj
 0001:00022cca       ??1?$JanitorMemFunCall@VXMLStringTokenizer@xercesc_3_1@@@xercesc_3_1@@QAE@XZ 12023cca f i XMLStringTokenizer.obj
 0001:00022cca       ??1?$JanitorMemFunCall@VRangeTokenMap@xercesc_3_1@@@xercesc_3_1@@QAE@XZ 12023cca f i RangeTokenMap.obj
 0001:00022cca       ??1?$JanitorMemFunCall@VDOMXPathExpression@xercesc_3_1@@@xercesc_3_1@@QAE@XZ 12023cca f i DOMDocumentImpl.obj
 0001:00022cca       ??1?$JanitorMemFunCall@VXPathMatcherStack@xercesc_3_1@@@xercesc_3_1@@QAE@XZ 12023cca f i XPathMatcherStack.obj
 0001:00022cca       ??1?$JanitorMemFunCall@VValueStoreCache@xercesc_3_1@@@xercesc_3_1@@QAE@XZ 12023cca f i ValueStoreCache.obj
 0001:00022cca       ??1?$JanitorMemFunCall@VBMPattern@xercesc_3_1@@@xercesc_3_1@@QAE@XZ 12023cca f i BMPattern.obj
 0001:00022cca       ??1?$JanitorMemFunCall@VFieldValueMap@xercesc_3_1@@@xercesc_3_1@@QAE@XZ 12023cca f i FieldValueMap.obj
 0001:00022cca       ??1?$JanitorMemFunCall@VTraverseSchema@xercesc_3_1@@@xercesc_3_1@@QAE@XZ 12023cca f i TraverseSchema.obj
 0001:00022cca       ??1?$JanitorMemFunCall@VXMLAttr@xercesc_3_1@@@xercesc_3_1@@QAE@XZ 12023cca f i XMLAttr.obj
 0001:00022cdd       ?ensureCapacity@XMLBuffer@xercesc_3_1@@AAEXK@Z 12023cdd f   XMLBuffer.obj
 0001:00022d7e       ??_FXMLBufferMgr@xercesc_3_1@@QAEXXZ 12023d7e f i XMLBufferMgr.obj
 0001:00022d8a       ?getAvailableBufferCount@XMLBufferMgr@xercesc_3_1@@QBEKXZ 12023d8a f i XMLBufferMgr.obj
 0001:00022db2       ??0XMLBufferMgr@xercesc_3_1@@QAE@QAVMemoryManager@1@@Z 12023db2 f   XMLBufferMgr.obj
 0001:00022dee       ??1XMLBufferMgr@xercesc_3_1@@QAE@XZ 12023dee f   XMLBufferMgr.obj
 0001:00022e29       ?bidOnBuffer@XMLBufferMgr@xercesc_3_1@@QAEAAVXMLBuffer@2@XZ 12023e29 f   XMLBufferMgr.obj
 0001:00022ee0       ?releaseBuffer@XMLBufferMgr@xercesc_3_1@@QAEXAAVXMLBuffer@2@@Z 12023ee0 f   XMLBufferMgr.obj
 0001:00022f30       ??1XMLContentModel@xercesc_3_1@@UAE@XZ 12023f30 f i XMLContentModel.obj
 0001:00022f37       ??0XMLContentModel@xercesc_3_1@@IAE@XZ 12023f37 f i XMLContentModel.obj
 0001:00022f40       ??_EXMLContentModel@xercesc_3_1@@UAEPAXI@Z 12023f40 f i XMLContentModel.obj
 0001:00022f8c       ??_FXMLElementDecl@xercesc_3_1@@QAEXXZ 12023f8c f i XMLDTDDescription.obj
 0001:00022f98       ?getBaseName@XMLElementDecl@xercesc_3_1@@QAEPA_WXZ 12023f98 f i XMLDTDDescription.obj
 0001:00022f98       ?getBaseName@XMLElementDecl@xercesc_3_1@@QBEPB_WXZ 12023f98 f i XMLDTDDescription.obj
 0001:00022f9f       ?getURI@XMLElementDecl@xercesc_3_1@@QBEIXZ 12023f9f f i XMLDTDDescription.obj
 0001:00022fa6       ?getCategories@RangeTokenMap@xercesc_3_1@@IBEPAVXMLStringPool@2@XZ 12023fa6 f i ASCIIRangeFactory.obj
 0001:00022fa6       ?getRefName@XMLRefInfo@xercesc_3_1@@QBEPB_WXZ 12023fa6 f i XMLGrammarPoolImpl.obj
 0001:00022fa6       ?getScope@XercesGroupInfo@xercesc_3_1@@QBEIXZ 12023fa6 f i XMLGrammarPoolImpl.obj
 0001:00022fa6       ?getScheme@XMLUri@xercesc_3_1@@QBEPB_WXZ 12023fa6 f i XMLString.obj
 0001:00022fa6       ?getLength@PSVIAttributeList@xercesc_3_1@@QBEKXZ 12023fa6 f i PSVIAttributeList.obj
 0001:00022fa6       ?getByteStream@Wrapper4InputSource@xercesc_3_1@@UBEPAVInputSource@2@XZ 12023fa6 f i Wrapper4InputSource.obj
 0001:00022fa6       ?getErrorHandler@DOMConfigurationImpl@xercesc_3_1@@QBEPAVDOMErrorHandler@2@XZ 12023fa6 f i DOMConfigurationImpl.obj
 0001:00022fa6       ?getIdentityConstraint@IC_Selector@xercesc_3_1@@QBEPAVIdentityConstraint@2@XZ 12023fa6 f i XSIDCDefinition.obj
 0001:00022fa6       ?getValidationContext@PSVIItem@xercesc_3_1@@QAEPB_WXZ 12023fa6 f i PSVIAttribute.obj
 0001:00022fa6       ?getValueLen@XMLEntityDecl@xercesc_3_1@@QBEKXZ 12023fa6 f i XMLDTDDescription.obj
 0001:00022fa6       ?getEncodingName@XMLTranscoder@xercesc_3_1@@QBEPB_WXZ 12023fa6 f i PlatformUtils.obj
 0001:00022fa6       ?getIdentityConstraint@ValueStore@xercesc_3_1@@QBEPAVIdentityConstraint@2@XZ 12023fa6 f i IGXMLScanner2.obj
 0001:00022fa6       ?getElementName@XMLElementDecl@xercesc_3_1@@QBEPBVQName@2@XZ 12023fa6 f i XMLDTDDescription.obj
 0001:00022fa6       ?getFilter@DOMTreeWalkerImpl@xercesc_3_1@@UAEPAVDOMNodeFilter@2@XZ 12023fa6 f i DOMTreeWalkerImpl.obj
 0001:00022fa6       ?getCode@XMLException@xercesc_3_1@@QBE?AW4Codes@XMLExcepts@2@XZ 12023fa6 f i Base64.obj
 0001:00022fa6       ?getOpType@Op@xercesc_3_1@@QBE?AW4opType@12@XZ 12023fa6 f i Op.obj
 0001:00022fa6       ?getFragment@XMLURL@xercesc_3_1@@QBEPB_WXZ 12023fa6 f i PlatformUtils.obj
 0001:00022fa6       ?getContextType@XMLSchemaDescriptionImpl@xercesc_3_1@@UBE?AW4ContextType@XMLSchemaDescription@2@XZ 12023fa6 f i XMLSchemaDescriptionImpl.obj
 0001:00022fa6       ?getNameSpaceId@XMLNotationDecl@xercesc_3_1@@QBEIXZ 12023fa6 f i XMLDTDDescription.obj
 0001:00022fa6       ?getSystemId@XMLDTDDescriptionImpl@xercesc_3_1@@UBEPB_WXZ 12023fa6 f i XMLDTDDescriptionImpl.obj
 0001:00022fa6       ?getByteStream@DOMLSInputImpl@xercesc_3_1@@UBEPAVInputSource@2@XZ 12023fa6 f i DOMImplementationImpl.obj
 0001:00022fa6       ?getNameId@XercesAttGroupInfo@xercesc_3_1@@QBEIXZ 12023fa6 f i XMLGrammarPoolImpl.obj
 0001:00022fa6       ?getFirstChild@DOMParentNode@xercesc_3_1@@QBEPAVDOMNode@2@XZ 12023fa6 f i DOMParentNode.obj
 0001:00022fa6       ?getElement@ContentSpecNode@xercesc_3_1@@QAEPAVQName@2@XZ 12023fa6 f i XMLGrammarPoolImpl.obj
 0001:00022fa6       ?getSeverity@DOMErrorImpl@xercesc_3_1@@UBE?AW4ErrorSeverity@DOMError@2@XZ 12023fa6 f i DOMLSParserImpl.obj
 0001:00022fa6       ?getCurrentReader@ReaderMgr@xercesc_3_1@@QBEPBVXMLReader@2@XZ 12023fa6 f i XMLValidator.obj
 0001:00022fa6       ?getMessage@DOMException@xercesc_3_1@@QBEPB_WXZ 12023fa6 f i AbstractDOMParser.obj
 0001:00022fa6       ?getGrammarPool@XSerializeEngine@xercesc_3_1@@QBEPAVXMLGrammarPool@2@XZ 12023fa6 f i XSerializeEngine.obj
 0001:00022fa6       ?getFinalDefault@SchemaInfo@xercesc_3_1@@QBEHXZ 12023fa6 f i IGXMLScanner.obj
 0001:00022fa6       ?getCurrentReader@ReaderMgr@xercesc_3_1@@QAEPAVXMLReader@2@XZ 12023fa6 f i XMLValidator.obj
 0001:00022fa6       ?getRawData@XMLBigInteger@xercesc_3_1@@QBEPA_WXZ 12023fa6 f i XMLBigDecimal.obj
 0001:00022fa6       ?getLen@CharBuffer@xercesc_3_1@@QBEKXZ 12023fa6 f i BinHTTPInputStreamCommon.obj
 0001:00022fa6       ?getSystemId@XMLResourceIdentifier@xercesc_3_1@@QBEPB_WXZ 12023fa6 f i DGXMLScanner.obj
 0001:00022fa6       ?getElementName@XMLElementDecl@xercesc_3_1@@QAEPAVQName@2@XZ 12023fa6 f i XMLDTDDescription.obj
 0001:00022fa6       ?getType@XMLAttDef@xercesc_3_1@@QBE?AW4AttTypes@12@XZ 12023fa6 f i XMLAttDef.obj
 0001:00022fa6       ?getElement@ContentSpecNode@xercesc_3_1@@QBEPBVQName@2@XZ 12023fa6 f i XMLGrammarPoolImpl.obj
 0001:00022fa6       ?getLength@VecAttributesImpl@xercesc_3_1@@UBEKXZ 12023fa6 f i VecAttributesImpl.obj
 0001:00022fa6       ?getTotalDigit@XMLBigDecimal@xercesc_3_1@@QBEIXZ 12023fa6 f i XMLAbstractDoubleFloat.obj
 0001:00022fa6       ?getName@XercesNodeTest@xercesc_3_1@@QBEPAVQName@2@XZ 12023fa6 f i XMLGrammarPoolImpl.obj
 0001:00022fa6       ?getLength@VecAttrListImpl@xercesc_3_1@@UBEKXZ 12023fa6 f i VecAttrListImpl.obj
 0001:00022fa6       ?getEncoding@InputSource@xercesc_3_1@@UBEPB_WXZ 12023fa6 f i LocalFileInputSource.obj
 0001:00022fa6       ?getNodeTest@XercesStep@xercesc_3_1@@QBEPAVXercesNodeTest@2@XZ 12023fa6 f i XMLGrammarPoolImpl.obj
 0001:00022fa6       ?getSchemaLocation@XMLResourceIdentifier@xercesc_3_1@@QBEPB_WXZ 12023fa6 f i DGXMLScanner.obj
 0001:00022fa6       ?getExpression@XercesXPath@xercesc_3_1@@QAEPA_WXZ 12023fa6 f i XMLGrammarPoolImpl.obj
 0001:00022fa6       ?getIdRefList@ValidationContextImpl@xercesc_3_1@@UBEPAV?$RefHashTableOf@VXMLRefInfo@xercesc_3_1@@UStringHasher@2@@2@XZ 12023fa6 f i ValidationContextImpl.obj
 0001:00022fa6       ?getEncoding@DOMLSOutputImpl@xercesc_3_1@@UBEPB_WXZ 12023fa6 f i DOMImplementationImpl.obj
 0001:00022fa6       ?getNamespaceItems@XSModel@xercesc_3_1@@QAEPAV?$RefVectorOf@VXSNamespaceItem@xercesc_3_1@@@2@XZ 12023fa6 f i XMLGrammarPoolImpl.obj
 0001:00022fa6       ?getElementName@IdentityConstraint@xercesc_3_1@@QBEPA_WXZ 12023fa6 f i XMLElementDecl.obj
 0001:00022fa6       ?getIdentityConstraint@IC_Field@xercesc_3_1@@QBEPAVIdentityConstraint@2@XZ 12023fa6 f i XMLElementDecl.obj
 0001:00022faa       ?getKey@DTDElementDecl@xercesc_3_1@@QBEPB_WXZ 12023faa f i XMLElementDecl.obj
 0001:00022faa       ?getFullName@XMLElementDecl@xercesc_3_1@@QBEPB_WXZ 12023faa f i XMLDTDDescription.obj
 0001:00022fb2       ?isDeclared@XMLElementDecl@xercesc_3_1@@QBE_NXZ 12023fb2 f i XMLDTDDescription.obj
 0001:00022fbc       ?setIssueFatalErrorIfNotFound@InputSource@xercesc_3_1@@UAEX_N@Z 12023fbc f i LocalFileInputSource.obj
 0001:00022fbc       ?setCreateEntityReferenceNodes@AbstractDOMParser@xercesc_3_1@@QAEX_N@Z 12023fbc f i XSAnnotation.obj
 0001:00022fbc       ?setExternalElemDeclaration@XMLElementDecl@xercesc_3_1@@QAEX_N@Z 12023fbc f i XMLDTDDescription.obj
 0001:00022fc9       ??_FXMLEntityDecl@xercesc_3_1@@QAEXXZ 12023fc9 f i XMLDTDDescription.obj
 0001:00022fd5       ?getHandleMultipleImports@XMLScanner@xercesc_3_1@@QBE_NXZ 12023fd5 f i XMLValidator.obj
 0001:00022fd5       ?isExternal@XMLEntityDecl@xercesc_3_1@@QBE_NXZ 12023fd5 f i XMLDTDDescription.obj
 0001:00022fd9       ?setNotationName@XMLEntityDecl@xercesc_3_1@@QAEXQB_W@Z 12023fd9 f i XMLDTDDescription.obj
 0001:00023004       ?setPublicId@XMLEntityDecl@xercesc_3_1@@QAEXQB_W@Z 12024004 f i XMLDTDDescription.obj
 0001:0002302f       ?setSystemId@XMLEntityDecl@xercesc_3_1@@QAEXQB_W@Z 1202402f f i XMLDTDDescription.obj
 0001:0002305a       ?setBaseURI@XMLEntityDecl@xercesc_3_1@@QAEXQB_W@Z 1202405a f i XMLDTDDescription.obj
 0001:00023085       ?setValue@XMLEntityDecl@xercesc_3_1@@QAEXQB_W@Z 12024085 f i XMLDTDDescription.obj
 0001:000230bc       ??_FXMLNotationDecl@xercesc_3_1@@QAEXXZ 120240bc f i XMLDTDDescription.obj
 0001:000230c8       ?setPublicId@XMLNotationDecl@xercesc_3_1@@QAEXQB_W@Z 120240c8 f i XMLDTDDescription.obj
 0001:000230f3       ?setSystemId@XMLNotationDecl@xercesc_3_1@@QAEXQB_W@Z 120240f3 f i XMLDTDDescription.obj
 0001:0002311e       ?setBaseURI@XMLNotationDecl@xercesc_3_1@@QAEXQB_W@Z 1202411e f i XMLDTDDescription.obj
 0001:00023149       ??0Grammar@xercesc_3_1@@IAE@XZ 12024149 f i XMLDTDDescription.obj
 0001:00023152       ??_EXMLNumber@xercesc_3_1@@UAEPAXI@Z 12024152 f i XMLNumber.obj
 0001:00023152       ??_EGrammar@xercesc_3_1@@UAEPAXI@Z 12024152 f i XMLDTDDescription.obj
 0001:0002319e       ??_FXMLGrammarDescription@xercesc_3_1@@QAEXXZ 1202419e f i XMLDTDDescription.obj
 0001:000231ad       ??_FXMLDTDDescription@xercesc_3_1@@QAEXXZ 120241ad f i XMLDTDDescription.obj
 0001:000231bc       ??0XMLDTDDescription@xercesc_3_1@@IAE@QAVMemoryManager@1@@Z 120241bc f   XMLDTDDescription.obj
 0001:000231d1       ?getProtoType@XMLDTDDescription@xercesc_3_1@@UBEPAVXProtoType@2@XZ 120241d1 f   XMLDTDDescription.obj
 0001:000231d7       ??_EXMLElementDecl@xercesc_3_1@@UAEPAXI@Z 120241d7 f i XMLElementDecl.obj
 0001:00023222       ??_FUnionDatatypeValidator@xercesc_3_1@@QAEXXZ 12024222 f i XMLElementDecl.obj
 0001:0002322e       ?newInstance@UnionDatatypeValidator@xercesc_3_1@@UAEPAVDatatypeValidator@2@QAV?$RefHashTableOf@VKVStringPair@xercesc_3_1@@UStringHasher@2@@2@QAV?$RefArrayVectorOf@_W@2@HQAVMemoryManager@2@@Z 1202422e f i XMLElementDecl.obj
 0001:00023275       ?cleanUp@UnionDatatypeValidator@xercesc_3_1@@AAEXXZ 12024275 f i XMLElementDecl.obj
 0001:000232a0       ?setEnumeration@UnionDatatypeValidator@xercesc_3_1@@AAEXPAV?$RefArrayVectorOf@_W@2@_N@Z 120242a0 f i XMLElementDecl.obj
 0001:000232d4       ?isAtomic@UnionDatatypeValidator@xercesc_3_1@@UBE_NXZ 120242d4 f i XMLElementDecl.obj
 0001:00023317       ?isSubstitutableBy@UnionDatatypeValidator@xercesc_3_1@@UAE_NQBVDatatypeValidator@2@@Z 12024317 f i XMLElementDecl.obj
 0001:00023383       ??_FSchemaAttDef@xercesc_3_1@@QAEXXZ 12024383 f i XMLElementDecl.obj
 0001:0002338f       ?setDatatypeValidator@SchemaAttDef@xercesc_3_1@@QAEXPAVDatatypeValidator@2@@Z 1202438f f i XMLElementDecl.obj
 0001:0002338f       ?setTokenFactory@RegxParser@xercesc_3_1@@QAEXQAVTokenFactory@2@@Z 1202438f f i ParserForXMLSchema.obj
 0001:0002338f       ?setEntityRef@DOMEntityImpl@xercesc_3_1@@UAEXPAVDOMEntityReference@2@@Z 1202438f f i DOMEntityImpl.obj
 0001:0002339c       ?resetNamespaceList@SchemaAttDef@xercesc_3_1@@QAEXXZ 1202439c f i XMLElementDecl.obj
 0001:000233ae       ?setNamespaceList@SchemaAttDef@xercesc_3_1@@QAEXQBV?$ValueVectorOf@I@2@@Z 120243ae f i XMLElementDecl.obj
 0001:00023417       ?setBaseAttDecl@SchemaAttDef@xercesc_3_1@@QAEXQAV12@@Z 12024417 f i XMLElementDecl.obj
 0001:00023417       ?setBaseDatatypeValidator@ComplexTypeInfo@xercesc_3_1@@QAEXQAVDatatypeValidator@2@@Z 12024417 f i XMLElementDecl.obj
 0001:00023424       ??_FComplexTypeInfo@xercesc_3_1@@QAEXXZ 12024424 f i XMLElementDecl.obj
 0001:00023430       ?getFinite@DatatypeValidator@xercesc_3_1@@QBE_NXZ 12024430 f i XMLAttr.obj
 0001:00023430       ?getAbstract@ComplexTypeInfo@xercesc_3_1@@QBE_NXZ 12024430 f i XMLElementDecl.obj
 0001:00023430       ?getUsed@XMLRefInfo@xercesc_3_1@@QBE_NXZ 12024430 f i XMLGrammarPoolImpl.obj
 0001:00023434       ?containsAttWithTypeId@ComplexTypeInfo@xercesc_3_1@@QBE_NXZ 12024434 f i XMLElementDecl.obj
 0001:00023434       ?getNumeric@DatatypeValidator@xercesc_3_1@@QBE_NXZ 12024434 f i XMLAttr.obj
 0001:00023438       ?elementCount@ComplexTypeInfo@xercesc_3_1@@QBEKXZ 12024438 f i XMLElementDecl.obj
 0001:00023446       ?getAttDef@ComplexTypeInfo@xercesc_3_1@@QBEPBVSchemaAttDef@2@QB_WH@Z 12024446 f i XMLElementDecl.obj
 0001:00023446       ?getAttDef@ComplexTypeInfo@xercesc_3_1@@QAEPAVSchemaAttDef@2@QB_WH@Z 12024446 f i XMLElementDecl.obj
 0001:0002345b       ?elementAt@ComplexTypeInfo@xercesc_3_1@@QBEPBVSchemaElementDecl@2@K@Z 1202445b f i XMLElementDecl.obj
 0001:0002345b       ?elementAt@ComplexTypeInfo@xercesc_3_1@@QAEPAVSchemaElementDecl@2@K@Z 1202445b f i XMLElementDecl.obj
 0001:00023480       ?getContentModel@ComplexTypeInfo@xercesc_3_1@@QAEPAVXMLContentModel@2@_N@Z 12024480 f i XMLElementDecl.obj
 0001:000234a5       ?getAnonymous@DatatypeValidator@xercesc_3_1@@QBE_NXZ 120244a5 f i XMLAttr.obj
 0001:000234a5       ?getDeclared@XMLRefInfo@xercesc_3_1@@QBE_NXZ 120244a5 f i XMLGrammarPoolImpl.obj
 0001:000234a5       ?getCheckElementConsistency@XercesGroupInfo@xercesc_3_1@@QBE_NXZ 120244a5 f i XMLGrammarPoolImpl.obj
 0001:000234a5       ?getAnonymous@ComplexTypeInfo@xercesc_3_1@@QBE_NXZ 120244a5 f i XMLElementDecl.obj
 0001:000234a5       ?getExitOnFirstFatal@XSDErrorReporter@xercesc_3_1@@QBE_NXZ 120244a5 f i IGXMLScanner.obj
 0001:000234a5       ?containsTypeWithId@XercesAttGroupInfo@xercesc_3_1@@QBE_NXZ 120244a5 f i XMLGrammarPoolImpl.obj
 0001:000234a9       ?setFinite@DatatypeValidator@xercesc_3_1@@IAEX_N@Z 120244a9 f i XMLAttr.obj
 0001:000234a9       ?setUsed@XMLRefInfo@xercesc_3_1@@QAEX_N@Z 120244a9 f i XMLGrammarPoolImpl.obj
 0001:000234a9       ?setAbstract@ComplexTypeInfo@xercesc_3_1@@QAEX_N@Z 120244a9 f i XMLElementDecl.obj
 0001:000234b6       ?setNumeric@DatatypeValidator@xercesc_3_1@@IAEX_N@Z 120244b6 f i XMLAttr.obj
 0001:000234b6       ?setAttWithTypeId@ComplexTypeInfo@xercesc_3_1@@QAEX_N@Z 120244b6 f i XMLElementDecl.obj
 0001:000234c3       ?setFilter@DOMLSSerializerImpl@xercesc_3_1@@UAEXPAVDOMLSSerializerFilter@2@@Z 120244c3 f i DOMLSSerializerImpl.obj
 0001:000234c3       ?setId@XMLAttDef@xercesc_3_1@@QAEXK@Z 120244c3 f i XMLAttDef.obj
 0001:000234c3       ?setValidatingMemberType@ValidationContextImpl@xercesc_3_1@@UAEXPAVDatatypeValidator@2@@Z 120244c3 f i ValidationContextImpl.obj
 0001:000234c3       ?setGrammar@DTDValidator@xercesc_3_1@@UAEXPAVGrammar@2@@Z 120244c3 f i DGXMLScanner.obj
 0001:000234c3       ?setContentSpec@XercesGroupInfo@xercesc_3_1@@QAEXQAVContentSpecNode@2@@Z 120244c3 f i XMLGrammarPoolImpl.obj
 0001:000234c3       ?setType@DOMErrorImpl@xercesc_3_1@@QAEXPB_W@Z 120244c3 f i DOMLSParserImpl.obj
 0001:000234c3       ?setFinalSet@ComplexTypeInfo@xercesc_3_1@@QAEXH@Z 120244c3 f i XMLElementDecl.obj
 0001:000234c3       ?setFilter@DOMLSParserImpl@xercesc_3_1@@UAEXQAVDOMLSParserFilter@2@@Z 120244c3 f i DOMLSParserImpl.obj
 0001:000234d0       ?setTypeName@ComplexTypeInfo@xercesc_3_1@@QAEXQB_W@Z 120244d0 f i XMLElementDecl.obj
 0001:00023581       ?addElement@ComplexTypeInfo@xercesc_3_1@@QAEXQAVSchemaElementDecl@2@@Z 12024581 f i XMLElementDecl.obj
 0001:000235fa       ?setAttWildCard@ComplexTypeInfo@xercesc_3_1@@QAEXQAVSchemaAttDef@2@@Z 120245fa f i XMLElementDecl.obj
 0001:00023618       ?hasAttDefs@ComplexTypeInfo@xercesc_3_1@@QBE_NXZ 12024618 f i XMLElementDecl.obj
 0001:00023624       ?contains@ComplexTypeInfo@xercesc_3_1@@QAE_NQB_W@Z 12024624 f i XMLElementDecl.obj
 0001:000236b7       ?cleanUp@XPathMatcher@xercesc_3_1@@AAEXXZ 120246b7 f i XMLElementDecl.obj
 0001:000236ea       ??_FIC_Field@xercesc_3_1@@QAEXXZ 120246ea f i XMLElementDecl.obj
 0001:000236f9       ??1SelectorMatcher@xercesc_3_1@@UAE@XZ 120246f9 f i XSIDCDefinition.obj
 0001:000236f9       ??1FieldMatcher@xercesc_3_1@@UAE@XZ 120246f9 f i XMLElementDecl.obj
 0001:000236f9       ??1XPathMatcher@xercesc_3_1@@UAE@XZ 120246f9 f i XPathMatcher.obj
 0001:00023704       ??_EFieldMatcher@xercesc_3_1@@UAEPAXI@Z 12024704 f i XMLElementDecl.obj
 0001:00023755       ?getFieldCount@IdentityConstraint@xercesc_3_1@@QBEKXZ 12024755 f i XMLElementDecl.obj
 0001:00023755       ?attributeCount@XercesAttGroupInfo@xercesc_3_1@@QBEKXZ 12024755 f i XMLGrammarPoolImpl.obj
 0001:00023763       ?addField@IdentityConstraint@xercesc_3_1@@QAEXQAVIC_Field@2@@Z 12024763 f i XMLElementDecl.obj
 0001:000237be       ?getFieldAt@IdentityConstraint@xercesc_3_1@@QAEPAVIC_Field@2@K@Z 120247be f i XMLElementDecl.obj
 0001:000237be       ?getFieldAt@IdentityConstraint@xercesc_3_1@@QBEPBVIC_Field@2@K@Z 120247be f i XMLElementDecl.obj
 0001:000237e5       ??_FSchemaElementDecl@xercesc_3_1@@QAEXXZ 120247e5 f i XMLElementDecl.obj
 0001:000237f1       ?getContentSpec@SchemaElementDecl@xercesc_3_1@@UAEPAVContentSpecNode@2@XZ 120247f1 f i XMLElementDecl.obj
 0001:000237f1       ?getContentSpec@SchemaElementDecl@xercesc_3_1@@UBEPBVContentSpecNode@2@XZ 120247f1 f i XMLElementDecl.obj
 0001:000237ff       ?getContentModel@SchemaElementDecl@xercesc_3_1@@UAEPAVXMLContentModel@2@XZ 120247ff f i XMLElementDecl.obj
 0001:00023811       ?getModelType@SchemaElementDecl@xercesc_3_1@@QBE?AW4ModelTypes@12@XZ 12024811 f i XMLElementDecl.obj
 0001:00023820       ?isGlobalDecl@SchemaElementDecl@xercesc_3_1@@UBE_NXZ 12024820 f i XMLElementDecl.obj
 0001:0002382a       ?setDefaultValue@SchemaElementDecl@xercesc_3_1@@QAEXQB_W@Z 1202482a f i XMLElementDecl.obj
 0001:00023855       ?setComplexTypeInfo@SchemaElementDecl@xercesc_3_1@@QAEXQAVComplexTypeInfo@2@@Z 12024855 f i XMLElementDecl.obj
 0001:00023862       ?setAttWildCard@SchemaElementDecl@xercesc_3_1@@QAEXQAVSchemaAttDef@2@@Z 12024862 f i XMLElementDecl.obj
 0001:00023880       ?addIdentityConstraint@SchemaElementDecl@xercesc_3_1@@QAEXQAVIdentityConstraint@2@@Z 12024880 f i XMLElementDecl.obj
 0001:000238dc       ?getIdentityConstraintCount@SchemaElementDecl@xercesc_3_1@@QBEKXZ 120248dc f i XMLElementDecl.obj
 0001:000238ea       ?getIdentityConstraintAt@SchemaElementDecl@xercesc_3_1@@QBEPAVIdentityConstraint@2@K@Z 120248ea f i XMLElementDecl.obj
 0001:00023913       ??_FDTDAttDef@xercesc_3_1@@QAEXXZ 12024913 f i XMLElementDecl.obj
 0001:0002391f       ??_FDTDElementDecl@xercesc_3_1@@QAEXXZ 1202491f f i XMLElementDecl.obj
 0001:0002392b       ?getContentModel@DTDElementDecl@xercesc_3_1@@UAEPAVXMLContentModel@2@XZ 1202492b f i XMLElementDecl.obj
 0001:00023941       ?setContentModel@DTDElementDecl@xercesc_3_1@@UAEXQAVXMLContentModel@2@@Z 12024941 f i XMLElementDecl.obj
 0001:00023973       ??1XMLElementDecl@xercesc_3_1@@UAE@XZ 12024973 f   XMLElementDecl.obj
 0001:000239a7       ?setElementName@XMLElementDecl@xercesc_3_1@@QAEXQB_W0H@Z 120249a7 f   XMLElementDecl.obj
 0001:00023a08       ?setElementName@XMLElementDecl@xercesc_3_1@@QAEXQB_WH@Z 12024a08 f   XMLElementDecl.obj
 0001:00023a63       ?setElementName@XMLElementDecl@xercesc_3_1@@QAEXQBVQName@2@@Z 12024a63 f   XMLElementDecl.obj
 0001:00023ab5       ??0XMLElementDecl@xercesc_3_1@@IAE@QAVMemoryManager@1@@Z 12024ab5 f   XMLElementDecl.obj
 0001:00023adc       ?getProtoType@XMLElementDecl@xercesc_3_1@@UBEPAVXProtoType@2@XZ 12024adc f   XMLElementDecl.obj
 0001:00023ae2       ?serialize@XMLElementDecl@xercesc_3_1@@UAEXAAVXSerializeEngine@2@@Z 12024ae2 f   XMLElementDecl.obj
 0001:00023b58       ?storeElementDecl@XMLElementDecl@xercesc_3_1@@SAXAAVXSerializeEngine@2@QAV12@@Z 12024b58 f   XMLElementDecl.obj
 0001:00023b8b       ?loadElementDecl@XMLElementDecl@xercesc_3_1@@SAPAV12@AAVXSerializeEngine@2@@Z 12024b8b f   XMLElementDecl.obj
 0001:00023bc0       ??1?$XMLEnumerator@VSchemaAttDef@xercesc_3_1@@@xercesc_3_1@@UAE@XZ 12024bc0 f i XMLElementDecl.obj
 0001:00023bc7       ??_E?$XMLEnumerator@VSchemaAttDef@xercesc_3_1@@@xercesc_3_1@@UAEPAXI@Z 12024bc7 f i  CIL library: CIL module
 0001:00023bc7       ??_G?$XMLEnumerator@VSchemaAttDef@xercesc_3_1@@@xercesc_3_1@@UAEPAXI@Z 12024bc7 f i XMLElementDecl.obj
 0001:00023be8       ??0?$ValueVectorOf@I@xercesc_3_1@@QAE@ABV01@@Z 12024be8 f i XMLElementDecl.obj
 0001:00023be8       ??0?$ValueVectorOf@PAVIC_Field@xercesc_3_1@@@xercesc_3_1@@QAE@ABV01@@Z 12024be8 f i FieldValueMap.obj
 0001:00023be8       ??0?$ValueVectorOf@PAVDatatypeValidator@xercesc_3_1@@@xercesc_3_1@@QAE@ABV01@@Z 12024be8 f i FieldValueMap.obj
 0001:00023be8       ??0?$ValueVectorOf@PAVSchemaElementDecl@xercesc_3_1@@@xercesc_3_1@@QAE@ABV01@@Z 12024be8 f i TraverseSchema.obj
 0001:00023c40       ??4?$ValueVectorOf@I@xercesc_3_1@@QAEAAV01@ABV01@@Z 12024c40 f i XMLElementDecl.obj
 0001:00023c90       ??1?$BaseRefVectorOf@VSchemaElementDecl@xercesc_3_1@@@xercesc_3_1@@UAE@XZ 12024c90 f i XMLElementDecl.obj
 0001:00023c97       ??0?$RefVectorOf@VSchemaElementDecl@xercesc_3_1@@@xercesc_3_1@@QAE@K_NQAVMemoryManager@1@@Z 12024c97 f i XMLElementDecl.obj
 0001:00023cd7       ??0?$RefHash2KeysTableOfEnumerator@VSchemaAttDef@xercesc_3_1@@UStringHasher@2@@xercesc_3_1@@QAE@QAV?$RefHash2KeysTableOf@VSchemaAttDef@xercesc_3_1@@UStringHasher@2@@1@_NQAVMemoryManager@1@@Z 12024cd7 f i XMLElementDecl.obj
 0001:00023d3b       ??1?$RefHash2KeysTableOfEnumerator@VSchemaAttDef@xercesc_3_1@@UStringHasher@2@@xercesc_3_1@@UAE@XZ 12024d3b f i XMLElementDecl.obj
 0001:00023d74       ??1?$BaseRefVectorOf@VIC_Field@xercesc_3_1@@@xercesc_3_1@@UAE@XZ 12024d74 f i XMLElementDecl.obj
 0001:00023d7b       ?removeElementAt@?$BaseRefVectorOf@VKVStringPair@xercesc_3_1@@@xercesc_3_1@@UAEXK@Z 12024d7b f i IGXMLScanner.obj
 0001:00023d7b       ?removeElementAt@?$BaseRefVectorOf@VDOMImplementation@xercesc_3_1@@@xercesc_3_1@@UAEXK@Z 12024d7b f i DOMImplementationListImpl.obj
 0001:00023d7b       ?removeElementAt@?$BaseRefVectorOf@VIdentityConstraint@xercesc_3_1@@@xercesc_3_1@@UAEXK@Z 12024d7b f i XMLElementDecl.obj
 0001:00023d7b       ?removeElementAt@?$BaseRefVectorOf@VXSObject@xercesc_3_1@@@xercesc_3_1@@UAEXK@Z 12024d7b f i XSModel.obj
 0001:00023d7b       ?removeElementAt@?$BaseRefVectorOf@VDOMRangeImpl@xercesc_3_1@@@xercesc_3_1@@UAEXK@Z 12024d7b f i DOMDocumentImpl.obj
 0001:00023d7b       ?removeElementAt@?$BaseRefVectorOf@VXSAttributeUse@xercesc_3_1@@@xercesc_3_1@@UAEXK@Z 12024d7b f i XSObjectFactory.obj
 0001:00023d7b       ?removeElementAt@?$BaseRefVectorOf@VXSAnnotation@xercesc_3_1@@@xercesc_3_1@@UAEXK@Z 12024d7b f i XSComplexTypeDefinition.obj
 0001:00023d7b       ?removeElementAt@?$BaseRefVectorOf@VXercesLocationPath@xercesc_3_1@@@xercesc_3_1@@UAEXK@Z 12024d7b f i XTemplateSerializer.obj
 0001:00023d7b       ?removeElementAt@?$BaseRefVectorOf@VDatatypeValidator@xercesc_3_1@@@xercesc_3_1@@UAEXK@Z 12024d7b f i XTemplateSerializer.obj
 0001:00023d7b       ?removeElementAt@?$BaseRefVectorOf@VMatch@xercesc_3_1@@@xercesc_3_1@@UAEXK@Z 12024d7b f i RegularExpression.obj
 0001:00023d7b       ?removeElementAt@?$BaseRefVectorOf@VXercesStep@xercesc_3_1@@@xercesc_3_1@@UAEXK@Z 12024d7b f i XTemplateSerializer.obj
 0001:00023d7b       ?removeElementAt@?$BaseRefVectorOf@VXSParticle@xercesc_3_1@@@xercesc_3_1@@UAEXK@Z 12024d7b f i XSObjectFactory.obj
 0001:00023d7b       ?removeElementAt@?$BaseRefVectorOf@VIC_Field@xercesc_3_1@@@xercesc_3_1@@UAEXK@Z 12024d7b f i XMLElementDecl.obj
 0001:00023d7b       ?removeElementAt@?$BaseRefVectorOf@VSchemaElementDecl@xercesc_3_1@@@xercesc_3_1@@UAEXK@Z 12024d7b f i XMLElementDecl.obj
 0001:00023d7b       ?removeElementAt@?$BaseRefVectorOf@VDOMNode@xercesc_3_1@@@xercesc_3_1@@UAEXK@Z 12024d7b f i DOMDocumentImpl.obj
 0001:00023d7b       ?removeElementAt@?$BaseRefVectorOf@VDOMDocumentImpl@xercesc_3_1@@@xercesc_3_1@@UAEXK@Z 12024d7b f i AbstractDOMParser.obj
 0001:00023d7b       ?removeElementAt@?$BaseRefVectorOf@VXMLElementDecl@xercesc_3_1@@@xercesc_3_1@@UAEXK@Z 12024d7b f i WFXMLScanner.obj
 0001:00023d7b       ?removeElementAt@?$BaseRefVectorOf@VXMLNumber@xercesc_3_1@@@xercesc_3_1@@UAEXK@Z 12024d7b f i XTemplateSerializer.obj
 0001:00023d7b       ?removeElementAt@?$BaseRefVectorOf@VXSMultiValueFacet@xercesc_3_1@@@xercesc_3_1@@UAEXK@Z 12024d7b f i XSObjectFactory.obj
 0001:00023d7b       ?removeElementAt@?$BaseRefVectorOf@VDOMImplementationSource@xercesc_3_1@@@xercesc_3_1@@UAEXK@Z 12024d7b f i DOMImplementationRegistry.obj
 0001:00023d7b       ?removeElementAt@?$BaseRefVectorOf@VXSFacet@xercesc_3_1@@@xercesc_3_1@@UAEXK@Z 12024d7b f i XSObjectFactory.obj
 0001:00023d7b       ?removeElementAt@?$BaseRefVectorOf@VENameMap@xercesc_3_1@@@xercesc_3_1@@UAEXK@Z 12024d7b f i TransService.obj
 0001:00023d7b       ?removeElementAt@?$BaseRefVectorOf@VXSIDCDefinition@xercesc_3_1@@@xercesc_3_1@@UAEXK@Z 12024d7b f i XSObjectFactory.obj
 0001:00023d7b       ?removeElementAt@?$BaseRefVectorOf@VXSSimpleTypeDefinition@xercesc_3_1@@@xercesc_3_1@@UAEXK@Z 12024d7b f i XSObjectFactory.obj
 0001:00023d7b       ?removeElementAt@?$BaseRefVectorOf@VToken@xercesc_3_1@@@xercesc_3_1@@UAEXK@Z 12024d7b f i TokenFactory.obj
 0001:00023d7b       ?removeElementAt@?$BaseRefVectorOf@VDOMNodeIteratorImpl@xercesc_3_1@@@xercesc_3_1@@UAEXK@Z 12024d7b f i DOMDocumentImpl.obj
 0001:00023d7b       ?removeElementAt@?$BaseRefVectorOf@VOp@xercesc_3_1@@@xercesc_3_1@@UAEXK@Z 12024d7b f i Op.obj
 0001:00023d7b       ?removeElementAt@?$BaseRefVectorOf@VXMLEntityDecl@xercesc_3_1@@@xercesc_3_1@@UAEXK@Z 12024d7b f i ReaderMgr.obj
 0001:00023d7b       ?removeElementAt@?$BaseRefVectorOf@VContentSpecNode@xercesc_3_1@@@xercesc_3_1@@UAEXK@Z 12024d7b f i XTemplateSerializer.obj
 0001:00023d7b       ?removeElementAt@?$BaseRefVectorOf@VXPathMatcher@xercesc_3_1@@@xercesc_3_1@@UAEXK@Z 12024d7b f i XPathMatcherStack.obj
 0001:00023d7b       ?removeElementAt@?$BaseRefVectorOf@VSchemaAttDef@xercesc_3_1@@@xercesc_3_1@@UAEXK@Z 12024d7b f i XMLGrammarPoolImpl.obj
 0001:00023e09       ??0?$RefVectorOf@VIC_Field@xercesc_3_1@@@xercesc_3_1@@QAE@K_NQAVMemoryManager@1@@Z 12024e09 f i XMLElementDecl.obj
 0001:00023e49       ??1?$BaseRefVectorOf@VIdentityConstraint@xercesc_3_1@@@xercesc_3_1@@UAE@XZ 12024e49 f i XMLElementDecl.obj
 0001:00023e50       ??0?$RefVectorOf@VIdentityConstraint@xercesc_3_1@@@xercesc_3_1@@QAE@K_NQAVMemoryManager@1@@Z 12024e50 f i XMLElementDecl.obj
 0001:00023e90       ??_G?$BaseRefVectorOf@VSchemaElementDecl@xercesc_3_1@@@xercesc_3_1@@UAEPAXI@Z 12024e90 f i XMLElementDecl.obj
 0001:00023e90       ??_E?$BaseRefVectorOf@VSchemaElementDecl@xercesc_3_1@@@xercesc_3_1@@UAEPAXI@Z 12024e90 f i  CIL library: CIL module
 0001:00023eb0       ??_E?$RefVectorOf@VSchemaElementDecl@xercesc_3_1@@@xercesc_3_1@@UAEPAXI@Z 12024eb0 f i  CIL library: CIL module
 0001:00023eb0       ??_G?$RefVectorOf@VSchemaElementDecl@xercesc_3_1@@@xercesc_3_1@@UAEPAXI@Z 12024eb0 f i XMLElementDecl.obj
 0001:00023f1a       ??_E?$RefHash2KeysTableOfEnumerator@VSchemaAttDef@xercesc_3_1@@UStringHasher@2@@xercesc_3_1@@UAEPAXI@Z 12024f1a f i  CIL library: CIL module
 0001:00023f1a       ??_G?$RefHash2KeysTableOfEnumerator@VSchemaAttDef@xercesc_3_1@@UStringHasher@2@@xercesc_3_1@@UAEPAXI@Z 12024f1a f i XMLElementDecl.obj
 0001:00023f39       ??_G?$BaseRefVectorOf@VIC_Field@xercesc_3_1@@@xercesc_3_1@@UAEPAXI@Z 12024f39 f i XMLElementDecl.obj
 0001:00023f39       ??_E?$BaseRefVectorOf@VIC_Field@xercesc_3_1@@@xercesc_3_1@@UAEPAXI@Z 12024f39 f i  CIL library: CIL module
 0001:00023f59       ??_E?$RefVectorOf@VIC_Field@xercesc_3_1@@@xercesc_3_1@@UAEPAXI@Z 12024f59 f i  CIL library: CIL module
 0001:00023f59       ??_G?$RefVectorOf@VIC_Field@xercesc_3_1@@@xercesc_3_1@@UAEPAXI@Z 12024f59 f i XMLElementDecl.obj
 0001:00023fc3       ??_E?$BaseRefVectorOf@VIdentityConstraint@xercesc_3_1@@@xercesc_3_1@@UAEPAXI@Z 12024fc3 f i  CIL library: CIL module
 0001:00023fc3       ??_G?$BaseRefVectorOf@VIdentityConstraint@xercesc_3_1@@@xercesc_3_1@@UAEPAXI@Z 12024fc3 f i XMLElementDecl.obj
 0001:00023fe3       ??_E?$RefVectorOf@VIdentityConstraint@xercesc_3_1@@@xercesc_3_1@@UAEPAXI@Z 12024fe3 f i  CIL library: CIL module
 0001:00023fe3       ??_G?$RefVectorOf@VIdentityConstraint@xercesc_3_1@@@xercesc_3_1@@UAEPAXI@Z 12024fe3 f i XMLElementDecl.obj
 0001:0002404d       ??_EXMLEntityDecl@xercesc_3_1@@UAEPAXI@Z 1202504d f i XMLEntityDecl.obj
 0001:00024098       ??0XMLEntityDecl@xercesc_3_1@@QAE@QAVMemoryManager@1@@Z 12025098 f   XMLEntityDecl.obj
 0001:000240ca       ??0XMLEntityDecl@xercesc_3_1@@QAE@QB_WQAVMemoryManager@1@@Z 120250ca f   XMLEntityDecl.obj
 0001:0002411f       ??0XMLEntityDecl@xercesc_3_1@@QAE@QB_W0QAVMemoryManager@1@@Z 1202511f f   XMLEntityDecl.obj
 0001:000241ac       ??0XMLEntityDecl@xercesc_3_1@@QAE@QB_W_WQAVMemoryManager@1@@Z 120251ac f   XMLEntityDecl.obj
 0001:00024241       ??1XMLEntityDecl@xercesc_3_1@@UAE@XZ 12025241 f   XMLEntityDecl.obj
 0001:0002426d       ?setName@XMLEntityDecl@xercesc_3_1@@QAEXQB_W@Z 1202526d f   XMLEntityDecl.obj
 0001:00024298       ?cleanUp@XMLEntityDecl@xercesc_3_1@@AAEXXZ 12025298 f   XMLEntityDecl.obj
 0001:000242df       ?getProtoType@XMLEntityDecl@xercesc_3_1@@UBEPAVXProtoType@2@XZ 120252df f   XMLEntityDecl.obj
 0001:000242e5       ?serialize@XMLEntityDecl@xercesc_3_1@@UAEXAAVXSerializeEngine@2@@Z 120252e5 f   XMLEntityDecl.obj
 0001:00024403       ?inEscapeList@XMLFormatter@xercesc_3_1@@AAE_NW4EscapeFlags@12@_W@Z 12025403 f   XMLFormatter.obj
 0001:00024451       ??0XMLFormatter@xercesc_3_1@@QAE@QBD0QAVXMLFormatTarget@1@W4EscapeFlags@01@W4UnRepFlags@01@QAVMemoryManager@1@@Z 12025451 f   XMLFormatter.obj
 0001:00024586       ??0XMLFormatter@xercesc_3_1@@QAE@QB_W0QAVXMLFormatTarget@1@W4EscapeFlags@01@W4UnRepFlags@01@QAVMemoryManager@1@@Z 12025586 f   XMLFormatter.obj
 0001:00024687       ??0XMLFormatter@xercesc_3_1@@QAE@QBDQAVXMLFormatTarget@1@W4EscapeFlags@01@W4UnRepFlags@01@QAVMemoryManager@1@@Z 12025687 f   XMLFormatter.obj
 0001:0002478c       ??0XMLFormatter@xercesc_3_1@@QAE@QB_WQAVXMLFormatTarget@1@W4EscapeFlags@01@W4UnRepFlags@01@QAVMemoryManager@1@@Z 1202578c f   XMLFormatter.obj
 0001:0002487f       ??1XMLFormatter@xercesc_3_1@@QAE@XZ 1202587f f   XMLFormatter.obj
 0001:000248f4       ?formatBuf@XMLFormatter@xercesc_3_1@@QAEXQB_WKW4EscapeFlags@12@W4UnRepFlags@12@@Z 120258f4 f   XMLFormatter.obj
 0001:00024a7b       ?handleUnEscapedChars@XMLFormatter@xercesc_3_1@@AAEKPB_WKW4UnRepFlags@12@@Z 12025a7b f   XMLFormatter.obj
 0001:00024b02       ??6XMLFormatter@xercesc_3_1@@QAEAAV01@QB_W@Z 12025b02 f   XMLFormatter.obj
 0001:00024b2a       ??6XMLFormatter@xercesc_3_1@@QAEAAV01@_W@Z 12025b2a f   XMLFormatter.obj
 0001:00024b57       ?writeBOM@XMLFormatter@xercesc_3_1@@QAEXQBEK@Z 12025b57 f   XMLFormatter.obj
 0001:00024b6f       ?writeCharRef@XMLFormatter@xercesc_3_1@@AAEXAB_W@Z 12025b6f f   XMLFormatter.obj
 0001:00024beb       ?writeCharRef@XMLFormatter@xercesc_3_1@@AAEXK@Z 12025beb f   XMLFormatter.obj
 0001:00024c7d       ?getCharRef@XMLFormatter@xercesc_3_1@@AAEPBEAAKAAPAEPB_W@Z 12025c7d f   XMLFormatter.obj
 0001:00024cf8       ?specialFormat@XMLFormatter@xercesc_3_1@@AAEXQB_WKW4EscapeFlags@12@@Z 12025cf8 f   XMLFormatter.obj
 0001:00024db3       ??1XMLSchemaDescription@xercesc_3_1@@UAE@XZ 12025db3 f   XMLSchemaDescription.obj
 0001:00024db3       ??1XMLAttDefList@xercesc_3_1@@UAE@XZ 12025db3 f   XMLAttDefList.obj
 0001:00024db3       ??1XMLDTDDescription@xercesc_3_1@@UAE@XZ 12025db3 f   XMLDTDDescription.obj
 0001:00024db3       ??1XSerializable@xercesc_3_1@@UAE@XZ 12025db3 f   KVStringPair.obj
 0001:00024db3       ??1Grammar@xercesc_3_1@@UAE@XZ 12025db3 f   XMLDTDDescription.obj
 0001:00024db3       ??1XMLGrammarDescription@xercesc_3_1@@UAE@XZ 12025db3 f   XMLGrammarDescription.obj
 0001:00024db3       ??1XMLNumber@xercesc_3_1@@UAE@XZ 12025db3 f   XMLNumber.obj
 0001:00024dba       ??0XMLGrammarDescription@xercesc_3_1@@IAE@QAVMemoryManager@1@@Z 12025dba f   XMLGrammarDescription.obj
 0001:00024dcf       ?getProtoType@XMLGrammarDescription@xercesc_3_1@@UBEPAVXProtoType@2@XZ 12025dcf f   XMLGrammarDescription.obj
 0001:00024dd5       ??1XMLGrammarPool@xercesc_3_1@@UAE@XZ 12025dd5 f i XMLGrammarPoolImpl.obj
 0001:00024ddc       ?setPreprocessed@ComplexTypeInfo@xercesc_3_1@@QAEX_N@Z 12025ddc f i XMLElementDecl.obj
 0001:00024ddc       ?setIgnoreSerializedAnnotations@XMLGrammarPool@xercesc_3_1@@QAEX_N@Z 12025ddc f i XMLGrammarPoolImpl.obj
 0001:00024de9       ?hasBackReferences@RegxParser@xercesc_3_1@@QBE_NXZ 12025de9 f i ParserForXMLSchema.obj
 0001:00024de9       ?getIgnoreSerializedAnnotations@XMLGrammarPool@xercesc_3_1@@QBE_NXZ 12025de9 f i XMLGrammarPoolImpl.obj
 0001:00024de9       ?getPreprocessed@ComplexTypeInfo@xercesc_3_1@@QBE_NXZ 12025de9 f i XMLElementDecl.obj
 0001:00024ded       ??0XMLGrammarPool@xercesc_3_1@@IAE@QAVMemoryManager@1@@Z 12025ded f i XMLGrammarPoolImpl.obj
 0001:00024e06       ??_FXMLGrammarPool@xercesc_3_1@@QAEXXZ 12025e06 f i XMLGrammarPoolImpl.obj
 0001:00024e19       ??_EXMLGrammarPool@xercesc_3_1@@UAEPAXI@Z 12025e19 f i XMLGrammarPoolImpl.obj
 0001:00024e65       ??_FXMLGrammarPoolImpl@xercesc_3_1@@QAEXXZ 12025e65 f i XMLGrammarPoolImpl.obj
 0001:00024e71       ??_EXMLGrammarPoolImpl@xercesc_3_1@@UAEPAXI@Z 12025e71 f i XMLGrammarPoolImpl.obj
 0001:00024ebc       ??_FXMLRefInfo@xercesc_3_1@@QAEXXZ 12025ebc f i XMLGrammarPoolImpl.obj
 0001:00024ed4       ??_EXMLRefInfo@xercesc_3_1@@UAEPAXI@Z 12025ed4 f i XMLGrammarPoolImpl.obj
 0001:00024f1f       ??0XMLRefInfo@xercesc_3_1@@QAE@QB_W_N1QAVMemoryManager@1@@Z 12025f1f f i XMLGrammarPoolImpl.obj
 0001:00024f68       ??1XMLRefInfo@xercesc_3_1@@UAE@XZ 12025f68 f i XMLGrammarPoolImpl.obj
 0001:00024f9a       ??_FContentSpecNode@xercesc_3_1@@QAEXXZ 12025f9a f i XMLGrammarPoolImpl.obj
 0001:00024fa6       ??_EContentSpecNode@xercesc_3_1@@UAEPAXI@Z 12025fa6 f i XMLGrammarPoolImpl.obj
 0001:00024ff1       ??0ContentSpecNode@xercesc_3_1@@QAE@QAVMemoryManager@1@@Z 12025ff1 f i XMLGrammarPoolImpl.obj
 0001:00025024       ??0ContentSpecNode@xercesc_3_1@@QAE@QAVQName@1@QAVMemoryManager@1@@Z 12026024 f i XMLGrammarPoolImpl.obj
 0001:00025098       ??0ContentSpecNode@xercesc_3_1@@QAE@QAVXMLElementDecl@1@QAVMemoryManager@1@@Z 12026098 f i XMLGrammarPoolImpl.obj
 0001:0002510e       ??0ContentSpecNode@xercesc_3_1@@QAE@QAVQName@1@_NQAVMemoryManager@1@@Z 1202610e f i XMLGrammarPoolImpl.obj
 0001:0002518d       ??0ContentSpecNode@xercesc_3_1@@QAE@W4NodeTypes@01@QAV01@1_N2QAVMemoryManager@1@@Z 1202618d f i XMLGrammarPoolImpl.obj
 0001:000251d1       ??1ContentSpecNode@xercesc_3_1@@UAE@XZ 120261d1 f i XMLGrammarPoolImpl.obj
 0001:0002522b       ?orphanFirst@ContentSpecNode@xercesc_3_1@@QAEPAV12@XZ 1202622b f i XMLGrammarPoolImpl.obj
 0001:00025233       ?orphanSecond@ContentSpecNode@xercesc_3_1@@QAEPAV12@XZ 12026233 f i XMLGrammarPoolImpl.obj
 0001:0002523b       ?setElement@ContentSpecNode@xercesc_3_1@@QAEXQAVQName@2@@Z 1202623b f i XMLGrammarPoolImpl.obj
 0001:00025293       ?setFirst@ContentSpecNode@xercesc_3_1@@QAEXQAV12@@Z 12026293 f i XMLGrammarPoolImpl.obj
 0001:000252b7       ?setSecond@ContentSpecNode@xercesc_3_1@@QAEXQAV12@@Z 120262b7 f i XMLGrammarPoolImpl.obj
 0001:000252db       ?setNormalizeData@XMLScanner@xercesc_3_1@@QAEX_N@Z 120262db f i XMLValidator.obj
 0001:000252db       ?setAdoptSecond@ContentSpecNode@xercesc_3_1@@QAEX_N@Z 120262db f i XMLGrammarPoolImpl.obj
 0001:000252e8       ?hasAllContent@ContentSpecNode@xercesc_3_1@@QAE_NXZ 120262e8 f i XMLGrammarPoolImpl.obj
 0001:00025304       ??_FDTDEntityDecl@xercesc_3_1@@QAEXXZ 12026304 f i XMLGrammarPoolImpl.obj
 0001:00025310       ??_EDTDEntityDecl@xercesc_3_1@@UAEPAXI@Z 12026310 f i XMLGrammarPoolImpl.obj
 0001:00025361       ??0DTDEntityDecl@xercesc_3_1@@QAE@QAVMemoryManager@1@@Z 12026361 f i XMLGrammarPoolImpl.obj
 0001:00025385       ??0DTDEntityDecl@xercesc_3_1@@QAE@QB_W_NQAVMemoryManager@1@@Z 12026385 f i XMLGrammarPoolImpl.obj
 0001:000253af       ??0DTDEntityDecl@xercesc_3_1@@QAE@QB_W0_NQAVMemoryManager@1@@Z 120263af f i XMLGrammarPoolImpl.obj
 0001:000253dc       ??0DTDEntityDecl@xercesc_3_1@@QAE@QB_W_W_N2@Z 120263dc f i XMLGrammarPoolImpl.obj
 0001:00025412       ??1DTDEntityDecl@xercesc_3_1@@UAE@XZ 12026412 f i XMLGrammarPoolImpl.obj
 0001:0002541d       ?getIsParameter@DTDEntityDecl@xercesc_3_1@@UBE_NXZ 1202641d f i XMLGrammarPoolImpl.obj
 0001:00025421       ?getIsSpecialChar@DTDEntityDecl@xercesc_3_1@@UBE_NXZ 12026421 f i XMLGrammarPoolImpl.obj
 0001:00025425       ?setDeclaredInIntSubset@DTDEntityDecl@xercesc_3_1@@QAEX_N@Z 12026425 f i XMLGrammarPoolImpl.obj
 0001:00025432       ?setIsParameter@DTDEntityDecl@xercesc_3_1@@QAEX_N@Z 12026432 f i XMLGrammarPoolImpl.obj
 0001:0002543f       ?setIsSpecialChar@DTDEntityDecl@xercesc_3_1@@QAEX_N@Z 1202643f f i XMLGrammarPoolImpl.obj
 0001:0002544c       ??_FXercesGroupInfo@xercesc_3_1@@QAEXXZ 1202644c f i XMLGrammarPoolImpl.obj
 0001:00025458       ?elementCount@XercesGroupInfo@xercesc_3_1@@QBEKXZ 12026458 f i XMLGrammarPoolImpl.obj
 0001:0002545f       ?elementAt@XercesGroupInfo@xercesc_3_1@@QBEPBVSchemaElementDecl@2@K@Z 1202645f f i XMLGrammarPoolImpl.obj
 0001:0002545f       ?elementAt@XercesGroupInfo@xercesc_3_1@@QAEPAVSchemaElementDecl@2@K@Z 1202645f f i XMLGrammarPoolImpl.obj
 0001:00025480       ?addElement@XercesGroupInfo@xercesc_3_1@@QAEXQAVSchemaElementDecl@2@@Z 12026480 f i XMLGrammarPoolImpl.obj
 0001:000254af       ?setTypeWithId@XercesAttGroupInfo@xercesc_3_1@@QAEX_N@Z 120264af f i XMLGrammarPoolImpl.obj
 0001:000254af       ?setExitOnFirstFatal@XSDErrorReporter@xercesc_3_1@@QAEX_N@Z 120264af f i IGXMLScanner.obj
 0001:000254af       ?setDeclared@XMLRefInfo@xercesc_3_1@@QAEX_N@Z 120264af f i XMLGrammarPoolImpl.obj
 0001:000254af       ?setCheckElementConsistency@XercesGroupInfo@xercesc_3_1@@QAEX_N@Z 120264af f i XMLGrammarPoolImpl.obj
 0001:000254af       ?setAdoptLocation@DOMErrorImpl@xercesc_3_1@@QAEX_N@Z 120264af f i DOMLSParserImpl.obj
 0001:000254bc       ??_FXercesAttGroupInfo@xercesc_3_1@@QAEXXZ 120264bc f i XMLGrammarPoolImpl.obj
 0001:000254c8       ?anyAttributeCount@XercesAttGroupInfo@xercesc_3_1@@QBEKXZ 120264c8 f i XMLGrammarPoolImpl.obj
 0001:000254d6       ?attributeAt@XercesAttGroupInfo@xercesc_3_1@@QAEPAVSchemaAttDef@2@K@Z 120264d6 f i XMLGrammarPoolImpl.obj
 0001:000254d6       ?attributeAt@XercesAttGroupInfo@xercesc_3_1@@QBEPBVSchemaAttDef@2@K@Z 120264d6 f i XMLGrammarPoolImpl.obj
 0001:000254ff       ?anyAttributeAt@XercesAttGroupInfo@xercesc_3_1@@QBEPBVSchemaAttDef@2@K@Z 120264ff f i XMLGrammarPoolImpl.obj
 0001:000254ff       ?anyAttributeAt@XercesAttGroupInfo@xercesc_3_1@@QAEPAVSchemaAttDef@2@K@Z 120264ff f i XMLGrammarPoolImpl.obj
 0001:00025528       ?addAttDef@XercesAttGroupInfo@xercesc_3_1@@QAEXQAVSchemaAttDef@2@_N@Z 12026528 f i XMLGrammarPoolImpl.obj
 0001:000255c2       ?addAnyAttDef@XercesAttGroupInfo@xercesc_3_1@@QAEXQAVSchemaAttDef@2@_N@Z 120265c2 f i XMLGrammarPoolImpl.obj
 0001:0002565c       ?setCompleteWildCard@XercesAttGroupInfo@xercesc_3_1@@QAEXQAVSchemaAttDef@2@@Z 1202665c f i XMLGrammarPoolImpl.obj
 0001:0002567a       ?getScanner@SAXParser@xercesc_3_1@@IBEABVXMLScanner@2@XZ 1202667a f i SAX2XMLReaderImpl.obj
 0001:0002567a       ?getMinInclusive@AbstractNumericFacetValidator@xercesc_3_1@@QBEPAVXMLNumber@2@XZ 1202667a f i AbstractNumericFacetValidator.obj
 0001:0002567a       ?getEnumString@AbstractStringValidator@xercesc_3_1@@UBEPBV?$RefArrayVectorOf@_W@2@XZ 1202667a f i AbstractStringValidator.obj
 0001:0002567a       ?getEnumeration@AbstractStringValidator@xercesc_3_1@@QBEPAV?$RefArrayVectorOf@_W@2@XZ 1202667a f i XMLGrammarPoolImpl.obj
 0001:0002567a       ?getAnonTypeCount@SchemaGrammar@xercesc_3_1@@QBEIXZ 1202667a f i XMLGrammarPoolImpl.obj
 0001:0002567e       ?setSchemaTypeInfo@DOMElementNSImpl@xercesc_3_1@@UAEXPBVDOMTypeInfoImpl@2@@Z 1202667e f i DOMElementNSImpl.obj
 0001:0002567e       ?setLength@AbstractStringValidator@xercesc_3_1@@IAEXK@Z 1202667e f i XMLGrammarPoolImpl.obj
 0001:0002567e       ?setBaseComplexTypeInfo@ComplexTypeInfo@xercesc_3_1@@QAEXQAV12@@Z 1202667e f i XMLElementDecl.obj
 0001:0002568b       ?setMaxLength@AbstractStringValidator@xercesc_3_1@@IAEXK@Z 1202668b f i XMLGrammarPoolImpl.obj
 0001:0002568b       ?setSubstitutionGroupElem@SchemaElementDecl@xercesc_3_1@@QAEXQAV12@@Z 1202668b f i XMLElementDecl.obj
 0001:00025698       ?setMinLength@AbstractStringValidator@xercesc_3_1@@IAEXK@Z 12026698 f i XMLGrammarPoolImpl.obj
 0001:00025698       ?setDatatypeValidator@SchemaElementDecl@xercesc_3_1@@QAEXPAVDatatypeValidator@2@@Z 12026698 f i XMLElementDecl.obj
 0001:000256a5       ?setEnumeration@AbstractStringValidator@xercesc_3_1@@IAEXPAV?$RefArrayVectorOf@_W@2@_N@Z 120266a5 f i XMLGrammarPoolImpl.obj
 0001:000256d9       ??_FStringDatatypeValidator@xercesc_3_1@@QAEXXZ 120266d9 f i XMLGrammarPoolImpl.obj
 0001:000256e5       ??_FIDDatatypeValidator@xercesc_3_1@@QAEXXZ 120266e5 f i XMLGrammarPoolImpl.obj
 0001:000256f1       ??_FDatatypeValidatorFactory@xercesc_3_1@@QAEXXZ 120266f1 f i XMLGrammarPoolImpl.obj
 0001:00025704       ?getDatatypeValidator@DatatypeValidatorFactory@xercesc_3_1@@QBEPAVDatatypeValidator@2@QB_W@Z 12026704 f i XMLGrammarPoolImpl.obj
 0001:0002574e       ?getBuiltInRegistry@DatatypeValidatorFactory@xercesc_3_1@@SAPAV?$RefHashTableOf@VDatatypeValidator@xercesc_3_1@@UStringHasher@2@@2@XZ 1202674e f i XMLGrammarPoolImpl.obj
 0001:00025754       ?cleanUp@DatatypeValidatorFactory@xercesc_3_1@@AAEXXZ 12026754 f i XMLGrammarPoolImpl.obj
 0001:00025769       ?getGrammarType@SchemaGrammar@xercesc_3_1@@UBE?AW4GrammarType@Grammar@2@XZ 12026769 f i XMLGrammarPoolImpl.obj
 0001:00025769       ?getNodeType@DOMElementImpl@xercesc_3_1@@UBE?AW4NodeType@DOMNode@2@XZ 12026769 f i DOMElementImpl.obj
 0001:00025769       ?getType@IC_Key@xercesc_3_1@@UBEFXZ 12026769 f i TraverseSchema.obj
 0001:00025769       ?getObjectType@DTDElementDecl@xercesc_3_1@@UBE?AW4objectType@XMLElementDecl@2@XZ 12026769 f i DTDElementDecl.obj
 0001:00025769       ?getGrammarType@XMLSchemaDescription@xercesc_3_1@@UBE?AW4GrammarType@Grammar@2@XZ 12026769 f i XMLGrammarPoolImpl.obj
 0001:00025769       ?size@ParenToken@xercesc_3_1@@UBEKXZ 12026769 f i ParenToken.obj
 0001:00025769       ?size@ClosureToken@xercesc_3_1@@UBEKXZ 12026769 f i ClosureToken.obj
 0001:0002576d       ??_FXMLSchemaDescription@xercesc_3_1@@QAEXXZ 1202676d f i XMLGrammarPoolImpl.obj
 0001:0002577c       ??_FSchemaGrammar@xercesc_3_1@@QAEXXZ 1202677c f i XMLGrammarPoolImpl.obj
 0001:00025788       ?getElemEnumerator@SchemaGrammar@xercesc_3_1@@QBE?AV?$RefHash3KeysIdPoolEnumerator@VSchemaElementDecl@xercesc_3_1@@UStringHasher@2@@2@XZ 12026788 f i XMLGrammarPoolImpl.obj
 0001:000257a5       ?getNotationEnumerator@SchemaGrammar@xercesc_3_1@@QBE?AV?$NameIdPoolEnumerator@VXMLNotationDecl@xercesc_3_1@@@2@XZ 120267a5 f i XMLGrammarPoolImpl.obj
 0001:000257cc       ?getDatatypeRegistry@SchemaGrammar@xercesc_3_1@@QAEPAVDatatypeValidatorFactory@2@XZ 120267cc f i XMLGrammarPoolImpl.obj
 0001:000257d0       ?getAnnotation@SchemaGrammar@xercesc_3_1@@QBEPBVXSAnnotation@2@QBX@Z 120267d0 f i XMLGrammarPoolImpl.obj
 0001:000257d0       ?getAnnotation@SchemaGrammar@xercesc_3_1@@QAEPAVXSAnnotation@2@QBX@Z 120267d0 f i XMLGrammarPoolImpl.obj
 0001:000257e4       ?getAnnotation@SchemaGrammar@xercesc_3_1@@QBEPBVXSAnnotation@2@XZ 120267e4 f i XMLGrammarPoolImpl.obj
 0001:000257e4       ?getAnnotation@SchemaGrammar@xercesc_3_1@@QAEPAVXSAnnotation@2@XZ 120267e4 f i XMLGrammarPoolImpl.obj
 0001:000257f1       ?setTargetNamespace@SchemaGrammar@xercesc_3_1@@QAEXQB_W@Z 120267f1 f i XMLGrammarPoolImpl.obj
 0001:0002581c       ?getElemId@SchemaGrammar@xercesc_3_1@@UBEKIQB_W0I@Z 1202681c f i XMLGrammarPoolImpl.obj
 0001:00025859       ?getElemDecl@SchemaGrammar@xercesc_3_1@@UAEPAVXMLElementDecl@2@IQB_W0I@Z 12026859 f i XMLGrammarPoolImpl.obj
 0001:00025859       ?getElemDecl@SchemaGrammar@xercesc_3_1@@UBEPBVXMLElementDecl@2@IQB_W0I@Z 12026859 f i XMLGrammarPoolImpl.obj
 0001:000258a4       ?getElemDecl@SchemaGrammar@xercesc_3_1@@UBEPBVXMLElementDecl@2@I@Z 120268a4 f i XMLGrammarPoolImpl.obj
 0001:000258a4       ?getElemDecl@SchemaGrammar@xercesc_3_1@@UAEPAVXMLElementDecl@2@I@Z 120268a4 f i XMLGrammarPoolImpl.obj
 0001:0002592a       ?putElemDecl@SchemaGrammar@xercesc_3_1@@UAEKQAVXMLElementDecl@2@_N@Z 1202692a f i XMLGrammarPoolImpl.obj
 0001:000259b4       ?putGroupElemDecl@SchemaGrammar@xercesc_3_1@@QBEKQAVXMLElementDecl@2@@Z 120269b4 f i XMLGrammarPoolImpl.obj
 0001:000259da       ?getNotationDecl@DTDGrammar@xercesc_3_1@@UAEPAVXMLNotationDecl@2@QB_W@Z 120269da f i XMLGrammarPoolImpl.obj
 0001:000259da       ?getNotationDecl@SchemaGrammar@xercesc_3_1@@UAEPAVXMLNotationDecl@2@QB_W@Z 120269da f i XMLGrammarPoolImpl.obj
 0001:000259da       ?getNotationDecl@DTDGrammar@xercesc_3_1@@UBEPBVXMLNotationDecl@2@QB_W@Z 120269da f i XMLGrammarPoolImpl.obj
 0001:000259da       ?getNotationDecl@SchemaGrammar@xercesc_3_1@@UBEPBVXMLNotationDecl@2@QB_W@Z 120269da f i XMLGrammarPoolImpl.obj
 0001:000259e6       ?putNotationDecl@DTDGrammar@xercesc_3_1@@UBEKQAVXMLNotationDecl@2@@Z 120269e6 f i XMLGrammarPoolImpl.obj
 0001:000259e6       ?putNotationDecl@SchemaGrammar@xercesc_3_1@@UBEKQAVXMLNotationDecl@2@@Z 120269e6 f i XMLGrammarPoolImpl.obj
 0001:000259fa       ?getValidated@SchemaGrammar@xercesc_3_1@@UBE_NXZ 120269fa f i XMLGrammarPoolImpl.obj
 0001:000259fe       ?setValidated@SchemaGrammar@xercesc_3_1@@UAEX_N@Z 120269fe f i XMLGrammarPoolImpl.obj
 0001:00025a0b       ?getAttDefList@ComplexTypeInfo@xercesc_3_1@@QBEAAVXMLAttDefList@2@XZ 12026a0b f i ComplexTypeInfo.obj
 0001:00025a0b       ?getScopeCount@SchemaGrammar@xercesc_3_1@@QBEIXZ 12026a0b f i XMLGrammarPoolImpl.obj
 0001:00025a0b       ?getMaxExclusive@AbstractNumericFacetValidator@xercesc_3_1@@QBEPAVXMLNumber@2@XZ 12026a0b f i AbstractNumericFacetValidator.obj
 0001:00025a0f       ?setScopeCount@SchemaGrammar@xercesc_3_1@@QAEXI@Z 12026a0f f i XMLGrammarPoolImpl.obj
 0001:00025a1c       ?setAnonTypeCount@SchemaGrammar@xercesc_3_1@@QAEXI@Z 12026a1c f i XMLGrammarPoolImpl.obj
 0001:00025a29       ??0XercesNamespaceResolver@xercesc_3_1@@QAE@XZ 12026a29 f i XMLGrammarPoolImpl.obj
 0001:00025a32       ??0XercesNamespaceResolver@xercesc_3_1@@QAE@ABV01@@Z 12026a32 f i XMLGrammarPoolImpl.obj
 0001:00025a3d       ??_FNamespaceScope@xercesc_3_1@@QAEXXZ 12026a3d f i XMLGrammarPoolImpl.obj
 0001:00025a49       ??1XercesNodeTest@xercesc_3_1@@UAE@XZ 12026a49 f i XMLGrammarPoolImpl.obj
 0001:00025a7d       ?getType@XercesNodeTest@xercesc_3_1@@QBEFXZ 12026a7d f i XMLGrammarPoolImpl.obj
 0001:00025a7d       ?getAxisType@XercesStep@xercesc_3_1@@QBEGXZ 12026a7d f i XMLGrammarPoolImpl.obj
 0001:00025a82       ??_FXercesNodeTest@xercesc_3_1@@QAEXXZ 12026a82 f i XMLGrammarPoolImpl.obj
 0001:00025a94       ??_EXercesNodeTest@xercesc_3_1@@UAEPAXI@Z 12026a94 f i XMLGrammarPoolImpl.obj
 0001:00025adf       ??1XercesStep@xercesc_3_1@@UAE@XZ 12026adf f i XMLGrammarPoolImpl.obj
 0001:00025b13       ??_FXercesStep@xercesc_3_1@@QAEXXZ 12026b13 f i XMLGrammarPoolImpl.obj
 0001:00025b25       ??_EXercesStep@xercesc_3_1@@UAEPAXI@Z 12026b25 f i XMLGrammarPoolImpl.obj
 0001:00025b70       ??1XercesLocationPath@xercesc_3_1@@UAE@XZ 12026b70 f i XMLGrammarPoolImpl.obj
 0001:00025ba4       ??_FXercesLocationPath@xercesc_3_1@@QAEXXZ 12026ba4 f i XMLGrammarPoolImpl.obj
 0001:00025baf       ??_EXercesLocationPath@xercesc_3_1@@UAEPAXI@Z 12026baf f i XMLGrammarPoolImpl.obj
 0001:00025bfa       ??_FXercesXPath@xercesc_3_1@@QAEXXZ 12026bfa f i XMLGrammarPoolImpl.obj
 0001:00025c14       ??1XPathScanner@xercesc_3_1@@UAE@XZ 12026c14 f i XMLGrammarPoolImpl.obj
 0001:00025c14       ??1XPathScannerForSchema@xercesc_3_1@@UAE@XZ 12026c14 f i XMLGrammarPoolImpl.obj
 0001:00025c1b       ??_EXPathScanner@xercesc_3_1@@UAEPAXI@Z 12026c1b f i XMLGrammarPoolImpl.obj
 0001:00025c1b       ??_EXPathScannerForSchema@xercesc_3_1@@UAEPAXI@Z 12026c1b f i XMLGrammarPoolImpl.obj
 0001:00025c67       ?getLength@DOMAttrMapImpl@xercesc_3_1@@UBEKXZ 12026c67 f i DOMAttrMapImpl.obj
 0001:00025c67       ?getStepSize@XercesLocationPath@xercesc_3_1@@QBEKXZ 12026c67 f i XMLGrammarPoolImpl.obj
 0001:00025c75       ?addStep@XercesLocationPath@xercesc_3_1@@QAEXQAVXercesStep@2@@Z 12026c75 f i XMLGrammarPoolImpl.obj
 0001:00025c81       ?getStep@XercesLocationPath@xercesc_3_1@@QBEPAVXercesStep@2@K@Z 12026c81 f i XMLGrammarPoolImpl.obj
 0001:00025caa       ?addToken@XPathScanner@xercesc_3_1@@MAEXQAV?$ValueVectorOf@H@2@H@Z 12026caa f i XMLGrammarPoolImpl.obj
 0001:00025cbf       ?getLineCol@XSAnnotation@xercesc_3_1@@QBEXAA_K0@Z 12026cbf f i XMLGrammarPoolImpl.obj
 0001:00025ce2       ?setLineCol@XSAnnotation@xercesc_3_1@@QAEX_K0@Z 12026ce2 f i XMLGrammarPoolImpl.obj
 0001:00025d01       ??_FDTDGrammar@xercesc_3_1@@QAEXXZ 12026d01 f i XMLGrammarPoolImpl.obj
 0001:00025d0d       ?getElemEnumerator@DTDGrammar@xercesc_3_1@@QBE?AV?$NameIdPoolEnumerator@VDTDElementDecl@xercesc_3_1@@@2@XZ 12026d0d f i XMLGrammarPoolImpl.obj
 0001:00025d34       ?getEntityEnumerator@DTDGrammar@xercesc_3_1@@QBE?AV?$NameIdPoolEnumerator@VDTDEntityDecl@xercesc_3_1@@@2@XZ 12026d34 f i XMLGrammarPoolImpl.obj
 0001:00025d5b       ?getNotationEnumerator@DTDGrammar@xercesc_3_1@@QBE?AV?$NameIdPoolEnumerator@VXMLNotationDecl@xercesc_3_1@@@2@XZ 12026d5b f i XMLGrammarPoolImpl.obj
 0001:00025d82       ?getEntityDecl@DTDGrammar@xercesc_3_1@@QBEPBVDTDEntityDecl@2@QB_W@Z 12026d82 f i XMLGrammarPoolImpl.obj
 0001:00025d82       ?getEntityDecl@DTDGrammar@xercesc_3_1@@QAEPAVDTDEntityDecl@2@QB_W@Z 12026d82 f i XMLGrammarPoolImpl.obj
 0001:00025da9       ?putEntityDecl@DTDGrammar@xercesc_3_1@@QBEKQAVDTDEntityDecl@2@@Z 12026da9 f i XMLGrammarPoolImpl.obj
 0001:00025dbd       ?getTargetNamespace@DTDGrammar@xercesc_3_1@@UBEPB_WXZ 12026dbd f i XMLGrammarPoolImpl.obj
 0001:00025dc3       ?getElemId@DTDGrammar@xercesc_3_1@@UBEKIQB_W0I@Z 12026dc3 f i XMLGrammarPoolImpl.obj
 0001:00025de1       ?getElemDecl@DTDGrammar@xercesc_3_1@@UBEPBVXMLElementDecl@2@IQB_W0I@Z 12026de1 f i XMLGrammarPoolImpl.obj
 0001:00025de1       ?getElemDecl@DTDGrammar@xercesc_3_1@@UAEPAVXMLElementDecl@2@IQB_W0I@Z 12026de1 f i XMLGrammarPoolImpl.obj
 0001:00025e0c       ?getElemDecl@DTDGrammar@xercesc_3_1@@UBEPBVXMLElementDecl@2@I@Z 12026e0c f i XMLGrammarPoolImpl.obj
 0001:00025e0c       ?getElemDecl@DTDGrammar@xercesc_3_1@@UAEPAVXMLElementDecl@2@I@Z 12026e0c f i XMLGrammarPoolImpl.obj
 0001:00025e4f       ?putElemDecl@DTDGrammar@xercesc_3_1@@UAEKQAVXMLElementDecl@2@_N@Z 12026e4f f i XMLGrammarPoolImpl.obj
 0001:00025eb6       ?getThrowEOE@ReaderMgr@xercesc_3_1@@QBE_NXZ 12026eb6 f i XMLValidator.obj
 0001:00025eb6       ?getIssueFatalErrorIfNotFound@DOMLSInputImpl@xercesc_3_1@@UBE_NXZ 12026eb6 f i DOMImplementationImpl.obj
 0001:00025eb6       ?getValidated@DTDGrammar@xercesc_3_1@@UBE_NXZ 12026eb6 f i XMLGrammarPoolImpl.obj
 0001:00025eb6       ?isFirstAdopted@ContentSpecNode@xercesc_3_1@@QBE_NXZ 12026eb6 f i XMLGrammarPoolImpl.obj
 0001:00025eb6       ?getLoadSchema@XMLScanner@xercesc_3_1@@QBE_NXZ 12026eb6 f i XMLValidator.obj
 0001:00025eba       ??_FXMLDTDDescriptionImpl@xercesc_3_1@@QAEXXZ 12026eba f i XMLGrammarPoolImpl.obj
 0001:00025ed1       ??_FXMLSchemaDescriptionImpl@xercesc_3_1@@QAEXXZ 12026ed1 f i XMLGrammarPoolImpl.obj
 0001:00025edd       ?createXSModel@XMLGrammarPoolImpl@xercesc_3_1@@EAEXXZ 12026edd f   XMLGrammarPoolImpl.obj
 0001:00025f36       ??_GXSModel@xercesc_3_1@@QAEPAXI@Z 12026f36 f i XMLGrammarPoolImpl.obj
 0001:00025f51       ??1XMLGrammarPoolImpl@xercesc_3_1@@UAE@XZ 12026f51 f   XMLGrammarPoolImpl.obj
 0001:00025fab       ??_G?$RefHashTableOf@VGrammar@xercesc_3_1@@UStringHasher@2@@xercesc_3_1@@QAEPAXI@Z 12026fab f i XMLGrammarPoolImpl.obj
 0001:00025fab       ??_G?$RefHashTableOf@VXMLRefInfo@xercesc_3_1@@UStringHasher@2@@xercesc_3_1@@QAEPAXI@Z 12026fab f i ValidationContextImpl.obj
 0001:00025fab       ??_G?$RefHashTableOf@VDatatypeValidator@xercesc_3_1@@UStringHasher@2@@xercesc_3_1@@QAEPAXI@Z 12026fab f i XMLGrammarPoolImpl.obj
 0001:00025fcc       ??0XMLGrammarPoolImpl@xercesc_3_1@@QAE@QAVMemoryManager@1@@Z 12026fcc f   XMLGrammarPoolImpl.obj
 0001:00026062       ?cacheGrammar@XMLGrammarPoolImpl@xercesc_3_1@@UAE_NQAVGrammar@2@@Z 12027062 f   XMLGrammarPoolImpl.obj
 0001:000260c3       ?retrieveGrammar@XMLGrammarPoolImpl@xercesc_3_1@@UAEPAVGrammar@2@QAVXMLGrammarDescription@2@@Z 120270c3 f   XMLGrammarPoolImpl.obj
 0001:000260e7       ?orphanGrammar@XMLGrammarPoolImpl@xercesc_3_1@@UAEPAVGrammar@2@QB_W@Z 120270e7 f   XMLGrammarPoolImpl.obj
 0001:00026127       ?getGrammarEnumerator@XMLGrammarPoolImpl@xercesc_3_1@@UBE?AV?$RefHashTableOfEnumerator@VGrammar@xercesc_3_1@@UStringHasher@2@@2@XZ 12027127 f   XMLGrammarPoolImpl.obj
 0001:00026144       ?clear@XMLGrammarPoolImpl@xercesc_3_1@@UAE_NXZ 12027144 f   XMLGrammarPoolImpl.obj
 0001:00026174       ?lockPool@XMLGrammarPoolImpl@xercesc_3_1@@UAEXXZ 12027174 f   XMLGrammarPoolImpl.obj
 0001:000261d8       ?unlockPool@XMLGrammarPoolImpl@xercesc_3_1@@UAEXXZ 120271d8 f   XMLGrammarPoolImpl.obj
 0001:00026218       ?createDTDGrammar@XMLGrammarPoolImpl@xercesc_3_1@@UAEPAVDTDGrammar@2@XZ 12027218 f   XMLGrammarPoolImpl.obj
 0001:00026252       ?createSchemaGrammar@XMLGrammarPoolImpl@xercesc_3_1@@UAEPAVSchemaGrammar@2@XZ 12027252 f   XMLGrammarPoolImpl.obj
 0001:0002628c       ?createDTDDescription@XMLGrammarPoolImpl@xercesc_3_1@@UAEPAVXMLDTDDescription@2@QB_W@Z 1202728c f   XMLGrammarPoolImpl.obj
 0001:000262cb       ?createSchemaDescription@XMLGrammarPoolImpl@xercesc_3_1@@UAEPAVXMLSchemaDescription@2@QB_W@Z 120272cb f   XMLGrammarPoolImpl.obj
 0001:0002630a       ?getXSModel@XMLGrammarPoolImpl@xercesc_3_1@@UAEPAVXSModel@2@AA_N@Z 1202730a f   XMLGrammarPoolImpl.obj
 0001:00026333       ?getURIStringPool@XMLGrammarPoolImpl@xercesc_3_1@@UAEPAVXMLStringPool@2@XZ 12027333 f   XMLGrammarPoolImpl.obj
 0001:00026341       ?serializeGrammars@XMLGrammarPoolImpl@xercesc_3_1@@UAEXQAVBinOutputStream@2@@Z 12027341 f   XMLGrammarPoolImpl.obj
 0001:00026448       ?deserializeGrammars@XMLGrammarPoolImpl@xercesc_3_1@@UAEXQAVBinInputStream@2@@Z 12027448 f   XMLGrammarPoolImpl.obj
 0001:00026627       ?cleanUp@XMLGrammarPoolImpl@xercesc_3_1@@AAEXXZ 12027627 f   XMLGrammarPoolImpl.obj
 0001:00026630       ??1?$XMLEnumerator@VSchemaElementDecl@xercesc_3_1@@@xercesc_3_1@@UAE@XZ 12027630 f i XMLGrammarPoolImpl.obj
 0001:00026637       ??1?$XMLEnumerator@VGrammar@xercesc_3_1@@@xercesc_3_1@@UAE@XZ 12027637 f i XMLGrammarPoolImpl.obj
 0001:0002663e       ??_G?$XMLEnumerator@VSchemaElementDecl@xercesc_3_1@@@xercesc_3_1@@UAEPAXI@Z 1202763e f i XMLGrammarPoolImpl.obj
 0001:0002663e       ??_E?$XMLEnumerator@VSchemaElementDecl@xercesc_3_1@@@xercesc_3_1@@UAEPAXI@Z 1202763e f i  CIL library: CIL module
 0001:0002665f       ??_E?$XMLEnumerator@VXMLNotationDecl@xercesc_3_1@@@xercesc_3_1@@UAEPAXI@Z 1202765f f i  CIL library: CIL module
 0001:0002665f       ??_G?$XMLEnumerator@VXMLNotationDecl@xercesc_3_1@@@xercesc_3_1@@UAEPAXI@Z 1202765f f i XMLGrammarPoolImpl.obj
 0001:00026680       ??_E?$XMLEnumerator@VDTDElementDecl@xercesc_3_1@@@xercesc_3_1@@UAEPAXI@Z 12027680 f i  CIL library: CIL module
 0001:00026680       ??_G?$XMLEnumerator@VDTDElementDecl@xercesc_3_1@@@xercesc_3_1@@UAEPAXI@Z 12027680 f i XMLGrammarPoolImpl.obj
 0001:000266a1       ??_G?$XMLEnumerator@VDTDEntityDecl@xercesc_3_1@@@xercesc_3_1@@UAEPAXI@Z 120276a1 f i XMLGrammarPoolImpl.obj
 0001:000266a1       ??_E?$XMLEnumerator@VDTDEntityDecl@xercesc_3_1@@@xercesc_3_1@@UAEPAXI@Z 120276a1 f i  CIL library: CIL module
 0001:000266c2       ??_E?$XMLEnumerator@VGrammar@xercesc_3_1@@@xercesc_3_1@@UAEPAXI@Z 120276c2 f i  CIL library: CIL module
 0001:000266c2       ??_G?$XMLEnumerator@VGrammar@xercesc_3_1@@@xercesc_3_1@@UAEPAXI@Z 120276c2 f i XMLGrammarPoolImpl.obj
 0001:000266e3       ??1?$BaseRefVectorOf@VSchemaAttDef@xercesc_3_1@@@xercesc_3_1@@UAE@XZ 120276e3 f i XMLGrammarPoolImpl.obj
 0001:000266ea       ??0?$RefVectorOf@VSchemaAttDef@xercesc_3_1@@@xercesc_3_1@@QAE@K_NQAVMemoryManager@1@@Z 120276ea f i XMLGrammarPoolImpl.obj
 0001:0002672a       ??0?$RefHash3KeysIdPoolEnumerator@VSchemaElementDecl@xercesc_3_1@@UStringHasher@2@@xercesc_3_1@@QAE@QAV?$RefHash3KeysIdPool@VSchemaElementDecl@xercesc_3_1@@UStringHasher@2@@1@_NQAVMemoryManager@1@@Z 1202772a f i XMLGrammarPoolImpl.obj
 0001:0002679e       ??1?$RefHash3KeysIdPoolEnumerator@VSchemaElementDecl@xercesc_3_1@@UStringHasher@2@@xercesc_3_1@@UAE@XZ 1202779e f i XMLGrammarPoolImpl.obj
 0001:000267d7       ?hasMoreElements@?$RefHash3KeysIdPoolEnumerator@VSchemaElementDecl@xercesc_3_1@@UStringHasher@2@@xercesc_3_1@@UBE_NXZ 120277d7 f i XMLGrammarPoolImpl.obj
 0001:000267ec       ?nextElement@?$RefHash3KeysIdPoolEnumerator@VSchemaElementDecl@xercesc_3_1@@UStringHasher@2@@xercesc_3_1@@UAEAAVSchemaElementDecl@2@XZ 120277ec f i XMLGrammarPoolImpl.obj
 0001:00026835       ?Reset@?$RefHash3KeysIdPoolEnumerator@VSchemaElementDecl@xercesc_3_1@@UStringHasher@2@@xercesc_3_1@@UAEXXZ 12027835 f i XMLGrammarPoolImpl.obj
 0001:00026844       ??1?$NameIdPoolEnumerator@VXMLNotationDecl@xercesc_3_1@@@xercesc_3_1@@UAE@XZ 12027844 f i XMLGrammarPoolImpl.obj
 0001:0002684b       ??0?$RefHash3KeysIdPool@VSchemaElementDecl@xercesc_3_1@@UStringHasher@2@@xercesc_3_1@@QAE@K_NKQAVMemoryManager@1@@Z 1202784b f i XMLGrammarPoolImpl.obj
 0001:000268da       ?getByKey@?$RefHash3KeysIdPool@VSchemaElementDecl@xercesc_3_1@@UStringHasher@2@@xercesc_3_1@@QAEPAVSchemaElementDecl@2@QBXHH@Z 120278da f i XMLGrammarPoolImpl.obj
 0001:000268fc       ?put@?$RefHash3KeysIdPool@VSchemaElementDecl@xercesc_3_1@@UStringHasher@2@@xercesc_3_1@@QAEKPAXHHQAVSchemaElementDecl@2@@Z 120278fc f i XMLGrammarPoolImpl.obj
 0001:000269fa       ?getByKey@?$NameIdPool@VDTDElementDecl@xercesc_3_1@@@xercesc_3_1@@QAEPAVDTDElementDecl@2@QB_W@Z 120279fa f i XMLGrammarPoolImpl.obj
 0001:000269fa       ?getByKey@?$NameIdPool@VDTDEntityDecl@xercesc_3_1@@@xercesc_3_1@@QAEPAVDTDEntityDecl@2@QB_W@Z 120279fa f i XMLGrammarPoolImpl.obj
 0001:000269fa       ?getByKey@?$NameIdPool@VXMLNotationDecl@xercesc_3_1@@@xercesc_3_1@@QAEPAVXMLNotationDecl@2@QB_W@Z 120279fa f i XMLGrammarPoolImpl.obj
 0001:00026a20       ?put@?$NameIdPool@VXMLNotationDecl@xercesc_3_1@@@xercesc_3_1@@QAEKQAVXMLNotationDecl@2@@Z 12027a20 f i XMLGrammarPoolImpl.obj
 0001:00026b36       ?addElement@?$BaseRefVectorOf@VXercesStep@xercesc_3_1@@@xercesc_3_1@@QAEXQAVXercesStep@2@@Z 12027b36 f i XMLGrammarPoolImpl.obj
 0001:00026b55       ??1?$NameIdPoolEnumerator@VDTDElementDecl@xercesc_3_1@@@xercesc_3_1@@UAE@XZ 12027b55 f i XMLGrammarPoolImpl.obj
 0001:00026b5c       ?nextElement@?$NameIdPoolEnumerator@VDTDElementDecl@xercesc_3_1@@@xercesc_3_1@@UAEAAVDTDElementDecl@2@XZ 12027b5c f i XMLGrammarPoolImpl.obj
 0001:00026b5c       ?nextElement@?$NameIdPoolEnumerator@VDTDEntityDecl@xercesc_3_1@@@xercesc_3_1@@UAEAAVDTDEntityDecl@2@XZ 12027b5c f i XMLGrammarPoolImpl.obj
 0001:00026b5c       ?nextElement@?$NameIdPoolEnumerator@VXMLNotationDecl@xercesc_3_1@@@xercesc_3_1@@UAEAAVXMLNotationDecl@2@XZ 12027b5c f i XMLGrammarPoolImpl.obj
 0001:00026ba5       ??1?$NameIdPoolEnumerator@VDTDEntityDecl@xercesc_3_1@@@xercesc_3_1@@UAE@XZ 12027ba5 f i XMLGrammarPoolImpl.obj
 0001:00026bac       ?hasMoreElements@?$NameIdPoolEnumerator@VDTDElementDecl@xercesc_3_1@@@xercesc_3_1@@UBE_NXZ 12027bac f i XMLGrammarPoolImpl.obj
 0001:00026bac       ?hasMoreElements@?$NameIdPoolEnumerator@VXMLNotationDecl@xercesc_3_1@@@xercesc_3_1@@UBE_NXZ 12027bac f i XMLGrammarPoolImpl.obj
 0001:00026bac       ?hasMoreElements@?$NameIdPoolEnumerator@VDTDEntityDecl@xercesc_3_1@@@xercesc_3_1@@UBE_NXZ 12027bac f i XMLGrammarPoolImpl.obj
 0001:00026bc1       ?Reset@?$NameIdPoolEnumerator@VXMLNotationDecl@xercesc_3_1@@@xercesc_3_1@@UAEXXZ 12027bc1 f i XMLGrammarPoolImpl.obj
 0001:00026bc1       ?Reset@?$NameIdPoolEnumerator@VDTDEntityDecl@xercesc_3_1@@@xercesc_3_1@@UAEXXZ 12027bc1 f i XMLGrammarPoolImpl.obj
 0001:00026bc1       ?Reset@?$NameIdPoolEnumerator@VDTDElementDecl@xercesc_3_1@@@xercesc_3_1@@UAEXXZ 12027bc1 f i XMLGrammarPoolImpl.obj
 0001:00026bd0       ?put@?$NameIdPool@VDTDEntityDecl@xercesc_3_1@@@xercesc_3_1@@QAEKQAVDTDEntityDecl@2@@Z 12027bd0 f i XMLGrammarPoolImpl.obj
 0001:00026cbf       ?put@?$NameIdPool@VDTDElementDecl@xercesc_3_1@@@xercesc_3_1@@QAEKQAVDTDElementDecl@2@@Z 12027cbf f i XMLGrammarPoolImpl.obj
 0001:00026de6       ??0?$RefHashTableOf@VXSAnnotation@xercesc_3_1@@UPtrHasher@2@@xercesc_3_1@@QAE@K_NQAVMemoryManager@1@@Z 12027de6 f i XTemplateSerializer.obj
 0001:00026de6       ??0?$RefHashTableOf@VGrammar@xercesc_3_1@@UStringHasher@2@@xercesc_3_1@@QAE@K_NQAVMemoryManager@1@@Z 12027de6 f i XMLGrammarPoolImpl.obj
 0001:00026de6       ??0?$RefHashTableOf@VDTDAttDef@xercesc_3_1@@UStringHasher@2@@xercesc_3_1@@QAE@K_NQAVMemoryManager@1@@Z 12027de6 f i XTemplateSerializer.obj
 0001:00026e4e       ?orphanKey@?$RefHashTableOf@VGrammar@xercesc_3_1@@UStringHasher@2@@xercesc_3_1@@QAEPAVGrammar@2@QBX@Z 12027e4e f i XMLGrammarPoolImpl.obj
 0001:00026ede       ??0?$RefHashTableOfEnumerator@VGrammar@xercesc_3_1@@UStringHasher@2@@xercesc_3_1@@QAE@QAV?$RefHashTableOf@VGrammar@xercesc_3_1@@UStringHasher@2@@1@_NQAVMemoryManager@1@@Z 12027ede f i XMLGrammarPoolImpl.obj
 0001:00026f44       ??1?$RefHashTableOfEnumerator@VGrammar@xercesc_3_1@@UStringHasher@2@@xercesc_3_1@@UAE@XZ 12027f44 f i XMLGrammarPoolImpl.obj
 0001:00026f7d       ?Reset@?$RefHashTableOfEnumerator@VDatatypeValidator@xercesc_3_1@@UStringHasher@2@@xercesc_3_1@@UAEXXZ 12027f7d f i XSModel.obj
 0001:00026f7d       ?Reset@?$RefHashTableOfEnumerator@VComplexTypeInfo@xercesc_3_1@@UStringHasher@2@@xercesc_3_1@@UAEXXZ 12027f7d f i XSModel.obj
 0001:00026f7d       ?Reset@?$RefHashTableOfEnumerator@VKVStringPair@xercesc_3_1@@UStringHasher@2@@xercesc_3_1@@UAEXXZ 12027f7d f i XSObjectFactory.obj
 0001:00026f7d       ?Reset@?$RefHashTableOfEnumerator@VDTDAttDef@xercesc_3_1@@UStringHasher@2@@xercesc_3_1@@UAEXXZ 12027f7d f i XTemplateSerializer.obj
 0001:00026f7d       ?Reset@?$RefHashTableOfEnumerator@VXercesGroupInfo@xercesc_3_1@@UStringHasher@2@@xercesc_3_1@@UAEXXZ 12027f7d f i XSModel.obj
 0001:00026f7d       ?Reset@?$RefHashTableOfEnumerator@VXMLAttDef@xercesc_3_1@@UStringHasher@2@@xercesc_3_1@@UAEXXZ 12027f7d f i XSModel.obj
 0001:00026f7d       ?Reset@?$RefHashTableOfEnumerator@VXercesAttGroupInfo@xercesc_3_1@@UStringHasher@2@@xercesc_3_1@@UAEXXZ 12027f7d f i XSModel.obj
 0001:00026f7d       ?Reset@?$RefHashTableOfEnumerator@VGrammar@xercesc_3_1@@UStringHasher@2@@xercesc_3_1@@UAEXXZ 12027f7d f i XMLGrammarPoolImpl.obj
 0001:00026f7d       ?Reset@?$RefHashTableOfEnumerator@_WUStringHasher@xercesc_3_1@@@xercesc_3_1@@UAEXXZ 12027f7d f i DOMNormalizer.obj
 0001:00026f7d       ?Reset@?$RefHashTableOfEnumerator@VFieldValueMap@xercesc_3_1@@UICValueHasher@2@@xercesc_3_1@@UAEXXZ 12027f7d f i ValueStore.obj
 0001:00026f7d       ?Reset@?$RefHashTableOfEnumerator@VXSAnnotation@xercesc_3_1@@UPtrHasher@2@@xercesc_3_1@@UAEXXZ 12027f7d f i XTemplateSerializer.obj
 0001:00026f7d       ?Reset@?$RefHashTableOfEnumerator@VXMLRefInfo@xercesc_3_1@@UStringHasher@2@@xercesc_3_1@@UAEXXZ 12027f7d f i XMLScanner.obj
 0001:00026f7d       ?Reset@?$RefHashTableOfEnumerator@VValueStore@xercesc_3_1@@UPtrHasher@2@@xercesc_3_1@@UAEXXZ 12027f7d f i ValueStoreCache.obj
 0001:00026f8c       ??_G?$BaseRefVectorOf@VSchemaAttDef@xercesc_3_1@@@xercesc_3_1@@UAEPAXI@Z 12027f8c f i XMLGrammarPoolImpl.obj
 0001:00026f8c       ??_E?$BaseRefVectorOf@VSchemaAttDef@xercesc_3_1@@@xercesc_3_1@@UAEPAXI@Z 12027f8c f i  CIL library: CIL module
 0001:00026fac       ??_G?$RefVectorOf@VSchemaAttDef@xercesc_3_1@@@xercesc_3_1@@UAEPAXI@Z 12027fac f i XMLGrammarPoolImpl.obj
 0001:00026fac       ??_E?$RefVectorOf@VSchemaAttDef@xercesc_3_1@@@xercesc_3_1@@UAEPAXI@Z 12027fac f i  CIL library: CIL module
 0001:00027016       ??_E?$RefHash3KeysIdPoolEnumerator@VSchemaElementDecl@xercesc_3_1@@UStringHasher@2@@xercesc_3_1@@UAEPAXI@Z 12028016 f i  CIL library: CIL module
 0001:00027016       ??_G?$RefHash3KeysIdPoolEnumerator@VSchemaElementDecl@xercesc_3_1@@UStringHasher@2@@xercesc_3_1@@UAEPAXI@Z 12028016 f i XMLGrammarPoolImpl.obj
 0001:00027035       ??_G?$RefHash3KeysIdPool@VSchemaElementDecl@xercesc_3_1@@UStringHasher@2@@xercesc_3_1@@QAEPAXI@Z 12028035 f i XMLGrammarPoolImpl.obj
 0001:00027064       ??_G?$NameIdPoolEnumerator@VXMLNotationDecl@xercesc_3_1@@@xercesc_3_1@@UAEPAXI@Z 12028064 f i XMLGrammarPoolImpl.obj
 0001:00027064       ??_E?$NameIdPoolEnumerator@VXMLNotationDecl@xercesc_3_1@@@xercesc_3_1@@UAEPAXI@Z 12028064 f i  CIL library: CIL module
 0001:00027084       ??_G?$NameIdPoolEnumerator@VDTDElementDecl@xercesc_3_1@@@xercesc_3_1@@UAEPAXI@Z 12028084 f i XMLGrammarPoolImpl.obj
 0001:00027084       ??_E?$NameIdPoolEnumerator@VDTDElementDecl@xercesc_3_1@@@xercesc_3_1@@UAEPAXI@Z 12028084 f i  CIL library: CIL module
 0001:000270a4       ??_E?$NameIdPoolEnumerator@VDTDEntityDecl@xercesc_3_1@@@xercesc_3_1@@UAEPAXI@Z 120280a4 f i  CIL library: CIL module
 0001:000270a4       ??_G?$NameIdPoolEnumerator@VDTDEntityDecl@xercesc_3_1@@@xercesc_3_1@@UAEPAXI@Z 120280a4 f i XMLGrammarPoolImpl.obj
 0001:000270c4       ??_G?$RefHashTableOfEnumerator@VGrammar@xercesc_3_1@@UStringHasher@2@@xercesc_3_1@@UAEPAXI@Z 120280c4 f i XMLGrammarPoolImpl.obj
 0001:000270c4       ??_E?$RefHashTableOfEnumerator@VGrammar@xercesc_3_1@@UStringHasher@2@@xercesc_3_1@@UAEPAXI@Z 120280c4 f i  CIL library: CIL module
 0001:000270e3       ?findBucketElem@?$RefHash3KeysIdPool@VSchemaElementDecl@xercesc_3_1@@UStringHasher@2@@xercesc_3_1@@AAEPAU?$RefHash3KeysTableBucketElem@VSchemaElementDecl@xercesc_3_1@@@2@QBXHHAAK@Z 120280e3 f i XMLGrammarPoolImpl.obj
 0001:00027136       ?ensureExtraCapacity@?$BaseRefVectorOf@VXMLNumber@xercesc_3_1@@@xercesc_3_1@@QAEXK@Z 12028136 f i XTemplateSerializer.obj
 0001:00027136       ?ensureExtraCapacity@?$BaseRefVectorOf@VXercesStep@xercesc_3_1@@@xercesc_3_1@@QAEXK@Z 12028136 f i XMLGrammarPoolImpl.obj
 0001:000271a1       ??1?$RefHashTableOf@VDTDElementDecl@xercesc_3_1@@UStringHasher@2@@xercesc_3_1@@QAE@XZ 120281a1 f i XMLGrammarPoolImpl.obj
 0001:000271a1       ??1?$RefHashTableOf@VDTDEntityDecl@xercesc_3_1@@UStringHasher@2@@xercesc_3_1@@QAE@XZ 120281a1 f i XTemplateSerializer.obj
 0001:000271a1       ??1?$RefHashTableOf@VXMLNotationDecl@xercesc_3_1@@UStringHasher@2@@xercesc_3_1@@QAE@XZ 120281a1 f i XTemplateSerializer.obj
 0001:000271b9       ?findNext@?$RefHash3KeysIdPoolEnumerator@VSchemaElementDecl@xercesc_3_1@@UStringHasher@2@@xercesc_3_1@@AAEXXZ 120281b9 f i XMLGrammarPoolImpl.obj
 0001:000271fb       ?removeAll@?$RefHash3KeysIdPool@VSchemaElementDecl@xercesc_3_1@@UStringHasher@2@@xercesc_3_1@@QAEXXZ 120281fb f i XMLGrammarPoolImpl.obj
 0001:00027251       ??_EXMLNotationDecl@xercesc_3_1@@UAEPAXI@Z 12028251 f i XMLNotationDecl.obj
 0001:0002729c       ??0XMLNotationDecl@xercesc_3_1@@QAE@QAVMemoryManager@1@@Z 1202829c f   XMLNotationDecl.obj
 0001:000272c5       ??0XMLNotationDecl@xercesc_3_1@@QAE@QB_W000QAVMemoryManager@1@@Z 120282c5 f   XMLNotationDecl.obj
 0001:00027360       ??1XMLNotationDecl@xercesc_3_1@@UAE@XZ 12028360 f   XMLNotationDecl.obj
 0001:0002738c       ?setName@XMLNotationDecl@xercesc_3_1@@QAEXQB_W@Z 1202838c f   XMLNotationDecl.obj
 0001:000273b7       ?cleanUp@XMLNotationDecl@xercesc_3_1@@AAEXXZ 120283b7 f   XMLNotationDecl.obj
 0001:000273e8       ?createObject@XMLNotationDecl@xercesc_3_1@@SAPAVXSerializable@2@PAVMemoryManager@2@@Z 120283e8 f   XMLNotationDecl.obj
 0001:0002740b       ?getProtoType@XMLNotationDecl@xercesc_3_1@@UBEPAVXProtoType@2@XZ 1202840b f   XMLNotationDecl.obj
 0001:00027411       ?serialize@XMLNotationDecl@xercesc_3_1@@UAEXAAVXSerializeEngine@2@@Z 12028411 f   XMLNotationDecl.obj
 0001:000274d5       ?basicEncodingProbe@XMLRecognizer@xercesc_3_1@@SA?AW4Encodings@12@QBEK@Z 120284d5 f   XMLRecognizer.obj
 0001:00027605       ?encodingForName@XMLRecognizer@xercesc_3_1@@SA?AW4Encodings@12@QB_W@Z 12028605 f   XMLRecognizer.obj
 0001:000277a5       ?nameForEncoding@XMLRecognizer@xercesc_3_1@@SAPB_WW4Encodings@12@QAVMemoryManager@2@@Z 120287a5 f   XMLRecognizer.obj
 0001:000277e3       ?createObject@XMLRefInfo@xercesc_3_1@@SAPAVXSerializable@2@PAVMemoryManager@2@@Z 120287e3 f   XMLRefInfo.obj
 0001:00027811       ?getProtoType@XMLRefInfo@xercesc_3_1@@UBEPAVXProtoType@2@XZ 12028811 f   XMLRefInfo.obj
 0001:00027817       ?serialize@XMLRefInfo@xercesc_3_1@@UAEXAAVXSerializeEngine@2@@Z 12028817 f   XMLRefInfo.obj
 0001:0002787f       ??0XMLRefInfo@xercesc_3_1@@QAE@QAVMemoryManager@1@@Z 1202887f f   XMLRefInfo.obj
 0001:0002789d       ??0XMLSchemaDescription@xercesc_3_1@@IAE@QAVMemoryManager@1@@Z 1202889d f   XMLSchemaDescription.obj
 0001:000278b2       ?getProtoType@XMLSchemaDescription@xercesc_3_1@@UBEPAVXProtoType@2@XZ 120288b2 f   XMLSchemaDescription.obj
 0001:000278b8       ?errorType@XMLValid@xercesc_3_1@@SA?AW4ErrTypes@XMLErrorReporter@2@W4Codes@12@@Z 120288b8 f i XMLValidator.obj
 0001:000278dc       ??_FXMLValidator@xercesc_3_1@@QAEXXZ 120288dc f i XMLValidator.obj
 0001:000278f1       ??_EXMLValidator@xercesc_3_1@@UAEPAXI@Z 120288f1 f i XMLValidator.obj
 0001:0002793d       ?setScannerInfo@XMLValidator@xercesc_3_1@@QAEXQAVXMLScanner@2@QAVReaderMgr@2@QAVXMLBufferMgr@2@@Z 1202893d f i XMLValidator.obj
 0001:00027956       ??0SecurityManager@xercesc_3_1@@QAE@XZ 12028956 f i XMLValidator.obj
 0001:00027966       ??1SecurityManager@xercesc_3_1@@UAE@XZ 12028966 f i XMLValidator.obj
 0001:0002796d       ??_ESecurityManager@xercesc_3_1@@UAEPAXI@Z 1202896d f i XMLValidator.obj
 0001:000279ba       ??0Locator@xercesc_3_1@@QAE@XZ 120289ba f i XMLValidator.obj
 0001:000279c3       ??1XSDLocator@xercesc_3_1@@UAE@XZ 120289c3 f i IGXMLScanner2.obj
 0001:000279c3       ??1Locator@xercesc_3_1@@UAE@XZ 120289c3 f i XMLValidator.obj
 0001:000279ca       ??_ELocator@xercesc_3_1@@UAEPAXI@Z 120289ca f i XMLValidator.obj
 0001:00027a17       ??_FReaderMgr@xercesc_3_1@@QAEXXZ 12028a17 f i XMLValidator.obj
 0001:00027a23       ?getCurrentReaderNum@ReaderMgr@xercesc_3_1@@QBEKXZ 12028a23 f i XMLValidator.obj
 0001:00027a2d       ?getName@ReaderMgr@xercesc_3_1@@QAE_NAAVXMLBuffer@2@@Z 12028a2d f i XMLValidator.obj
 0001:00027a45       ?getQName@ReaderMgr@xercesc_3_1@@QAE_NAAVXMLBuffer@2@PAH@Z 12028a45 f i XMLValidator.obj
 0001:00027a5e       ?getNameToken@ReaderMgr@xercesc_3_1@@QAE_NAAVXMLBuffer@2@@Z 12028a5e f i XMLValidator.obj
 0001:00027a76       ?getNextCharIfNot@ReaderMgr@xercesc_3_1@@QAE_N_WAA_W@Z 12028a76 f i XMLValidator.obj
 0001:00027a82       ?movePlainContentChars@ReaderMgr@xercesc_3_1@@QAEXAAVXMLBuffer@2@@Z 12028a82 f i XMLValidator.obj
 0001:00027a8e       ?getSrcOffset@ReaderMgr@xercesc_3_1@@QBE_KXZ 12028a8e f i XMLValidator.obj
 0001:00027a9f       ?lookingAtChar@ReaderMgr@xercesc_3_1@@QAE_N_W@Z 12028a9f f i XMLValidator.obj
 0001:00027ab6       ?lookingAtSpace@ReaderMgr@xercesc_3_1@@QAE_NXZ 12028ab6 f i XMLValidator.obj
 0001:00027ad3       ?skippedString@ReaderMgr@xercesc_3_1@@QAE_NQB_W@Z 12028ad3 f i XMLValidator.obj
 0001:00027adf       ?skippedStringLong@ReaderMgr@xercesc_3_1@@QAE_NQB_W@Z 12028adf f i XMLValidator.obj
 0001:00027aeb       ?skipToChar@ReaderMgr@xercesc_3_1@@QAEX_W@Z 12028aeb f i XMLValidator.obj
 0001:00027aeb       ?skipPastChar@ReaderMgr@xercesc_3_1@@QAEX_W@Z 12028aeb f i XMLValidator.obj
 0001:00027b0b       ?peekString@ReaderMgr@xercesc_3_1@@QAE_NQB_W@Z 12028b0b f i XMLValidator.obj
 0001:00027b17       ?setXMLVersion@ReaderMgr@xercesc_3_1@@QAEXW4XMLVersion@XMLReader@2@@Z 12028b17 f i XMLValidator.obj
 0001:00027b2d       ??0ThrowEOEJanitor@xercesc_3_1@@QAE@PAVReaderMgr@1@_N@Z 12028b2d f i XMLValidator.obj
 0001:00027b47       ??1ThrowEOEJanitor@xercesc_3_1@@QAE@XZ 12028b47 f i XMLValidator.obj
 0001:00027b50       ??_FElemStack@xercesc_3_1@@QAEXXZ 12028b50 f i XMLValidator.obj
 0001:00027b5c       ??_FWFElemStack@xercesc_3_1@@QAEXXZ 12028b5c f i XMLValidator.obj
 0001:00027b68       ?isEmpty@ElemStack@xercesc_3_1@@QBE_NXZ 12028b68 f i XMLValidator.obj
 0001:00027b71       ?getValidationFlag@ElemStack@xercesc_3_1@@QAE_NXZ 12028b71 f i XMLValidator.obj
 0001:00027b7f       ?setValidationFlag@ElemStack@xercesc_3_1@@QAEX_N@Z 12028b7f f i XMLValidator.obj
 0001:00027b96       ?getCommentOrPISeen@ElemStack@xercesc_3_1@@QBE_NXZ 12028b96 f i XMLValidator.obj
 0001:00027ba4       ?setCommentOrPISeen@ElemStack@xercesc_3_1@@QAEXXZ 12028ba4 f i XMLValidator.obj
 0001:00027bb3       ?getReferenceEscaped@ElemStack@xercesc_3_1@@QBE_NXZ 12028bb3 f i XMLValidator.obj
 0001:00027bc1       ?setReferenceEscaped@ElemStack@xercesc_3_1@@QAEXXZ 12028bc1 f i XMLValidator.obj
 0001:00027bd0       ?setCurrentSchemaElemName@ElemStack@xercesc_3_1@@QAEXQB_W@Z 12028bd0 f i XMLValidator.obj
 0001:00027c42       ?getCurrentSchemaElemName@ElemStack@xercesc_3_1@@QAEPA_WXZ 12028c42 f i XMLValidator.obj
 0001:00027c50       ?getCurrentScope@ElemStack@xercesc_3_1@@QAEHXZ 12028c50 f i XMLValidator.obj
 0001:00027c5e       ?setCurrentScope@ElemStack@xercesc_3_1@@QAEXH@Z 12028c5e f i XMLValidator.obj
 0001:00027c75       ?getCurrentGrammar@ElemStack@xercesc_3_1@@QAEPAVGrammar@2@XZ 12028c75 f i XMLValidator.obj
 0001:00027c83       ?setCurrentGrammar@ElemStack@xercesc_3_1@@QAEXPAVGrammar@2@@Z 12028c83 f i XMLValidator.obj
 0001:00027c9a       ?getCurrentURI@ElemStack@xercesc_3_1@@QAEIXZ 12028c9a f i XMLValidator.obj
 0001:00027ca8       ?setCurrentURI@ElemStack@xercesc_3_1@@QAEXI@Z 12028ca8 f i XMLValidator.obj
 0001:00027cbf       ?getPrefixId@ElemStack@xercesc_3_1@@QBEIQB_W@Z 12028cbf f i XMLValidator.obj
 0001:00027ccb       ?getPrefixForId@ElemStack@xercesc_3_1@@QBEPB_WI@Z 12028ccb f i XMLValidator.obj
 0001:00027cd7       ?setPrefixColonPos@ElemStack@xercesc_3_1@@QAEXH@Z 12028cd7 f i XMLValidator.obj
 0001:00027cee       ?getPrefixColonPos@ElemStack@xercesc_3_1@@QBEHXZ 12028cee f i XMLValidator.obj
 0001:00027cfc       ?isEmpty@WFElemStack@xercesc_3_1@@QBE_NXZ 12028cfc f i XMLValidator.obj
 0001:00027cfc       ?isEmpty@NamespaceScope@xercesc_3_1@@QBE_NXZ 12028cfc f i XMLGrammarPoolImpl.obj
 0001:00027d05       ?getCurrentURI@WFElemStack@xercesc_3_1@@QAEIXZ 12028d05 f i XMLValidator.obj
 0001:00027d13       ?setCurrentURI@WFElemStack@xercesc_3_1@@QAEXI@Z 12028d13 f i XMLValidator.obj
 0001:00027d2a       ?getGrammarPoolMemoryManager@GrammarResolver@xercesc_3_1@@QBEPAVMemoryManager@2@XZ 12028d2a f i XMLValidator.obj
 0001:00027d31       ?bufferFull@XMLScanner@xercesc_3_1@@UAE_NAAVXMLBuffer@2@@Z 12028d31 f i XMLValidator.obj
 0001:00027d42       ?getDocHandler@XMLScanner@xercesc_3_1@@QBEPBVXMLDocumentHandler@2@XZ 12028d42 f i XMLValidator.obj
 0001:00027d42       ?getDocHandler@XMLScanner@xercesc_3_1@@QAEPAVXMLDocumentHandler@2@XZ 12028d42 f i XMLValidator.obj
 0001:00027d42       ?getLexicalHandler@SAX2XMLReaderImpl@xercesc_3_1@@UBEPAVLexicalHandler@2@XZ 12028d42 f i SAX2XMLReaderImpl.obj
 0001:00027d42       ?getXMLEntityResolver@XercesDOMParser@xercesc_3_1@@QBEPBVXMLEntityResolver@2@XZ 12028d42 f i XSAnnotation.obj
 0001:00027d42       ?getXMLEntityResolver@XercesDOMParser@xercesc_3_1@@QAEPAVXMLEntityResolver@2@XZ 12028d42 f i XSAnnotation.obj
 0001:00027d46       ?getDoNamespaces@XMLScanner@xercesc_3_1@@QBE_NXZ 12028d46 f i XMLValidator.obj
 0001:00027d4a       ?getValidationContext@SchemaInfo@xercesc_3_1@@QBEPAVValidationContext@2@XZ 12028d4a f i IGXMLScanner.obj
 0001:00027d4a       ?getMemoryAllocationBlockSize@DOMDocumentImpl@xercesc_3_1@@UBEKXZ 12028d4a f i DOMDocumentImpl.obj
 0001:00027d4a       ?getErrorReporter@XMLScanner@xercesc_3_1@@QAEPAVXMLErrorReporter@2@XZ 12028d4a f i XMLValidator.obj
 0001:00027d4a       ?getErrorReporter@XMLScanner@xercesc_3_1@@QBEPBVXMLErrorReporter@2@XZ 12028d4a f i XMLValidator.obj
 0001:00027d4e       ?getErrorHandler@XMLScanner@xercesc_3_1@@QBEPBVErrorHandler@2@XZ 12028d4e f i XMLValidator.obj
 0001:00027d4e       ?getErrorHandler@XMLScanner@xercesc_3_1@@QAEPAVErrorHandler@2@XZ 12028d4e f i XMLValidator.obj
 0001:00027d52       ?getPSVIHandler@XMLScanner@xercesc_3_1@@QAEPAVPSVIHandler@2@XZ 12028d52 f i XMLValidator.obj
 0001:00027d52       ?getPSVIHandler@XMLScanner@xercesc_3_1@@QBEPBVPSVIHandler@2@XZ 12028d52 f i XMLValidator.obj
 0001:00027d52       ?getURIStringPool@XSModel@xercesc_3_1@@QAEPAVXMLStringPool@2@XZ 12028d52 f i XMLGrammarPoolImpl.obj
 0001:00027d56       ?getExitOnFirstFatal@XMLScanner@xercesc_3_1@@QBE_NXZ 12028d56 f i XMLValidator.obj
 0001:00027d5a       ?isExternal@XMLAttDef@xercesc_3_1@@QBE_NXZ 12028d5a f i XMLAttDef.obj
 0001:00027d5a       ?getValidationConstraintFatal@XMLScanner@xercesc_3_1@@QBE_NXZ 12028d5a f i XMLValidator.obj
 0001:00027d5e       ?getInException@XMLScanner@xercesc_3_1@@QBE_NXZ 12028d5e f i XMLValidator.obj
 0001:00027d62       ?getIDRefList@XMLScanner@xercesc_3_1@@QBEPBV?$RefHashTableOf@VXMLRefInfo@xercesc_3_1@@UStringHasher@2@@2@XZ 12028d62 f i XMLValidator.obj
 0001:00027d62       ?getIDRefList@XMLScanner@xercesc_3_1@@QAEPAV?$RefHashTableOf@VXMLRefInfo@xercesc_3_1@@UStringHasher@2@@2@XZ 12028d62 f i XMLValidator.obj
 0001:00027d6d       ?getValidationContext@XMLScanner@xercesc_3_1@@QAEPAVValidationContext@2@XZ 12028d6d f i XMLValidator.obj
 0001:00027da3       ?getLocator@XMLScanner@xercesc_3_1@@QBEPBVLocator@2@XZ 12028da3 f i XMLValidator.obj
 0001:00027da3       ?getReaderMgr@XMLScanner@xercesc_3_1@@QBEPBVReaderMgr@2@XZ 12028da3 f i XMLValidator.obj
 0001:00027daa       ?getSrcOffset@XMLScanner@xercesc_3_1@@QBE_KXZ 12028daa f i XMLValidator.obj
 0001:00027dbe       ?getStandalone@XMLScanner@xercesc_3_1@@QBE_NXZ 12028dbe f i XMLValidator.obj
 0001:00027dc2       ?getValidationScheme@XMLScanner@xercesc_3_1@@QBE?AW4ValSchemes@12@XZ 12028dc2 f i XMLValidator.obj
 0001:00027dc9       ?getValidator@XMLScanner@xercesc_3_1@@QAEPAVXMLValidator@2@XZ 12028dc9 f i XMLValidator.obj
 0001:00027dc9       ?getValidator@XMLScanner@xercesc_3_1@@QBEPBVXMLValidator@2@XZ 12028dc9 f i XMLValidator.obj
 0001:00027dd0       ?getDoSchema@XMLScanner@xercesc_3_1@@QBE_NXZ 12028dd0 f i XMLValidator.obj
 0001:00027dd4       ?getValidationSchemaFullChecking@XMLScanner@xercesc_3_1@@QBE_NXZ 12028dd4 f i XMLValidator.obj
 0001:00027dd4       ?getParseInProgress@AbstractDOMParser@xercesc_3_1@@IBE_NXZ 12028dd4 f i XSAnnotation.obj
 0001:00027dd8       ?getBaseURI@DOMDocumentImpl@xercesc_3_1@@UBEPB_WXZ 12028dd8 f i DOMDocumentImpl.obj
 0001:00027dd8       ?getDocumentHandler@SAXParser@xercesc_3_1@@QAEPAVDocumentHandler@2@XZ 12028dd8 f i SAX2XMLReaderImpl.obj
 0001:00027dd8       ?getElements@DOMDocumentTypeImpl@xercesc_3_1@@UBEPAVDOMNamedNodeMap@2@XZ 12028dd8 f i DOMDocumentTypeImpl.obj
 0001:00027dd8       ?getParticle@XSComplexTypeDefinition@xercesc_3_1@@QBEPAVXSParticle@2@XZ 12028dd8 f i PSVIElement.obj
 0001:00027dd8       ?getTypeUri@ComplexTypeInfo@xercesc_3_1@@QBEPB_WXZ 12028dd8 f i XMLElementDecl.obj
 0001:00027dd8       ?getGrammarDescription@SchemaGrammar@xercesc_3_1@@UBEPAVXMLGrammarDescription@2@XZ 12028dd8 f i XMLGrammarPoolImpl.obj
 0001:00027dd8       ?getSchemaInformation@PSVIElement@xercesc_3_1@@QAEPAVXSModel@2@XZ 12028dd8 f i PSVIElement.obj
 0001:00027dd8       ?getRecursingTypeNames@SchemaInfo@xercesc_3_1@@QBEPAV?$ValueVectorOf@PB_W@2@XZ 12028dd8 f i IGXMLScanner.obj
 0001:00027dd8       ?getNamespaceURI@DOMElementNSImpl@xercesc_3_1@@UBEPB_WXZ 12028dd8 f i DOMElementNSImpl.obj
 0001:00027dd8       ?getComplexTypeInfo@SchemaElementDecl@xercesc_3_1@@QBEPAVComplexTypeInfo@2@XZ 12028dd8 f i XMLElementDecl.obj
 0001:00027dd8       ?getDocumentHandler@SAXParser@xercesc_3_1@@QBEPBVDocumentHandler@2@XZ 12028dd8 f i SAX2XMLReaderImpl.obj
 0001:00027dd8       ?getTypeLocalName@DatatypeValidator@xercesc_3_1@@QBEPB_WXZ 12028dd8 f i XMLAttr.obj
 0001:00027dd8       ?getXmlEncoding@DOMDocumentImpl@xercesc_3_1@@UBEPB_WXZ 12028dd8 f i DOMDocumentImpl.obj
 0001:00027dd8       ?getEmptyNamespaceId@XMLScanner@xercesc_3_1@@QBEIXZ 12028dd8 f i XMLValidator.obj
 0001:00027dd8       ?getNamespaceList@SchemaAttDef@xercesc_3_1@@QBEPAV?$ValueVectorOf@I@2@XZ 12028dd8 f i XMLElementDecl.obj
 0001:00027dd8       ?getMultiValueFacets@XSSimpleTypeDefinition@xercesc_3_1@@QAEPAV?$RefVectorOf@VXSMultiValueFacet@xercesc_3_1@@@2@XZ 12028dd8 f i XMLAttr.obj
 0001:00027dd8       ?getInputEncoding@DOMEntityImpl@xercesc_3_1@@UBEPB_WXZ 12028dd8 f i DOMEntityImpl.obj
 0001:00027ddc       ?getURIStringPool@XMLScanner@xercesc_3_1@@QAEPAVXMLStringPool@2@XZ 12028ddc f i XMLValidator.obj
 0001:00027ddc       ?getURIStringPool@XMLScanner@xercesc_3_1@@QBEPBVXMLStringPool@2@XZ 12028ddc f i XMLValidator.obj
 0001:00027de3       ?getHasNoDTD@XMLScanner@xercesc_3_1@@QBE_NXZ 12028de3 f i XMLValidator.obj
 0001:00027de7       ?getExternalSchemaLocation@XMLScanner@xercesc_3_1@@QBEPA_WXZ 12028de7 f i XMLValidator.obj
 0001:00027dee       ?getExternalNoNamespaceSchemaLocation@XMLScanner@xercesc_3_1@@QBEPA_WXZ 12028dee f i XMLValidator.obj
 0001:00027df5       ?getSecurityManager@XMLScanner@xercesc_3_1@@QBEPAVSecurityManager@2@XZ 12028df5 f i XMLValidator.obj
 0001:00027dfc       ?getDoXInclude@AbstractDOMParser@xercesc_3_1@@QBE_NXZ 12028dfc f i XSAnnotation.obj
 0001:00027dfc       ?getLoadExternalDTD@XMLScanner@xercesc_3_1@@QBE_NXZ 12028dfc f i XMLValidator.obj
 0001:00027e00       ?isSecondAdopted@ContentSpecNode@xercesc_3_1@@QBE_NXZ 12028e00 f i XMLGrammarPoolImpl.obj
 0001:00027e00       ?getNormalizeData@XMLScanner@xercesc_3_1@@QBE_NXZ 12028e00 f i XMLValidator.obj
 0001:00027e04       ?getCalculateSrcOfs@XMLScanner@xercesc_3_1@@QBE_NXZ 12028e04 f i XMLValidator.obj
 0001:00027e08       ?getRootGrammar@XMLScanner@xercesc_3_1@@QBEPAVGrammar@2@XZ 12028e08 f i XMLValidator.obj
 0001:00027e0f       ?getXMLVersion@XMLScanner@xercesc_3_1@@QBE?AW4XMLVersion@XMLReader@2@XZ 12028e0f f i XMLValidator.obj
 0001:00027e16       ?getMemoryManager@XMLScanner@xercesc_3_1@@QBEPAVMemoryManager@2@XZ 12028e16 f i XMLValidator.obj
 0001:00027e1d       ?getNamespaceContext@XMLScanner@xercesc_3_1@@QBEPAV?$ValueVectorOf@PAUPrefMapElem@xercesc_3_1@@@2@XZ 12028e1d f i XMLValidator.obj
 0001:00027e28       ?getPrefixId@XMLScanner@xercesc_3_1@@QBEIQB_W@Z 12028e28 f i XMLValidator.obj
 0001:00027e37       ?getPrefixForId@XMLScanner@xercesc_3_1@@QBEPB_WI@Z 12028e37 f i XMLValidator.obj
 0001:00027e46       ?getGenerateSyntheticAnnotations@XMLScanner@xercesc_3_1@@QBE_NXZ 12028e46 f i XMLValidator.obj
 0001:00027e4a       ?getValidateAnnotations@XMLScanner@xercesc_3_1@@QBE_NXZ 12028e4a f i XMLValidator.obj
 0001:00027e4e       ?getLowWaterMark@XMLScanner@xercesc_3_1@@QBEABKXZ 12028e4e f i XMLValidator.obj
 0001:00027e52       ?getIgnoreAnnotations@XMLScanner@xercesc_3_1@@QBE_NXZ 12028e52 f i XMLValidator.obj
 0001:00027e56       ?getDisableDefaultEntityResolution@XMLScanner@xercesc_3_1@@QBE_NXZ 12028e56 f i XMLValidator.obj
 0001:00027e5a       ?getSkipDTDValidation@XMLScanner@xercesc_3_1@@QBE_NXZ 12028e5a f i XMLValidator.obj
 0001:00027e5e       ?addGlobalPrefix@XMLScanner@xercesc_3_1@@QAEXQB_WI@Z 12028e5e f i XMLValidator.obj
 0001:00027e6d       ?setDocHandler@XMLScanner@xercesc_3_1@@QAEXQAVXMLDocumentHandler@2@@Z 12028e6d f i XMLValidator.obj
 0001:00027e7a       ?setDocTypeHandler@XMLScanner@xercesc_3_1@@QAEXQAVDocTypeHandler@2@@Z 12028e7a f i XMLValidator.obj
 0001:00027e87       ?setErrorHandler@XMLScanner@xercesc_3_1@@QAEXQAVErrorHandler@2@@Z 12028e87 f i XMLValidator.obj
 0001:00027e94       ?setPSVIHandler@XMLScanner@xercesc_3_1@@QAEXQAVPSVIHandler@2@@Z 12028e94 f i XMLValidator.obj
 0001:00027ea1       ?setEntityHandler@XMLScanner@xercesc_3_1@@QAEXQAVXMLEntityHandler@2@@Z 12028ea1 f i XMLValidator.obj
 0001:00027eb4       ?setErrorReporter@XMLScanner@xercesc_3_1@@QAEXQAVXMLErrorReporter@2@@Z 12028eb4 f i XMLValidator.obj
 0001:00027ec1       ?setExitOnFirstFatal@XMLScanner@xercesc_3_1@@QAEX_N@Z 12028ec1 f i XMLValidator.obj
 0001:00027ece       ?setValidationConstraintFatal@XMLScanner@xercesc_3_1@@QAEX_N@Z 12028ece f i XMLValidator.obj
 0001:00027ece       ?setExternalAttDeclaration@XMLAttDef@xercesc_3_1@@QAEX_N@Z 12028ece f i XMLAttDef.obj
 0001:00027ece       ?toCheckIdRefList@ValidationContextImpl@xercesc_3_1@@UAEX_N@Z 12028ece f i ValidationContextImpl.obj
 0001:00027edb       ?setValidationScheme@XMLScanner@xercesc_3_1@@QAEXW4ValSchemes@12@@Z 12028edb f i XMLValidator.obj
 0001:00027ef4       ?setDoSchema@XMLScanner@xercesc_3_1@@QAEX_N@Z 12028ef4 f i XMLValidator.obj
 0001:00027f01       ?setDoNamespaces@XMLScanner@xercesc_3_1@@QAEX_N@Z 12028f01 f i XMLValidator.obj
 0001:00027f0e       ?setCreateCommentNodes@AbstractDOMParser@xercesc_3_1@@QAEX_N@Z 12028f0e f i XSAnnotation.obj
 0001:00027f0e       ?setIdentityConstraintChecking@XMLScanner@xercesc_3_1@@QAEX_N@Z 12028f0e f i XMLValidator.obj
 0001:00027f1b       ?setHasNoDTD@XMLScanner@xercesc_3_1@@QAEX_N@Z 12028f1b f i XMLValidator.obj
 0001:00027f28       ?setRootElemName@XMLScanner@xercesc_3_1@@QAEXPA_W@Z 12028f28 f i XMLValidator.obj
 0001:00027f58       ?setExternalSchemaLocation@XMLScanner@xercesc_3_1@@QAEXQB_W@Z 12028f58 f i XMLValidator.obj
 0001:00027f88       ?setExternalNoNamespaceSchemaLocation@XMLScanner@xercesc_3_1@@QAEXQB_W@Z 12028f88 f i XMLValidator.obj
 0001:00027fb8       ?setExternalSchemaLocation@XMLScanner@xercesc_3_1@@QAEXQBD@Z 12028fb8 f i XMLValidator.obj
 0001:00027fe8       ?setExternalNoNamespaceSchemaLocation@XMLScanner@xercesc_3_1@@QAEXQBD@Z 12028fe8 f i XMLValidator.obj
 0001:00028018       ?setSecurityManager@XMLScanner@xercesc_3_1@@QAEXQAVSecurityManager@2@@Z 12029018 f i XMLValidator.obj
 0001:0002803c       ?setLoadExternalDTD@XMLScanner@xercesc_3_1@@QAEX_N@Z 1202903c f i XMLValidator.obj
 0001:0002803c       ?setDoXInclude@AbstractDOMParser@xercesc_3_1@@QAEX_N@Z 1202903c f i XSAnnotation.obj
 0001:00028049       ?setIssueFatalErrorIfNotFound@DOMLSInputImpl@xercesc_3_1@@UAEX_N@Z 12029049 f i DOMLSInputImpl.obj
 0001:00028049       ?setValidated@DTDGrammar@xercesc_3_1@@UAEX_N@Z 12029049 f i XMLGrammarPoolImpl.obj
 0001:00028049       ?setLoadSchema@XMLScanner@xercesc_3_1@@QAEX_N@Z 12029049 f i XMLValidator.obj
 0001:00028049       ?setThrowEOE@ReaderMgr@xercesc_3_1@@QAEX_N@Z 12029049 f i XMLValidator.obj
 0001:00028049       ?setAdoptFirst@ContentSpecNode@xercesc_3_1@@QAEX_N@Z 12029049 f i XMLGrammarPoolImpl.obj
 0001:00028056       ?cacheGrammarFromParse@XMLScanner@xercesc_3_1@@QAEX_N@Z 12029056 f i XMLValidator.obj
 0001:00028063       ?useCachedGrammarInParse@XMLScanner@xercesc_3_1@@QAEX_N@Z 12029063 f i XMLValidator.obj
 0001:00028070       ?setCalculateSrcOfs@XMLScanner@xercesc_3_1@@QAEX_N@Z 12029070 f i XMLValidator.obj
 0001:0002807d       ?setStandardUriConformant@XMLScanner@xercesc_3_1@@QAEX_N@Z 1202907d f i XMLValidator.obj
 0001:00028090       ?setGenerateSyntheticAnnotations@XMLScanner@xercesc_3_1@@QAEX_N@Z 12029090 f i XMLValidator.obj
 0001:0002809d       ?setValidateAnnotations@XMLScanner@xercesc_3_1@@QAEX_N@Z 1202909d f i XMLValidator.obj
 0001:000280aa       ?setInputBufferSize@XMLScanner@xercesc_3_1@@QAEXK@Z 120290aa f i XMLValidator.obj
 0001:000280c4       ?setIgnoredCachedDTD@XMLScanner@xercesc_3_1@@QAEX_N@Z 120290c4 f i XMLValidator.obj
 0001:000280c4       ?setCopyBufToStream@MemBufInputSource@xercesc_3_1@@QAEX_N@Z 120290c4 f i MemBufInputSource.obj
 0001:000280d1       ?setIgnoreAnnotations@XMLScanner@xercesc_3_1@@QAEX_N@Z 120290d1 f i XMLValidator.obj
 0001:000280de       ?setDisableDefaultEntityResolution@XMLScanner@xercesc_3_1@@QAEX_N@Z 120290de f i XMLValidator.obj
 0001:000280eb       ?setSkipDTDValidation@XMLScanner@xercesc_3_1@@QAEX_N@Z 120290eb f i XMLValidator.obj
 0001:000280f8       ?setStandardUriConformant@ReaderMgr@xercesc_3_1@@QAEX_N@Z 120290f8 f i XMLValidator.obj
 0001:000280f8       ?setHandleMultipleImports@XMLScanner@xercesc_3_1@@QAEX_N@Z 120290f8 f i XMLValidator.obj
 0001:000280f8       ?setIsExternal@XMLEntityDecl@xercesc_3_1@@QAEX_N@Z 120290f8 f i XMLDTDDescription.obj
 0001:00028105       ?incrementErrorCount@XMLScanner@xercesc_3_1@@QAEXXZ 12029105 f i XMLValidator.obj
 0001:00028109       ?resetValidationContext@XMLScanner@xercesc_3_1@@IAEXXZ 12029109 f i XMLValidator.obj
 0001:0002812f       ?setAttrDupChkRegistry@XMLScanner@xercesc_3_1@@IAEXABKAA_N@Z 1202912f f i XMLValidator.obj
 0001:00028195       ?getNodeType@DOMAttrImpl@xercesc_3_1@@UBE?AW4NodeType@DOMNode@2@XZ 12029195 f i DOMAttrImpl.obj
 0001:00028195       ?getCurrentGrammarType@XMLScanner@xercesc_3_1@@UBE?AW4GrammarType@Grammar@2@XZ 12029195 f i XMLValidator.obj
 0001:00028195       ?getType@IC_KeyRef@xercesc_3_1@@UBEFXZ 12029195 f i XSIDCDefinition.obj
 0001:00028195       ?size@ConcatToken@xercesc_3_1@@UBEKXZ 12029195 f i ConcatToken.obj
 0001:00028199       ?initializeXMLValidator@XMLInitializer@xercesc_3_1@@CAXXZ 12029199 f   XMLValidator.obj
 0001:000281b6       ?terminateXMLValidator@XMLInitializer@xercesc_3_1@@CAXXZ 120291b6 f   XMLValidator.obj
 0001:000281ce       ?emitError@XMLValidator@xercesc_3_1@@QAEXW4Codes@XMLValid@2@@Z 120291ce f   XMLValidator.obj
 0001:000282aa       ?emitError@XMLValidator@xercesc_3_1@@QAEXW4Codes@XMLValid@2@QB_W111@Z 120292aa f   XMLValidator.obj
 0001:000283bc       ?emitError@XMLValidator@xercesc_3_1@@QAEXW4Codes@XMLValid@2@QBD111@Z 120293bc f   XMLValidator.obj
 0001:000284ce       ?emitError@XMLValidator@xercesc_3_1@@QAEXW4Codes@XMLValid@2@W43XMLExcepts@2@QB_W222@Z 120294ce f   XMLValidator.obj
 0001:000285e2       ??0XMLValidator@xercesc_3_1@@IAE@QAVXMLErrorReporter@1@@Z 120295e2 f   XMLValidator.obj
 0001:00028602       ??0?$RefHash2KeysTableOf@VXMLAttr@xercesc_3_1@@UStringHasher@2@@xercesc_3_1@@QAE@K_NQAVMemoryManager@1@@Z 12029602 f i XMLValidator.obj
 0001:00028661       ?removeAll@?$RefHash2KeysTableOf@VXMLAttr@xercesc_3_1@@UStringHasher@2@@xercesc_3_1@@QAEXXZ 12029661 f i XMLValidator.obj
 0001:000286b7       ??_GXMLAttr@xercesc_3_1@@QAEPAXI@Z 120296b7 f i XMLValidator.obj
 0001:000286d2       ??_FPSVIItem@xercesc_3_1@@QAEXXZ 120296d2 f i PSVIAttribute.obj
 0001:000286de       ??_EPSVIItem@xercesc_3_1@@UAEPAXI@Z 120296de f i PSVIAttribute.obj
 0001:0002872a       ??1PSVIItem@xercesc_3_1@@UAE@XZ 1202972a f i PSVIAttribute.obj
 0001:00028731       ??_FPSVIAttribute@xercesc_3_1@@QAEXXZ 12029731 f i PSVIAttribute.obj
 0001:0002873d       ??_EPSVIAttribute@xercesc_3_1@@UAEPAXI@Z 1202973d f i PSVIAttribute.obj
 0001:00028788       ??1PSVIAttribute@xercesc_3_1@@UAE@XZ 12029788 f i PSVIAttribute.obj
 0001:000287ba       ??0PSVIAttribute@xercesc_3_1@@QAE@QAVMemoryManager@1@@Z 120297ba f   PSVIAttribute.obj
 0001:000287db       ?reset@PSVIAttribute@xercesc_3_1@@QAEXQB_WW4VALIDITY_STATE@PSVIItem@2@W4ASSESSMENT_TYPE@42@PAVXSSimpleTypeDefinition@2@30_NPAVXSAttributeDeclaration@2@PAVDatatypeValidator@2@@Z 120297db f   PSVIAttribute.obj
 0001:0002882f       ?setValue@PSVIAttribute@xercesc_3_1@@QAEXQB_W@Z 1202982f f   PSVIAttribute.obj
 0001:0002885f       ??0PSVIAttributeStorage@xercesc_3_1@@QAE@XZ 1202985f f i PSVIAttributeList.obj
 0001:0002886c       ??1PSVIAttributeStorage@xercesc_3_1@@QAE@XZ 1202986c f i PSVIAttributeList.obj
 0001:00028879       ??_FPSVIAttributeList@xercesc_3_1@@QAEXXZ 12029879 f i PSVIAttributeList.obj
 0001:00028885       ??1PSVIAttributeList@xercesc_3_1@@QAE@XZ 12029885 f i PSVIAttributeList.obj
 0001:00028893       ?getPSVIAttributeToFill@PSVIAttributeList@xercesc_3_1@@QAEPAVPSVIAttribute@2@PB_W0@Z 12029893 f i PSVIAttributeList.obj
 0001:00028913       ?Reset@?$BaseRefVectorEnumerator@VSchemaInfo@xercesc_3_1@@@xercesc_3_1@@UAEXXZ 12029913 f i IGXMLScanner.obj
 0001:00028913       ?reset@CharBuffer@xercesc_3_1@@QAEXXZ 12029913 f i BinHTTPInputStreamCommon.obj
 0001:00028913       ?Reset@?$ValueVectorEnumerator@H@xercesc_3_1@@UAEXXZ 12029913 f i DOMDocumentImpl.obj
 0001:00028913       ?reset@PSVIAttributeList@xercesc_3_1@@QAEXXZ 12029913 f i PSVIAttributeList.obj
 0001:00028918       ??0PSVIAttributeList@xercesc_3_1@@QAE@QAVMemoryManager@1@@Z 12029918 f   PSVIAttributeList.obj
 0001:00028964       ?getAttributePSVIAtIndex@PSVIAttributeList@xercesc_3_1@@QAEPAVPSVIAttribute@2@K@Z 12029964 f   PSVIAttributeList.obj
 0001:0002898e       ?getAttributeNameAtIndex@PSVIAttributeList@xercesc_3_1@@QAEPB_WK@Z 1202998e f   PSVIAttributeList.obj
 0001:000289b9       ?getAttributeNamespaceAtIndex@PSVIAttributeList@xercesc_3_1@@QAEPB_WK@Z 120299b9 f   PSVIAttributeList.obj
 0001:000289e4       ?getAttributePSVIByName@PSVIAttributeList@xercesc_3_1@@QAEPAVPSVIAttribute@2@PB_W0@Z 120299e4 f   PSVIAttributeList.obj
 0001:00028a45       ??1?$BaseRefVectorOf@VPSVIAttributeStorage@xercesc_3_1@@@xercesc_3_1@@UAE@XZ 12029a45 f i PSVIAttributeList.obj
 0001:00028a4c       ?setElementAt@?$BaseRefVectorOf@VPSVIAttributeStorage@xercesc_3_1@@@xercesc_3_1@@UAEXQAVPSVIAttributeStorage@2@K@Z 12029a4c f i PSVIAttributeList.obj
 0001:00028aa8       ?removeAllElements@?$BaseRefVectorOf@VPSVIAttributeStorage@xercesc_3_1@@@xercesc_3_1@@UAEXXZ 12029aa8 f i PSVIAttributeList.obj
 0001:00028ade       ?removeElementAt@?$BaseRefVectorOf@VPSVIAttributeStorage@xercesc_3_1@@@xercesc_3_1@@UAEXK@Z 12029ade f i PSVIAttributeList.obj
 0001:00028b69       ?removeLastElement@?$BaseRefVectorOf@VPSVIAttributeStorage@xercesc_3_1@@@xercesc_3_1@@UAEXXZ 12029b69 f i PSVIAttributeList.obj
 0001:00028b8e       ?cleanup@?$BaseRefVectorOf@VPSVIAttributeStorage@xercesc_3_1@@@xercesc_3_1@@UAEXXZ 12029b8e f i PSVIAttributeList.obj
 0001:00028bc4       ??0?$RefVectorOf@VPSVIAttributeStorage@xercesc_3_1@@@xercesc_3_1@@QAE@K_NQAVMemoryManager@1@@Z 12029bc4 f i PSVIAttributeList.obj
 0001:00028c04       ??_E?$BaseRefVectorOf@VPSVIAttributeStorage@xercesc_3_1@@@xercesc_3_1@@UAEPAXI@Z 12029c04 f i  CIL library: CIL module
 0001:00028c04       ??_G?$BaseRefVectorOf@VPSVIAttributeStorage@xercesc_3_1@@@xercesc_3_1@@UAEPAXI@Z 12029c04 f i PSVIAttributeList.obj
 0001:00028c24       ??_GPSVIAttributeStorage@xercesc_3_1@@QAEPAXI@Z 12029c24 f i PSVIAttributeList.obj
 0001:00028c3a       ??_G?$RefVectorOf@VPSVIAttributeStorage@xercesc_3_1@@@xercesc_3_1@@UAEPAXI@Z 12029c3a f i PSVIAttributeList.obj
 0001:00028c3a       ??_E?$RefVectorOf@VPSVIAttributeStorage@xercesc_3_1@@@xercesc_3_1@@UAEPAXI@Z 12029c3a f i  CIL library: CIL module
 0001:00028ca1       ??_FPSVIElement@xercesc_3_1@@QAEXXZ 12029ca1 f i PSVIElement.obj
 0001:00028cad       ??_EPSVIElement@xercesc_3_1@@UAEPAXI@Z 12029cad f i PSVIElement.obj
 0001:00028cf8       ?getDefinedFacets@XSSimpleTypeDefinition@xercesc_3_1@@QBEHXZ 12029cf8 f i XMLAttr.obj
 0001:00028cf8       ?getAnnotation@XSWildcard@xercesc_3_1@@QBEPAVXSAnnotation@2@XZ 12029cf8 f i XSComplexTypeDefinition.obj
 0001:00028cf8       ?getGroupInfoRegistry@SchemaGrammar@xercesc_3_1@@QBEPAV?$RefHashTableOf@VXercesGroupInfo@xercesc_3_1@@UStringHasher@2@@2@XZ 12029cf8 f i XMLGrammarPoolImpl.obj
 0001:00028cf8       ?getAnnotation@XSAttributeGroupDefinition@xercesc_3_1@@QBEPAVXSAnnotation@2@XZ 12029cf8 f i XSAttributeGroupDefinition.obj
 0001:00028cf8       ?getTypeDefinition@XSElementDeclaration@xercesc_3_1@@QBEPAVXSTypeDefinition@2@XZ 12029cf8 f i PSVIElement.obj
 0001:00028cf8       ?getString@Context@RegularExpression@xercesc_3_1@@QBEPB_WXZ 12029cf8 f i RegularExpression.obj
 0001:00028cf8       ?getAnnotations@XSIDCDefinition@xercesc_3_1@@QAEPAV?$RefVectorOf@VXSAnnotation@xercesc_3_1@@@2@XZ 12029cf8 f i XSIDCDefinition.obj
 0001:00028cf8       ?getNodeName@DOMAttrImpl@xercesc_3_1@@UBEPB_WXZ 12029cf8 f i DOMAttrImpl.obj
 0001:00028cf8       ?getScope@XSAttributeDeclaration@xercesc_3_1@@QBE?AW4SCOPE@XSConstants@2@XZ 12029cf8 f i PSVIAttributeList.obj
 0001:00028cf8       ?getBaseURI@XMLEntityDecl@xercesc_3_1@@QBEPB_WXZ 12029cf8 f i XMLDTDDescription.obj
 0001:00028cf8       ?getMemoryManager@QName@xercesc_3_1@@QBEPAVMemoryManager@2@XZ 12029cf8 f i QName.obj
 0001:00028cf8       ?getElementId@ComplexTypeInfo@xercesc_3_1@@QBEIXZ 12029cf8 f i XMLElementDecl.obj
 0001:00028cf8       ?getMemoryManager@XMLAttDef@xercesc_3_1@@QBEPAVMemoryManager@2@XZ 12029cf8 f i XMLAttDef.obj
 0001:00028cf8       ?getSystemId@XSAnnotation@xercesc_3_1@@QBEPB_WXZ 12029cf8 f i XMLGrammarPoolImpl.obj
 0001:00028cf8       ?getState@RegxParser@xercesc_3_1@@QBE?AW4parserState@12@XZ 12029cf8 f i ParserForXMLSchema.obj
 0001:00028cf8       ?getEnclosingScope@SchemaElementDecl@xercesc_3_1@@QBEIXZ 12029cf8 f i XMLElementDecl.obj
 0001:00028cf8       ?getLocator@XercesGroupInfo@xercesc_3_1@@QBEPAVXSDLocator@2@XZ 12029cf8 f i XMLGrammarPoolImpl.obj
 0001:00028cf8       ?getAttrDeclaration@XSAttributeUse@xercesc_3_1@@QBEPAVXSAttributeDeclaration@2@XZ 12029cf8 f i XSAttributeGroupDefinition.obj
 0001:00028cf8       ?getNodeName@DOMEntityImpl@xercesc_3_1@@UBEPB_WXZ 12029cf8 f i DOMEntityImpl.obj
 0001:00028cf8       ?getMinOccurs@ContentSpecNode@xercesc_3_1@@QBEHXZ 12029cf8 f i XMLGrammarPoolImpl.obj
 0001:00028cf8       ?getName@DOMAttrImpl@xercesc_3_1@@UBEPB_WXZ 12029cf8 f i DOMAttrImpl.obj
 0001:00028cf8       ?getAnnotation@XSFacet@xercesc_3_1@@QBEPAVXSAnnotation@2@XZ 12029cf8 f i XSFacet.obj
 0001:00028cf8       ?getBaseValidator@DatatypeValidator@xercesc_3_1@@QBEPAV12@XZ 12029cf8 f i XMLAttr.obj
 0001:00028cf8       ?getQuery@XMLURL@xercesc_3_1@@QBEPB_WXZ 12029cf8 f i PlatformUtils.obj
 0001:00028cf8       ?getEntityResolver@SAX2XMLFilterImpl@xercesc_3_1@@UBEPAVEntityResolver@2@XZ 12029cf8 f i SAX2XMLFilterImpl.obj
 0001:00028cf8       ?getAnnotations@XSMultiValueFacet@xercesc_3_1@@QAEPAV?$RefVectorOf@VXSAnnotation@xercesc_3_1@@@2@XZ 12029cf8 f i XSMultiValueFacet.obj
 0001:00028cf8       ?getFragment@XMLUri@xercesc_3_1@@QBEPB_WXZ 12029cf8 f i XMLString.obj
 0001:00028cf8       ?getPublicId@SAXParseException@xercesc_3_1@@QBEPB_WXZ 12029cf8 f i SAXParseException.obj
 0001:00028cf8       ?getMemoryManager@XPathMatcher@xercesc_3_1@@QBEPAVMemoryManager@2@XZ 12029cf8 f i XMLElementDecl.obj
 0001:00028cfc       ?getSubstitutionGroupExclusions@XSElementDeclaration@xercesc_3_1@@QBEFXZ 12029cfc f i PSVIElement.obj
 0001:00028d01       ?getDisallowedSubstitutions@XSElementDeclaration@xercesc_3_1@@QBEFXZ 12029d01 f i PSVIElement.obj
 0001:00028d06       ?setEnclosingCTDefinition@XSAttributeDeclaration@xercesc_3_1@@AAEXQAVXSComplexTypeDefinition@2@@Z 12029d06 f i PSVIAttributeList.obj
 0001:00028d06       ?setElemId@SchemaAttDef@xercesc_3_1@@QAEXK@Z 12029d06 f i XMLElementDecl.obj
 0001:00028d06       ?setEnclosingCTDefinition@XSElementDeclaration@xercesc_3_1@@AAEXQAVXSComplexTypeDefinition@2@@Z 12029d06 f i PSVIElement.obj
 0001:00028d06       ?setFinalSet@SchemaElementDecl@xercesc_3_1@@QAEXH@Z 12029d06 f i XMLElementDecl.obj
 0001:00028d06       ?setElemId@DTDAttDef@xercesc_3_1@@QAEXK@Z 12029d06 f i XMLElementDecl.obj
 0001:00028d06       ?setAttGroupInfoRegistry@SchemaGrammar@xercesc_3_1@@QAEXQAV?$RefHashTableOf@VXercesAttGroupInfo@xercesc_3_1@@UStringHasher@2@@2@@Z 12029d06 f i XMLGrammarPoolImpl.obj
 0001:00028d06       ?setSchemaTypeInfo@DOMAttrImpl@xercesc_3_1@@UAEXPBVDOMTypeInfoImpl@2@@Z 12029d06 f i DOMAttrImpl.obj
 0001:00028d06       ?setErrorHandler@SAX2XMLFilterImpl@xercesc_3_1@@UAEXQAVErrorHandler@2@@Z 12029d06 f i SAX2XMLFilterImpl.obj
 0001:00028d06       ?setMaxOccurs@ContentSpecNode@xercesc_3_1@@QAEXH@Z 12029d06 f i XMLGrammarPoolImpl.obj
 0001:00028d06       ?setCaseInsensitiveToken@RangeToken@xercesc_3_1@@QAEXPAV12@@Z 12029d06 f i ASCIIRangeFactory.obj
 0001:00028d13       ?getProhibitedSubstitutions@XSComplexTypeDefinition@xercesc_3_1@@QBEFXZ 12029d13 f i PSVIElement.obj
 0001:00028d18       ??0PSVIElement@xercesc_3_1@@QAE@QAVMemoryManager@1@@Z 12029d18 f   PSVIElement.obj
 0001:00028d3c       ??1PSVIElement@xercesc_3_1@@UAE@XZ 12029d3c f   PSVIElement.obj
 0001:00028d6e       ?reset@PSVIElement@xercesc_3_1@@QAEXW4VALIDITY_STATE@PSVIItem@2@W4ASSESSMENT_TYPE@42@QB_W_NQAVXSElementDeclaration@2@QAVXSTypeDefinition@2@QAVXSSimpleTypeDefinition@2@QAVXSModel@2@22QA_WQAVXSNotationDeclaration@2@@Z 12029d6e f   PSVIElement.obj
 0001:00028dcc       ??0PSVIItem@xercesc_3_1@@QAE@QAVMemoryManager@1@@Z 12029dcc f   PSVIItem.obj
 0001:00028e02       ?reset@PSVIItem@xercesc_3_1@@QAEXQB_W0W4VALIDITY_STATE@12@W4ASSESSMENT_TYPE@12@@Z 12029e02 f   PSVIItem.obj
 0001:00028e21       ?setOrdered@DatatypeValidator@xercesc_3_1@@IAEXW4ORDERING@XSSimpleTypeDefinition@2@@Z 12029e21 f   XMLAttr.obj
 0001:00028e21       ?setAttributes@XMLSchemaDescriptionImpl@xercesc_3_1@@UAEXQAVXMLAttDef@2@@Z 12029e21 f   XMLSchemaDescriptionImpl.obj
 0001:00028e21       ?setScanner@ValidationContextImpl@xercesc_3_1@@UAEXPAVXMLScanner@2@@Z 12029e21 f   ValidationContextImpl.obj
 0001:00028e21       ?setGrammarResolver@SchemaValidator@xercesc_3_1@@QAEXPAVGrammarResolver@2@@Z 12029e21 f   IGXMLScanner.obj
 0001:00028e21       ?setBaseGroup@XercesGroupInfo@xercesc_3_1@@QAEXQAV12@@Z 12029e21 f   XMLGrammarPoolImpl.obj
 0001:00028e21       ?setDTDHandler@SAX2XMLFilterImpl@xercesc_3_1@@UAEXQAVDTDHandler@2@@Z 12029e21 f   SAX2XMLFilterImpl.obj
 0001:00028e21       ?setValidationAttempted@PSVIItem@xercesc_3_1@@QAEXW4ASSESSMENT_TYPE@12@@Z 12029e21 f   PSVIItem.obj
 0001:00028e21       ?setContentType@ComplexTypeInfo@xercesc_3_1@@QAEXH@Z 12029e21 f   XMLElementDecl.obj
 0001:00028e21       ?setBaseType@XSComplexTypeDefinition@xercesc_3_1@@AAEXQAVXSTypeDefinition@2@@Z 12029e21 f   PSVIElement.obj
 0001:00028e21       ?setPSVIScope@SchemaElementDecl@xercesc_3_1@@QAEXW4PSVIScope@PSVIDefs@2@@Z 12029e21 f   XMLElementDecl.obj
 0001:00028e21       ?setComplexTypeRegistry@SchemaGrammar@xercesc_3_1@@QAEXQAV?$RefHashTableOf@VComplexTypeInfo@xercesc_3_1@@UStringHasher@2@@2@@Z 12029e21 f   XMLGrammarPoolImpl.obj
 0001:00028e2e       ?getActualValue@PSVIItem@xercesc_3_1@@UBEPAVXSValue@2@XZ 12029e2e f   PSVIItem.obj
 0001:00028eb0       ??_EXSAnnotation@xercesc_3_1@@UAEPAXI@Z 12029eb0 f i XSAnnotation.obj
 0001:00028efb       ?set@XMLPScanToken@xercesc_3_1@@IAEXII@Z 12029efb f i XSAnnotation.obj
 0001:00028f0d       ??0SAX2XMLReader@xercesc_3_1@@QAE@XZ 12029f0d f i XSAnnotation.obj
 0001:00028f16       ??1SAX2XMLReader@xercesc_3_1@@UAE@XZ 12029f16 f i XSAnnotation.obj
 0001:00028f16       ??1SAX2XMLFilter@xercesc_3_1@@UAE@XZ 12029f16 f i SAX2XMLFilterImpl.obj
 0001:00028f1d       ??0SAXException@xercesc_3_1@@QAE@QAVMemoryManager@1@@Z 12029f1d f i XSAnnotation.obj
 0001:00028f48       ??0SAXException@xercesc_3_1@@QAE@QB_WQAVMemoryManager@1@@Z 12029f48 f i XSAnnotation.obj
 0001:00028f71       ??0SAXException@xercesc_3_1@@QAE@QBDQAVMemoryManager@1@@Z 12029f71 f i XSAnnotation.obj
 0001:00028f9a       ??0SAXException@xercesc_3_1@@QAE@ABV01@@Z 12029f9a f i XSAnnotation.obj
 0001:00028fc8       ??1SAXNotSupportedException@xercesc_3_1@@UAE@XZ 12029fc8 f i XSAnnotation.obj
 0001:00028fc8       ??1SAXException@xercesc_3_1@@UAE@XZ 12029fc8 f i XSAnnotation.obj
 0001:00028fc8       ??1SAXNotRecognizedException@xercesc_3_1@@UAE@XZ 12029fc8 f i XSAnnotation.obj
 0001:00028fdc       ??4SAXException@xercesc_3_1@@QAEAAV01@ABV01@@Z 12029fdc f i XSAnnotation.obj
 0001:00029013       ??_FSAXException@xercesc_3_1@@QAEXXZ 1202a013 f i XSAnnotation.obj
 0001:0002901f       ??_ESAXException@xercesc_3_1@@UAEPAXI@Z 1202a01f f i XSAnnotation.obj
 0001:0002901f       ??_ESAXNotSupportedException@xercesc_3_1@@UAEPAXI@Z 1202a01f f i XSAnnotation.obj
 0001:0002901f       ??_ESAXNotRecognizedException@xercesc_3_1@@UAEPAXI@Z 1202a01f f i XSAnnotation.obj
 0001:00029076       ??0SAXNotSupportedException@xercesc_3_1@@QAE@ABV01@@Z 1202a076 f i XSAnnotation.obj
 0001:00029076       ??0SAXNotSupportedException@xercesc_3_1@@QAE@ABVSAXException@1@@Z 1202a076 f i SAXException.obj
 0001:00029091       ??_FSAXNotSupportedException@xercesc_3_1@@QAEXXZ 1202a091 f i XSAnnotation.obj
 0001:0002909d       ??4SAXNotSupportedException@xercesc_3_1@@QAEAAV01@ABV01@@Z 1202a09d f i XSAnnotation.obj
 0001:0002909d       ??4SAXNotRecognizedException@xercesc_3_1@@QAEAAV01@ABV01@@Z 1202a09d f i XSAnnotation.obj
 0001:000290b2       ??_FSAXNotRecognizedException@xercesc_3_1@@QAEXXZ 1202a0b2 f i XSAnnotation.obj
 0001:000290be       ?createXMLReader@XMLReaderFactory@xercesc_3_1@@SAPAVSAX2XMLReader@2@PB_W@Z 1202a0be f i XSAnnotation.obj
 0001:000290e8       ??0DOMNode@xercesc_3_1@@IAE@XZ 1202a0e8 f i XSAnnotation.obj
 0001:000290f1       ??0DOMNode@xercesc_3_1@@IAE@ABV01@@Z 1202a0f1 f i XSAnnotation.obj
 0001:000290fc       ??0DOMDocumentRange@xercesc_3_1@@IAE@XZ 1202a0fc f i XSAnnotation.obj
 0001:00029105       ??1DOMDocumentRange@xercesc_3_1@@UAE@XZ 1202a105 f i XSAnnotation.obj
 0001:0002910c       ??_EDOMDocumentRange@xercesc_3_1@@UAEPAXI@Z 1202a10c f i XSAnnotation.obj
 0001:00029159       ??0DOMNodeFilter@xercesc_3_1@@IAE@XZ 1202a159 f i XSAnnotation.obj
 0001:00029162       ??1DOMNodeFilter@xercesc_3_1@@UAE@XZ 1202a162 f i XSAnnotation.obj
 0001:00029162       ??1DOMLSSerializerFilter@xercesc_3_1@@UAE@XZ 1202a162 f i AbstractDOMParser.obj
 0001:00029169       ??_EDOMLSSerializerFilter@xercesc_3_1@@UAEPAXI@Z 1202a169 f i AbstractDOMParser.obj
 0001:00029169       ??_EDOMNodeFilter@xercesc_3_1@@UAEPAXI@Z 1202a169 f i XSAnnotation.obj
 0001:000291b6       ??0DOMDocumentTraversal@xercesc_3_1@@IAE@XZ 1202a1b6 f i XSAnnotation.obj
 0001:000291bf       ??1DOMDocumentTraversal@xercesc_3_1@@UAE@XZ 1202a1bf f i XSAnnotation.obj
 0001:000291c6       ??_EDOMDocumentTraversal@xercesc_3_1@@UAEPAXI@Z 1202a1c6 f i XSAnnotation.obj
 0001:00029213       ??0DOMXPathResult@xercesc_3_1@@IAE@XZ 1202a213 f i XSAnnotation.obj
 0001:0002921c       ??1DOMXPathResult@xercesc_3_1@@UAE@XZ 1202a21c f i XSAnnotation.obj
 0001:00029223       ??_EDOMXPathResult@xercesc_3_1@@UAEPAXI@Z 1202a223 f i XSAnnotation.obj
 0001:00029270       ??0DOMXPathEvaluator@xercesc_3_1@@IAE@XZ 1202a270 f i XSAnnotation.obj
 0001:00029279       ??1DOMXPathEvaluator@xercesc_3_1@@UAE@XZ 1202a279 f i XSAnnotation.obj
 0001:00029280       ??_EDOMXPathEvaluator@xercesc_3_1@@UAEPAXI@Z 1202a280 f i XSAnnotation.obj
 0001:000292cd       ??0DOMDocument@xercesc_3_1@@IAE@XZ 1202a2cd f i XSAnnotation.obj
 0001:00029300       ??1DOMDocument@xercesc_3_1@@UAE@XZ 1202a300 f i XSAnnotation.obj
 0001:0002931c       ?createDocumentType@DOMDocument@xercesc_3_1@@UAEPAVDOMDocumentType@2@PB_W00@Z 1202a31c f i XSAnnotation.obj
 0001:0002932e       ??_EDOMDocument@xercesc_3_1@@UAEPAXI@Z 1202a32e f i XSAnnotation.obj
 0001:00029390       ??1XMLDocumentHandler@xercesc_3_1@@UAE@XZ 1202a390 f i XSAnnotation.obj
 0001:00029397       ??0XMLDocumentHandler@xercesc_3_1@@IAE@XZ 1202a397 f i XSAnnotation.obj
 0001:000293a0       ??_EXMLDocumentHandler@xercesc_3_1@@UAEPAXI@Z 1202a3a0 f i XSAnnotation.obj
 0001:000293ed       ??1XMLEntityHandler@xercesc_3_1@@UAE@XZ 1202a3ed f i XSAnnotation.obj
 0001:000293f4       ??0XMLEntityHandler@xercesc_3_1@@IAE@XZ 1202a3f4 f i XSAnnotation.obj
 0001:000293fd       ??_EXMLEntityHandler@xercesc_3_1@@UAEPAXI@Z 1202a3fd f i XSAnnotation.obj
 0001:0002944a       ??0DocTypeHandler@xercesc_3_1@@QAE@XZ 1202a44a f i XSAnnotation.obj
 0001:00029453       ??1DocTypeHandler@xercesc_3_1@@UAE@XZ 1202a453 f i XSAnnotation.obj
 0001:0002945a       ??_EDocTypeHandler@xercesc_3_1@@UAEPAXI@Z 1202a45a f i XSAnnotation.obj
 0001:000294a7       ??0DOMDocumentType@xercesc_3_1@@IAE@XZ 1202a4a7 f i XSAnnotation.obj
 0001:000294b0       ??1PSVIHandler@xercesc_3_1@@UAE@XZ 1202a4b0 f i XSAnnotation.obj
 0001:000294b7       ??0PSVIHandler@xercesc_3_1@@IAE@XZ 1202a4b7 f i XSAnnotation.obj
 0001:000294c0       ??_EPSVIHandler@xercesc_3_1@@UAEPAXI@Z 1202a4c0 f i XSAnnotation.obj
 0001:0002950d       ??_FAbstractDOMParser@xercesc_3_1@@QAEXXZ 1202a50d f i XSAnnotation.obj
 0001:0002951d       ?getSystemId@DOMDocumentTypeImpl@xercesc_3_1@@UBEPB_WXZ 1202a51d f i DOMDocumentTypeImpl.obj
 0001:0002951d       ?getXMLNamespaceId@XMLScanner@xercesc_3_1@@QBEIXZ 1202a51d f i XMLValidator.obj
 0001:0002951d       ?getEntityResolver@SAXParser@xercesc_3_1@@QAEPAVEntityResolver@2@XZ 1202a51d f i SAX2XMLReaderImpl.obj
 0001:0002951d       ?getPrefix@DOMElementNSImpl@xercesc_3_1@@UBEPB_WXZ 1202a51d f i DOMElementNSImpl.obj
 0001:0002951d       ?getXmlVersion@DOMEntityImpl@xercesc_3_1@@UBEPB_WXZ 1202a51d f i DOMEntityImpl.obj
 0001:0002951d       ?getDatatypeValidator@ComplexTypeInfo@xercesc_3_1@@QBEPAVDatatypeValidator@2@XZ 1202a51d f i XMLElementDecl.obj
 0001:0002951d       ?getGrammarResolver@AbstractDOMParser@xercesc_3_1@@IBEPAVGrammarResolver@2@XZ 1202a51d f i XSAnnotation.obj
 0001:0002951d       ?getContentHandler@SAX2XMLReaderImpl@xercesc_3_1@@UBEPAVContentHandler@2@XZ 1202a51d f i SAX2XMLReaderImpl.obj
 0001:0002951d       ?getEntityResolver@SAXParser@xercesc_3_1@@QBEPBVEntityResolver@2@XZ 1202a51d f i SAX2XMLReaderImpl.obj
 0001:0002951d       ?getXmlVersion@DOMDocumentImpl@xercesc_3_1@@UBEPB_WXZ 1202a51d f i DOMDocumentImpl.obj
 0001:0002951d       ?getMemoryManager@DatatypeValidator@xercesc_3_1@@QBEPAVMemoryManager@2@XZ 1202a51d f i XMLAttr.obj
 0001:00029521       ?getCreateCommentNodes@AbstractDOMParser@xercesc_3_1@@QBE_NXZ 1202a521 f i XSAnnotation.obj
 0001:00029521       ?isFixed@XSFacet@xercesc_3_1@@QBE_NXZ 1202a521 f i XSFacet.obj
 0001:00029521       ?isFixed@XSMultiValueFacet@xercesc_3_1@@QBE_NXZ 1202a521 f i XSMultiValueFacet.obj
 0001:00029521       ?getIdentityConstraintChecking@XMLScanner@xercesc_3_1@@QBE_NXZ 1202a521 f i XMLValidator.obj
 0001:00029525       ?getMostRecentAttrValidator@SchemaValidator@xercesc_3_1@@QBEPAVDatatypeValidator@2@XZ 1202a525 f i IGXMLScanner.obj
 0001:00029525       ?getPSVIHandler@AbstractDOMParser@xercesc_3_1@@QAEPAVPSVIHandler@2@XZ 1202a525 f i XSAnnotation.obj
 0001:00029525       ?getPSVIHandler@AbstractDOMParser@xercesc_3_1@@QBEPBVPSVIHandler@2@XZ 1202a525 f i XSAnnotation.obj
 0001:00029525       ?getErrorHandler@SAX2XMLReaderImpl@xercesc_3_1@@UBEPAVErrorHandler@2@XZ 1202a525 f i SAX2XMLReaderImpl.obj
 0001:00029525       ?getTotalDigits@DecimalDatatypeValidator@xercesc_3_1@@QBEIXZ 1202a525 f i DatatypeValidator.obj
 0001:00029529       ?getCreateSchemaInfo@AbstractDOMParser@xercesc_3_1@@QBE_NXZ 1202a529 f i XSAnnotation.obj
 0001:00029529       ?isUsingCachedGrammarInParse@XMLScanner@xercesc_3_1@@QBE_NXZ 1202a529 f i XMLValidator.obj
 0001:0002952d       ?setIncludeIgnorableWhitespace@AbstractDOMParser@xercesc_3_1@@QAEX_N@Z 1202a52d f i XSAnnotation.obj
 0001:0002953a       ?useImplementation@AbstractDOMParser@xercesc_3_1@@QAEXQB_W@Z 1202a53a f i XSAnnotation.obj
 0001:00029560       ?getAttWildCard@ComplexTypeInfo@xercesc_3_1@@QAEPAVSchemaAttDef@2@XZ 1202a560 f i XMLElementDecl.obj
 0001:00029560       ?getMemberTypeValidators@UnionDatatypeValidator@xercesc_3_1@@QBEPAV?$RefVectorOf@VDatatypeValidator@xercesc_3_1@@@2@XZ 1202a560 f i XMLElementDecl.obj
 0001:00029560       ?getMemoryManager@AbstractDOMParser@xercesc_3_1@@IBEPAVMemoryManager@2@XZ 1202a560 f i XSAnnotation.obj
 0001:00029560       ?getPSVIHandler@SAXParser@xercesc_3_1@@QBEPBVPSVIHandler@2@XZ 1202a560 f i SAX2XMLReaderImpl.obj
 0001:00029560       ?getPSVIHandler@SAXParser@xercesc_3_1@@QAEPAVPSVIHandler@2@XZ 1202a560 f i SAX2XMLReaderImpl.obj
 0001:00029560       ?getMaxInclusive@AbstractNumericFacetValidator@xercesc_3_1@@QBEPAVXMLNumber@2@XZ 1202a560 f i AbstractNumericFacetValidator.obj
 0001:00029560       ?getDatatypeValidator@SchemaElementDecl@xercesc_3_1@@QBEPAVDatatypeValidator@2@XZ 1202a560 f i XMLElementDecl.obj
 0001:00029560       ?getMinLength@AbstractStringValidator@xercesc_3_1@@QBEKXZ 1202a560 f i XMLGrammarPoolImpl.obj
 0001:00029560       ?getAttWildCard@ComplexTypeInfo@xercesc_3_1@@QBEPBVSchemaAttDef@2@XZ 1202a560 f i XMLElementDecl.obj
 0001:00029564       ?setParseInProgress@AbstractDOMParser@xercesc_3_1@@IAEX_N@Z 1202a564 f i XSAnnotation.obj
 0001:00029564       ?setValidationSchemaFullChecking@XMLScanner@xercesc_3_1@@QAEX_N@Z 1202a564 f i XMLValidator.obj
 0001:00029571       ??_FXercesDOMParser@xercesc_3_1@@QAEXXZ 1202a571 f i XSAnnotation.obj
 0001:00029581       ?setNodeValue@DOMEntityImpl@xercesc_3_1@@UAEXPB_W@Z 1202a581 f i DOMEntityImpl.obj
 0001:00029581       ?validateElement@DTDValidator@xercesc_3_1@@UAEXPBVXMLElementDecl@2@@Z 1202a581 f i DGXMLScanner.obj
 0001:00029581       ?serialize@XMLAttDefList@xercesc_3_1@@UAEXAAVXSerializeEngine@2@@Z 1202a581 f i XMLAttDefList.obj
 0001:00029581       ?setDeclarationHandler@SAX2XMLFilterImpl@xercesc_3_1@@UAEXQAVDeclHandler@2@@Z 1202a581 f i SAX2XMLFilterImpl.obj
 0001:00029581       ?startAttList@SAXParser@xercesc_3_1@@UAEXABVDTDElementDecl@2@@Z 1202a581 f i SAXParser.obj
 0001:00029581       ?endPrefixMapping@DefaultHandler@xercesc_3_1@@UAEXQB_W@Z 1202a581 f i sax2Dummy.obj
 0001:00029581       ?serialize@XMLGrammarDescription@xercesc_3_1@@UAEXAAVXSerializeEngine@2@@Z 1202a581 f i XMLGrammarDescription.obj
 0001:00029581       ?setNodeValue@DOMDocumentFragmentImpl@xercesc_3_1@@UAEXPB_W@Z 1202a581 f i DOMDocumentFragmentImpl.obj
 0001:00029581       ?installAdvDocHandler@SAX2XMLFilterImpl@xercesc_3_1@@UAEXQAVXMLDocumentHandler@2@@Z 1202a581 f i SAX2XMLFilterImpl.obj
 0001:00029581       ?startInputSource@XercesDOMParser@xercesc_3_1@@UAEXABVInputSource@2@@Z 1202a581 f i XSAnnotation.obj
 0001:00029581       ?setNodeValue@DOMElementImpl@xercesc_3_1@@UAEXPB_W@Z 1202a581 f i DOMElementImpl.obj
 0001:00029581       ?setNodeValue@DOMDocumentTypeImpl@xercesc_3_1@@UAEXPB_W@Z 1202a581 f i DOMDocumentTypeImpl.obj
 0001:00029581       ?setContentModel@SchemaElementDecl@xercesc_3_1@@UAEXQAVXMLContentModel@2@@Z 1202a581 f i XMLElementDecl.obj
 0001:00029581       ?setEnclosingCT@SchemaAttDef@xercesc_3_1@@QAEXPAVComplexTypeInfo@2@@Z 1202a581 f i XMLElementDecl.obj
 0001:00029581       ?error@HandlerBase@xercesc_3_1@@UAEXABVSAXParseException@2@@Z 1202a581 f i Dummy.obj
 0001:00029581       ?warning@DefaultHandler@xercesc_3_1@@UAEXABVSAXParseException@2@@Z 1202a581 f i sax2Dummy.obj
 0001:00029581       ?endAttList@SAX2XMLReaderImpl@xercesc_3_1@@UAEXABVDTDElementDecl@2@@Z 1202a581 f i SAX2XMLReaderImpl.obj
 0001:00029581       ?startEntityReference@XSDDOMParser@xercesc_3_1@@UAEXABVXMLEntityDecl@2@@Z 1202a581 f i XSDDOMParser.obj
 0001:00029581       ?serialize@XSerializable@xercesc_3_1@@UAEXAAVXSerializeEngine@2@@Z 1202a581 f i KVStringPair.obj
 0001:00029581       ?endEntityReference@XSDDOMParser@xercesc_3_1@@UAEXABVXMLEntityDecl@2@@Z 1202a581 f i XSDDOMParser.obj
 0001:00029581       ?endInputSource@DOMLSParserImpl@xercesc_3_1@@UAEXABVInputSource@2@@Z 1202a581 f i DOMLSParserImpl.obj
 0001:00029581       ?setSystemId@XMLDTDDescription@xercesc_3_1@@UAEXQB_W@Z 1202a581 f i XMLDTDDescription.obj
 0001:00029581       ?setNodeValue@DOMNotationImpl@xercesc_3_1@@UAEXPB_W@Z 1202a581 f i DOMNotationImpl.obj
 0001:00029581       ?endInputSource@SAX2XMLReaderImpl@xercesc_3_1@@UAEXABVInputSource@2@@Z 1202a581 f i SAX2XMLReaderImpl.obj
 0001:00029581       ?serialize@XMLSchemaDescription@xercesc_3_1@@UAEXAAVXSerializeEngine@2@@Z 1202a581 f i XMLSchemaDescription.obj
 0001:00029581       ?setNodeValue@DOMEntityReferenceImpl@xercesc_3_1@@UAEXPB_W@Z 1202a581 f i DOMEntityReferenceImpl.obj
 0001:00029581       ?setContentSpec@SchemaElementDecl@xercesc_3_1@@UAEXPAVContentSpecNode@2@@Z 1202a581 f i XMLElementDecl.obj
 0001:00029581       ?setLexicalHandler@SAX2XMLFilterImpl@xercesc_3_1@@UAEXQAVLexicalHandler@2@@Z 1202a581 f i SAX2XMLFilterImpl.obj
 0001:00029581       ?checkAdditionalFacetConstraintsBase@AbstractNumericFacetValidator@xercesc_3_1@@MBEXQAVMemoryManager@2@@Z 1202a581 f i AbstractNumericFacetValidator.obj
 0001:00029581       ?checkAdditionalFacetConstraints@AbstractNumericFacetValidator@xercesc_3_1@@MBEXQAVMemoryManager@2@@Z 1202a581 f i AbstractNumericFacetValidator.obj
 0001:00029581       ?setStringData@Wrapper4InputSource@xercesc_3_1@@UAEXPB_W@Z 1202a581 f i Wrapper4InputSource.obj
 0001:00029581       ?setElemStack@ValidationContext@xercesc_3_1@@UAEXPAVElemStack@2@@Z 1202a581 f i XMLAttr.obj
 0001:00029581       ?setNodeValue@DOMNodeImpl@xercesc_3_1@@QAEXPB_W@Z 1202a581 f i DOMNodeImpl.obj
 0001:00029581       ?serialize@XMLNumber@xercesc_3_1@@UAEXAAVXSerializeEngine@2@@Z 1202a581 f i XMLNumber.obj
 0001:00029581       ?setByteStream@Wrapper4InputSource@xercesc_3_1@@UAEXPAVInputSource@2@@Z 1202a581 f i Wrapper4InputSource.obj
 0001:00029581       ?endEntity@DefaultHandler@xercesc_3_1@@UAEXQB_W@Z 1202a581 f i sax2Dummy.obj
 0001:00029581       ?doctypeComment@SAXParser@xercesc_3_1@@UAEXQB_W@Z 1202a581 f i SAXParser.obj
 0001:00029581       ?endAttList@SAXParser@xercesc_3_1@@UAEXABVDTDElementDecl@2@@Z 1202a581 f i SAXParser.obj
 0001:00029581       ?skippedEntity@DefaultHandler@xercesc_3_1@@UAEXQB_W@Z 1202a581 f i sax2Dummy.obj
 0001:00029581       ?serialize@Grammar@xercesc_3_1@@UAEXAAVXSerializeEngine@2@@Z 1202a581 f i Grammar.obj
 0001:00029581       ?setDocumentLocator@DefaultHandler@xercesc_3_1@@UAEXQBVLocator@2@@Z 1202a581 f i sax2Dummy.obj
 0001:00029581       ?endInputSource@SAXParser@xercesc_3_1@@UAEXABVInputSource@2@@Z 1202a581 f i SAXParser.obj
 0001:00029581       ?endElement@HandlerBase@xercesc_3_1@@UAEXQB_W@Z 1202a581 f i Dummy.obj
 0001:00029581       ?startAttList@SAX2XMLReaderImpl@xercesc_3_1@@UAEXABVDTDElementDecl@2@@Z 1202a581 f i SAX2XMLReaderImpl.obj
 0001:00029581       ?startInputSource@SAXParser@xercesc_3_1@@UAEXABVInputSource@2@@Z 1202a581 f i SAXParser.obj
 0001:00029581       ?startEntity@DefaultHandler@xercesc_3_1@@UAEXQB_W@Z 1202a581 f i sax2Dummy.obj
 0001:00029581       ?warning@HandlerBase@xercesc_3_1@@UAEXABVSAXParseException@2@@Z 1202a581 f i Dummy.obj
 0001:00029581       ?error@DefaultHandler@xercesc_3_1@@UAEXABVSAXParseException@2@@Z 1202a581 f i sax2Dummy.obj
 0001:00029581       ?trace@XSerializeEngine@xercesc_3_1@@QBEXPAD@Z 1202a581 f i XSerializeEngine.obj
 0001:00029581       ?setScanner@ValidationContext@xercesc_3_1@@UAEXPAVXMLScanner@2@@Z 1202a581 f i XMLAttr.obj
 0001:00029581       ?setMax@Token@xercesc_3_1@@UAEXH@Z 1202a581 f i ASCIIRangeFactory.obj
 0001:00029581       ?checkAdditionalFacetConstraints@AbstractStringValidator@xercesc_3_1@@MBEXQAVMemoryManager@2@@Z 1202a581 f i AbstractStringValidator.obj
 0001:00029581       ?setInputBufferSize@SAX2XMLReader@xercesc_3_1@@UAEXK@Z 1202a581 f i XSAnnotation.obj
 0001:00029581       ?serialize@XMLDTDDescription@xercesc_3_1@@UAEXAAVXSerializeEngine@2@@Z 1202a581 f i XMLDTDDescription.obj
 0001:00029581       ?setDocumentLocator@HandlerBase@xercesc_3_1@@UAEXQBVLocator@2@@Z 1202a581 f i Dummy.obj
 0001:00029581       ?setNodeValue@DOMDocumentImpl@xercesc_3_1@@UAEXPB_W@Z 1202a581 f i DOMDocumentImpl.obj
 0001:00029581       ?startInputSource@SAX2XMLReaderImpl@xercesc_3_1@@UAEXABVInputSource@2@@Z 1202a581 f i SAX2XMLReaderImpl.obj
 0001:00029581       ?setBaseURI@Wrapper4InputSource@xercesc_3_1@@UAEXQB_W@Z 1202a581 f i Wrapper4InputSource.obj
 0001:00029581       ?setNamespaceScope@ValidationContext@xercesc_3_1@@UAEXPAVNamespaceScope@2@@Z 1202a581 f i XMLAttr.obj
 0001:00029581       ?setMin@Token@xercesc_3_1@@UAEXH@Z 1202a581 f i ASCIIRangeFactory.obj
 0001:00029581       ?endInputSource@XercesDOMParser@xercesc_3_1@@UAEXABVInputSource@2@@Z 1202a581 f i XSAnnotation.obj
 0001:00029581       ?startInputSource@DOMLSParserImpl@xercesc_3_1@@UAEXABVInputSource@2@@Z 1202a581 f i DOMLSParserImpl.obj
 0001:00029584       ?getDocTypeHandler@XMLScanner@xercesc_3_1@@QAEPAVDocTypeHandler@2@XZ 1202a584 f i XMLValidator.obj
 0001:00029584       ?getErrorHandler@XercesDOMParser@xercesc_3_1@@QBEPBVErrorHandler@2@XZ 1202a584 f i XSAnnotation.obj
 0001:00029584       ?getDeclarationHandler@SAX2XMLReaderImpl@xercesc_3_1@@UBEPAVDeclHandler@2@XZ 1202a584 f i SAX2XMLReaderImpl.obj
 0001:00029584       ?getErrorHandler@XercesDOMParser@xercesc_3_1@@QAEPAVErrorHandler@2@XZ 1202a584 f i XSAnnotation.obj
 0001:00029584       ?getDocTypeHandler@XMLScanner@xercesc_3_1@@QBEPBVDocTypeHandler@2@XZ 1202a584 f i XMLValidator.obj
 0001:00029588       ??0DOMElement@xercesc_3_1@@IAE@XZ 1202a588 f i XSAnnotation.obj
 0001:00029591       ??0DOMElement@xercesc_3_1@@IAE@ABV01@@Z 1202a591 f i XSAnnotation.obj
 0001:0002959c       ??0XSAnnotation@xercesc_3_1@@QAE@QB_WQAVMemoryManager@1@@Z 1202a59c f   XSAnnotation.obj
 0001:00029607       ??0XSAnnotation@xercesc_3_1@@QAE@QAVMemoryManager@1@@Z 1202a607 f   XSAnnotation.obj
 0001:0002965b       ??1XSAnnotation@xercesc_3_1@@UAE@XZ 1202a65b f   XSAnnotation.obj
 0001:000296b6       ?writeAnnotation@XSAnnotation@xercesc_3_1@@QAEXPAVDOMNode@2@W4ANNOTATION_TARGET@12@@Z 1202a6b6 f   XSAnnotation.obj
 0001:000297f8       ?writeAnnotation@XSAnnotation@xercesc_3_1@@QAEXPAVContentHandler@2@@Z 1202a7f8 f   XSAnnotation.obj
 0001:000298d3       ?setNext@XSAnnotation@xercesc_3_1@@QAEXQAV12@@Z 1202a8d3 f   XSAnnotation.obj
 0001:000298eb       ?setSystemId@XSAnnotation@xercesc_3_1@@QAEXQB_W@Z 1202a8eb f   XSAnnotation.obj
 0001:00029920       ?createObject@XSAnnotation@xercesc_3_1@@SAPAVXSerializable@2@PAVMemoryManager@2@@Z 1202a920 f   XSAnnotation.obj
 0001:00029954       ?getProtoType@XSAnnotation@xercesc_3_1@@UBEPAVXProtoType@2@XZ 1202a954 f   XSAnnotation.obj
 0001:0002995a       ?serialize@XSAnnotation@xercesc_3_1@@UAEXAAVXSerializeEngine@2@@Z 1202a95a f   XSAnnotation.obj
 0001:00029a07       ??_EDOMDocument@xercesc_3_1@@W3AEPAXI@Z 1202aa07 f i XSAnnotation.obj
 0001:00029a0f       ??_EDOMDocument@xercesc_3_1@@W7AEPAXI@Z 1202aa0f f i XSAnnotation.obj
 0001:00029a17       ??_EDOMDocument@xercesc_3_1@@WM@AEPAXI@Z 1202aa17 f i XSAnnotation.obj
 0001:00029a1f       ??_EXSAnnotation@xercesc_3_1@@W3AEPAXI@Z 1202aa1f f i XSAnnotation.obj
 0001:00029a27       ??_EXSAttributeDeclaration@xercesc_3_1@@UAEPAXI@Z 1202aa27 f i XSAttributeDeclaration.obj
 0001:00029a73       ?getDoctype@DOMDocumentImpl@xercesc_3_1@@UBEPAVDOMDocumentType@2@XZ 1202aa73 f i DOMDocumentImpl.obj
 0001:00029a73       ?getAnnotations@XSModel@xercesc_3_1@@QAEPAV?$RefVectorOf@VXSAnnotation@xercesc_3_1@@@2@XZ 1202aa73 f i XSModel.obj
 0001:00029a73       ?getSchemaNamespace@XSNamespaceItem@xercesc_3_1@@QBEPB_WXZ 1202aa73 f i XSAttributeDeclaration.obj
 0001:00029a7a       ??0XSAttributeDeclaration@xercesc_3_1@@QAE@QAVSchemaAttDef@1@QAVXSSimpleTypeDefinition@1@QAVXSAnnotation@1@QAVXSModel@1@W4SCOPE@XSConstants@1@PAVXSComplexTypeDefinition@1@QAVMemoryManager@1@@Z 1202aa7a f   XSAttributeDeclaration.obj
 0001:00029ab8       ?getName@XSAttributeDeclaration@xercesc_3_1@@UBEPB_WXZ 1202aab8 f   XSAttributeDeclaration.obj
 0001:00029ac2       ?getNamespace@XSAttributeDeclaration@xercesc_3_1@@UAEPB_WXZ 1202aac2 f   XSAttributeDeclaration.obj
 0001:00029ada       ?getConstraintType@XSAttributeDeclaration@xercesc_3_1@@QBE?AW4VALUE_CONSTRAINT@XSConstants@2@XZ 1202aada f   XSAttributeDeclaration.obj
 0001:00029afd       ?getConstraintValue@XSAttributeDeclaration@xercesc_3_1@@QAEPB_WXZ 1202aafd f   XSAttributeDeclaration.obj
 0001:00029b0d       ?getRequired@XSAttributeDeclaration@xercesc_3_1@@QBE_NXZ 1202ab0d f   XSAttributeDeclaration.obj
 0001:00029b23       ??_EXSAttributeGroupDefinition@xercesc_3_1@@UAEPAXI@Z 1202ab23 f i XSAttributeGroupDefinition.obj
 0001:00029b6e       ??0XSAttributeGroupDefinition@xercesc_3_1@@QAE@QAVXercesAttGroupInfo@1@QAV?$RefVectorOf@VXSAttributeUse@xercesc_3_1@@@1@QAVXSWildcard@1@QAVXSAnnotation@1@QAVXSModel@1@QAVMemoryManager@1@@Z 1202ab6e f   XSAttributeGroupDefinition.obj
 0001:00029ba6       ??1XSAttributeGroupDefinition@xercesc_3_1@@UAE@XZ 1202aba6 f   XSAttributeGroupDefinition.obj
 0001:00029bda       ?getNamespace@XSAttributeGroupDefinition@xercesc_3_1@@UAEPB_WXZ 1202abda f   XSAttributeGroupDefinition.obj
 0001:00029bda       ?getName@XSModelGroupDefinition@xercesc_3_1@@UBEPB_WXZ 1202abda f   XSModelGroupDefinition.obj
 0001:00029bef       ?getNamespaceItem@XSIDCDefinition@xercesc_3_1@@UAEPAVXSNamespaceItem@2@XZ 1202abef f   XSIDCDefinition.obj
 0001:00029bef       ?getNamespaceItem@XSSimpleTypeDefinition@xercesc_3_1@@UAEPAVXSNamespaceItem@2@XZ 1202abef f   XSSimpleTypeDefinition.obj
 0001:00029bef       ?getNamespaceItem@XSElementDeclaration@xercesc_3_1@@UAEPAVXSNamespaceItem@2@XZ 1202abef f   XSElementDeclaration.obj
 0001:00029bef       ?getNamespaceItem@XSAttributeDeclaration@xercesc_3_1@@UAEPAVXSNamespaceItem@2@XZ 1202abef f   XSAttributeDeclaration.obj
 0001:00029bef       ?getNamespaceItem@XSModelGroupDefinition@xercesc_3_1@@UAEPAVXSNamespaceItem@2@XZ 1202abef f   XSModelGroupDefinition.obj
 0001:00029bef       ?getNamespaceItem@XSAttributeGroupDefinition@xercesc_3_1@@UAEPAVXSNamespaceItem@2@XZ 1202abef f   XSAttributeGroupDefinition.obj
 0001:00029bef       ?getNamespaceItem@XSNotationDeclaration@xercesc_3_1@@UAEPAVXSNamespaceItem@2@XZ 1202abef f   XSNotationDeclaration.obj
 0001:00029bef       ?getNamespaceItem@XSComplexTypeDefinition@xercesc_3_1@@UAEPAVXSNamespaceItem@2@XZ 1202abef f   XSComplexTypeDefinition.obj
 0001:00029c02       ??0XSAttributeUse@xercesc_3_1@@QAE@QAVXSAttributeDeclaration@1@QAVXSModel@1@QAVMemoryManager@1@@Z 1202ac02 f   XSAttributeUse.obj
 0001:00029c33       ?set@XSAttributeUse@xercesc_3_1@@AAEX_NW4VALUE_CONSTRAINT@XSConstants@2@QB_W@Z 1202ac33 f   XSAttributeUse.obj
 0001:00029c4c       ??_EXSComplexTypeDefinition@xercesc_3_1@@UAEPAXI@Z 1202ac4c f i XSComplexTypeDefinition.obj
 0001:00029c97       ?getMaxOccursUnbounded@XSParticle@xercesc_3_1@@QBE_NXZ 1202ac97 f i XSComplexTypeDefinition.obj
 0001:00029c97       ?getIgnoreCachedDTD@XMLScanner@xercesc_3_1@@QBE_NXZ 1202ac97 f i XMLValidator.obj
 0001:00029c97       ?getIsSchemaSpecified@PSVIItem@xercesc_3_1@@QBE_NXZ 1202ac97 f i PSVIAttribute.obj
 0001:00029c9b       ??_FSchemaAttDefList@xercesc_3_1@@QAEXXZ 1202ac9b f i XSComplexTypeDefinition.obj
 0001:00029ca7       ?findAttDefLocalPart@SchemaAttDefList@xercesc_3_1@@QAEPAVXMLAttDef@2@IQB_W@Z 1202aca7 f i XSComplexTypeDefinition.obj
 0001:00029ca7       ?findAttDefLocalPart@SchemaAttDefList@xercesc_3_1@@QBEPBVXMLAttDef@2@IQB_W@Z 1202aca7 f i XSComplexTypeDefinition.obj
 0001:00029cbc       ??0XSComplexTypeDefinition@xercesc_3_1@@QAE@QAVComplexTypeInfo@1@QAVXSWildcard@1@QAVXSSimpleTypeDefinition@1@QAV?$RefVectorOf@VXSAttributeUse@xercesc_3_1@@@1@QAVXSTypeDefinition@1@QAVXSParticle@1@QAVXSAnnotation@1@QAVXSModel@1@QAVMemoryManager@1@@Z 1202acbc f   XSComplexTypeDefinition.obj
 0001:00029d96       ??1XSComplexTypeDefinition@xercesc_3_1@@UAE@XZ 1202ad96 f   XSComplexTypeDefinition.obj
 0001:00029de4       ?getDerivationMethod@XSComplexTypeDefinition@xercesc_3_1@@QBE?AW4DERIVATION_TYPE@XSConstants@2@XZ 1202ade4 f   XSComplexTypeDefinition.obj
 0001:00029df4       ?getAbstract@XSComplexTypeDefinition@xercesc_3_1@@QBE_NXZ 1202adf4 f   XSComplexTypeDefinition.obj
 0001:00029dfb       ?getContentType@XSComplexTypeDefinition@xercesc_3_1@@QBE?AW4CONTENT_TYPE@12@XZ 1202adfb f   XSComplexTypeDefinition.obj
 0001:00029e20       ?isProhibitedSubstitution@XSComplexTypeDefinition@xercesc_3_1@@QAE_NW4DERIVATION_TYPE@XSConstants@2@@Z 1202ae20 f   XSComplexTypeDefinition.obj
 0001:00029e31       ?getName@XSComplexTypeDefinition@xercesc_3_1@@UBEPB_WXZ 1202ae31 f   XSComplexTypeDefinition.obj
 0001:00029e38       ?getNamespace@XSComplexTypeDefinition@xercesc_3_1@@UAEPB_WXZ 1202ae38 f   XSComplexTypeDefinition.obj
 0001:00029e3f       ?getAnonymous@XSComplexTypeDefinition@xercesc_3_1@@UBE_NXZ 1202ae3f f   XSComplexTypeDefinition.obj
 0001:00029e46       ?derivedFromType@XSComplexTypeDefinition@xercesc_3_1@@UAE_NQBVXSTypeDefinition@2@@Z 1202ae46 f   XSComplexTypeDefinition.obj
 0001:00029e93       ??1?$BaseRefVectorOf@VXSAnnotation@xercesc_3_1@@@xercesc_3_1@@UAE@XZ 1202ae93 f i XSComplexTypeDefinition.obj
 0001:00029e9a       ??0?$RefVectorOf@VXSAnnotation@xercesc_3_1@@@xercesc_3_1@@QAE@K_NQAVMemoryManager@1@@Z 1202ae9a f i XSComplexTypeDefinition.obj
 0001:00029edb       ??_G?$BaseRefVectorOf@VXSAnnotation@xercesc_3_1@@@xercesc_3_1@@UAEPAXI@Z 1202aedb f i XSComplexTypeDefinition.obj
 0001:00029edb       ??_E?$BaseRefVectorOf@VXSAnnotation@xercesc_3_1@@@xercesc_3_1@@UAEPAXI@Z 1202aedb f i  CIL library: CIL module
 0001:00029efb       ??_E?$RefVectorOf@VXSAnnotation@xercesc_3_1@@@xercesc_3_1@@UAEPAXI@Z 1202aefb f i  CIL library: CIL module
 0001:00029efb       ??_G?$RefVectorOf@VXSAnnotation@xercesc_3_1@@@xercesc_3_1@@UAEPAXI@Z 1202aefb f i XSComplexTypeDefinition.obj
 0001:00029f65       ??_EXSElementDeclaration@xercesc_3_1@@UAEPAXI@Z 1202af65 f i XSElementDeclaration.obj
 0001:00029fb0       ??0XSElementDeclaration@xercesc_3_1@@QAE@QAVSchemaElementDecl@1@QAVXSTypeDefinition@1@QAV01@QAVXSAnnotation@1@QAV?$XSNamedMap@VXSIDCDefinition@xercesc_3_1@@@1@QAVXSModel@1@W4SCOPE@XSConstants@1@QAVXSComplexTypeDefinition@1@QAVMemoryManager@1@@Z 1202afb0 f   XSElementDeclaration.obj
 0001:0002a046       ??1XSElementDeclaration@xercesc_3_1@@UAE@XZ 1202b046 f   XSElementDeclaration.obj
 0001:0002a094       ?getName@XSElementDeclaration@xercesc_3_1@@UBEPB_WXZ 1202b094 f   XSElementDeclaration.obj
 0001:0002a09e       ?getNamespace@XSElementDeclaration@xercesc_3_1@@UAEPB_WXZ 1202b09e f   XSElementDeclaration.obj
 0001:0002a0b6       ?getConstraintType@XSElementDeclaration@xercesc_3_1@@QBE?AW4VALUE_CONSTRAINT@XSConstants@2@XZ 1202b0b6 f   XSElementDeclaration.obj
 0001:0002a0ce       ?getConstraintValue@XSElementDeclaration@xercesc_3_1@@QAEPB_WXZ 1202b0ce f   XSElementDeclaration.obj
 0001:0002a0d5       ?getNillable@XSElementDeclaration@xercesc_3_1@@QBE_NXZ 1202b0d5 f   XSElementDeclaration.obj
 0001:0002a0de       ?isSubstitutionGroupExclusion@XSElementDeclaration@xercesc_3_1@@QAE_NW4DERIVATION_TYPE@XSConstants@2@@Z 1202b0de f   XSElementDeclaration.obj
 0001:0002a0ef       ?isDisallowedSubstitution@XSElementDeclaration@xercesc_3_1@@QAE_NW4DERIVATION_TYPE@XSConstants@2@@Z 1202b0ef f   XSElementDeclaration.obj
 0001:0002a100       ?getAbstract@XSElementDeclaration@xercesc_3_1@@QBE_NXZ 1202b100 f   XSElementDeclaration.obj
 0001:0002a10b       ??_G?$RefHash2KeysTableOf@VSchemaAttDef@xercesc_3_1@@UStringHasher@2@@xercesc_3_1@@QAEPAXI@Z 1202b10b f i XMLElementDecl.obj
 0001:0002a10b       ??_G?$RefHash2KeysTableOf@VXSObject@xercesc_3_1@@UStringHasher@2@@xercesc_3_1@@QAEPAXI@Z 1202b10b f i XSModel.obj
 0001:0002a10b       ??_G?$RefHash2KeysTableOf@VXSIDCDefinition@xercesc_3_1@@UStringHasher@2@@xercesc_3_1@@QAEPAXI@Z 1202b10b f i XSElementDeclaration.obj
 0001:0002a177       ??_EXSFacet@xercesc_3_1@@UAEPAXI@Z 1202b177 f i XSFacet.obj
 0001:0002a177       ??_EXSAttributeUse@xercesc_3_1@@UAEPAXI@Z 1202b177 f i XSAttributeUse.obj
 0001:0002a1c3       ??0XSFacet@xercesc_3_1@@QAE@W4FACET@XSSimpleTypeDefinition@1@QB_W_NQAVXSAnnotation@1@QAVXSModel@1@QAVMemoryManager@1@@Z 1202b1c3 f   XSFacet.obj
 0001:0002a1fb       ??_EXSIDCDefinition@xercesc_3_1@@UAEPAXI@Z 1202b1fb f i XSIDCDefinition.obj
 0001:0002a246       ??_FIC_KeyRef@xercesc_3_1@@QAEXXZ 1202b246 f i XSIDCDefinition.obj
 0001:0002a252       ??_FIC_Selector@xercesc_3_1@@QAEXXZ 1202b252 f i XSIDCDefinition.obj
 0001:0002a261       ??_ESelectorMatcher@xercesc_3_1@@UAEPAXI@Z 1202b261 f i XSIDCDefinition.obj
 0001:0002a2b2       ??0XSIDCDefinition@xercesc_3_1@@QAE@QAVIdentityConstraint@1@QAV01@QAVXSAnnotation@1@QAV?$RefArrayVectorOf@_W@1@QAVXSModel@1@QAVMemoryManager@1@@Z 1202b2b2 f   XSIDCDefinition.obj
 0001:0002a341       ??1XSIDCDefinition@xercesc_3_1@@UAE@XZ 1202b341 f   XSIDCDefinition.obj
 0001:0002a382       ?getNamespace@XSIDCDefinition@xercesc_3_1@@UAEPB_WXZ 1202b382 f   XSIDCDefinition.obj
 0001:0002a397       ?getCategory@XSIDCDefinition@xercesc_3_1@@QBE?AW4IC_CATEGORY@12@XZ 1202b397 f   XSIDCDefinition.obj
 0001:0002a3b7       ?getSelectorStr@XSIDCDefinition@xercesc_3_1@@QAEPB_WXZ 1202b3b7 f   XSIDCDefinition.obj
 0001:0002a3c4       ??_FXSObjectFactory@xercesc_3_1@@QAEXXZ 1202b3c4 f i XSModel.obj
 0001:0002a3d0       ?getObjectFromMap@XSObjectFactory@xercesc_3_1@@AAEPAVXSObject@2@PAX@Z 1202b3d0 f i XSModel.obj
 0001:0002a404       ??0XSModel@xercesc_3_1@@QAE@PAVXMLGrammarPool@1@QAVMemoryManager@1@@Z 1202b404 f   XSModel.obj
 0001:0002a7ac       ??0XSModel@xercesc_3_1@@QAE@PAV01@PAVGrammarResolver@1@QAVMemoryManager@1@@Z 1202b7ac f   XSModel.obj
 0001:0002adca       ??1XSModel@xercesc_3_1@@QAE@XZ 1202bdca f   XSModel.obj
 0001:0002af1e       ??_G?$XSNamedMap@VXSObject@xercesc_3_1@@@xercesc_3_1@@QAEPAXI@Z 1202bf1e f i XSModel.obj
 0001:0002af43       ?addComponentToIdVector@XSModel@xercesc_3_1@@AAEXQAVXSObject@2@K@Z 1202bf43 f   XSModel.obj
 0001:0002af66       ?addComponentToNamespace@XSModel@xercesc_3_1@@AAEXQAVXSNamespaceItem@2@QAVXSObject@2@K_N@Z 1202bf66 f   XSModel.obj
 0001:0002afd4       ?addS4SToXSModel@XSModel@xercesc_3_1@@AAEXQAVXSNamespaceItem@2@QAV?$RefHashTableOf@VDatatypeValidator@xercesc_3_1@@UStringHasher@2@@2@@Z 1202bfd4 f   XSModel.obj
 0001:0002b0cf       ?addGrammarToXSModel@XSModel@xercesc_3_1@@AAEXPAVXSNamespaceItem@2@@Z 1202c0cf f   XSModel.obj
 0001:0002b3db       ?getComponents@XSModel@xercesc_3_1@@QAEPAV?$XSNamedMap@VXSObject@xercesc_3_1@@@2@W4COMPONENT_TYPE@XSConstants@2@@Z 1202c3db f   XSModel.obj
 0001:0002b3e9       ?getComponentsByNamespace@XSModel@xercesc_3_1@@QAEPAV?$XSNamedMap@VXSObject@xercesc_3_1@@@2@W4COMPONENT_TYPE@XSConstants@2@PB_W@Z 1202c3e9 f   XSModel.obj
 0001:0002b414       ?getElementDeclaration@XSModel@xercesc_3_1@@QAEPAVXSElementDeclaration@2@PB_W0@Z 1202c414 f   XSModel.obj
 0001:0002b442       ?getAttributeDeclaration@XSModel@xercesc_3_1@@QAEPAVXSAttributeDeclaration@2@PB_W0@Z 1202c442 f   XSModel.obj
 0001:0002b470       ?getTypeDefinition@XSModel@xercesc_3_1@@QAEPAVXSTypeDefinition@2@PB_W0@Z 1202c470 f   XSModel.obj
 0001:0002b49e       ?getAttributeGroup@XSModel@xercesc_3_1@@QAEPAVXSAttributeGroupDefinition@2@PB_W0@Z 1202c49e f   XSModel.obj
 0001:0002b4cc       ?getModelGroupDefinition@XSModel@xercesc_3_1@@QAEPAVXSModelGroupDefinition@2@PB_W0@Z 1202c4cc f   XSModel.obj
 0001:0002b4fa       ?getNotationDeclaration@XSModel@xercesc_3_1@@QAEPAVXSNotationDeclaration@2@PB_W0@Z 1202c4fa f   XSModel.obj
 0001:0002b528       ?getXSObjectById@XSModel@xercesc_3_1@@QAEPAVXSObject@2@KW4COMPONENT_TYPE@XSConstants@2@@Z 1202c528 f   XSModel.obj
 0001:0002b548       ?getNamespaceItem@XSModel@xercesc_3_1@@QAEPAVXSNamespaceItem@2@QB_W@Z 1202c548 f   XSModel.obj
 0001:0002b57e       ?getXSObject@XSModel@xercesc_3_1@@QAEPAVXSObject@2@PAX@Z 1202c57e f   XSModel.obj
 0001:0002b5ac       ??1?$XMLEnumerator@VDatatypeValidator@xercesc_3_1@@@xercesc_3_1@@UAE@XZ 1202c5ac f i XSModel.obj
 0001:0002b5b3       ??1?$XMLEnumerator@VXMLAttDef@xercesc_3_1@@@xercesc_3_1@@UAE@XZ 1202c5b3 f i XSModel.obj
 0001:0002b5ba       ??1?$XMLEnumerator@VComplexTypeInfo@xercesc_3_1@@@xercesc_3_1@@UAE@XZ 1202c5ba f i XSModel.obj
 0001:0002b5c1       ??1?$XMLEnumerator@VXercesAttGroupInfo@xercesc_3_1@@@xercesc_3_1@@UAE@XZ 1202c5c1 f i XSModel.obj
 0001:0002b5c8       ??1?$XMLEnumerator@VXercesGroupInfo@xercesc_3_1@@@xercesc_3_1@@UAE@XZ 1202c5c8 f i XSModel.obj
 0001:0002b5cf       ??_G?$XMLEnumerator@VDatatypeValidator@xercesc_3_1@@@xercesc_3_1@@UAEPAXI@Z 1202c5cf f i XSModel.obj
 0001:0002b5cf       ??_E?$XMLEnumerator@VDatatypeValidator@xercesc_3_1@@@xercesc_3_1@@UAEPAXI@Z 1202c5cf f i  CIL library: CIL module
 0001:0002b5f0       ??_G?$XMLEnumerator@VXMLAttDef@xercesc_3_1@@@xercesc_3_1@@UAEPAXI@Z 1202c5f0 f i XSModel.obj
 0001:0002b5f0       ??_E?$XMLEnumerator@VXMLAttDef@xercesc_3_1@@@xercesc_3_1@@UAEPAXI@Z 1202c5f0 f i  CIL library: CIL module
 0001:0002b611       ??_E?$XMLEnumerator@VComplexTypeInfo@xercesc_3_1@@@xercesc_3_1@@UAEPAXI@Z 1202c611 f i  CIL library: CIL module
 0001:0002b611       ??_G?$XMLEnumerator@VComplexTypeInfo@xercesc_3_1@@@xercesc_3_1@@UAEPAXI@Z 1202c611 f i XSModel.obj
 0001:0002b632       ??_E?$XMLEnumerator@VXercesAttGroupInfo@xercesc_3_1@@@xercesc_3_1@@UAEPAXI@Z 1202c632 f i  CIL library: CIL module
 0001:0002b632       ??_G?$XMLEnumerator@VXercesAttGroupInfo@xercesc_3_1@@@xercesc_3_1@@UAEPAXI@Z 1202c632 f i XSModel.obj
 0001:0002b653       ??_G?$XMLEnumerator@VXercesGroupInfo@xercesc_3_1@@@xercesc_3_1@@UAEPAXI@Z 1202c653 f i XSModel.obj
 0001:0002b653       ??_E?$XMLEnumerator@VXercesGroupInfo@xercesc_3_1@@@xercesc_3_1@@UAEPAXI@Z 1202c653 f i  CIL library: CIL module
 0001:0002b674       ??0?$XSNamedMap@VXSObject@xercesc_3_1@@@xercesc_3_1@@QAE@KKPAVXMLStringPool@1@_NQAVMemoryManager@1@@Z 1202c674 f i XSModel.obj
 0001:0002b71b       ?addElement@?$XSNamedMap@VXSObject@xercesc_3_1@@@xercesc_3_1@@QAEXQAVXSObject@2@PB_W1@Z 1202c71b f i XSModel.obj
 0001:0002b749       ??1?$BaseRefVectorOf@VXSObject@xercesc_3_1@@@xercesc_3_1@@UAE@XZ 1202c749 f i XSModel.obj
 0001:0002b750       ?cleanup@?$BaseRefVectorOf@VSchemaAttDef@xercesc_3_1@@@xercesc_3_1@@UAEXXZ 1202c750 f i XMLGrammarPoolImpl.obj
 0001:0002b750       ?cleanup@?$BaseRefVectorOf@VXSAttributeUse@xercesc_3_1@@@xercesc_3_1@@UAEXXZ 1202c750 f i XSObjectFactory.obj
 0001:0002b750       ?cleanup@?$BaseRefVectorOf@VContentSpecNode@xercesc_3_1@@@xercesc_3_1@@UAEXXZ 1202c750 f i XTemplateSerializer.obj
 0001:0002b750       ?cleanup@?$BaseRefVectorOf@VOp@xercesc_3_1@@@xercesc_3_1@@UAEXXZ 1202c750 f i Op.obj
 0001:0002b750       ?cleanup@?$BaseRefVectorOf@VXSIDCDefinition@xercesc_3_1@@@xercesc_3_1@@UAEXXZ 1202c750 f i XSObjectFactory.obj
 0001:0002b750       ?cleanup@?$BaseRefVectorOf@VDOMNode@xercesc_3_1@@@xercesc_3_1@@UAEXXZ 1202c750 f i DOMDocumentImpl.obj
 0001:0002b750       ?cleanup@?$BaseRefVectorOf@VXSParticle@xercesc_3_1@@@xercesc_3_1@@UAEXXZ 1202c750 f i XSObjectFactory.obj
 0001:0002b750       ?cleanup@?$BaseRefVectorOf@VDOMDocumentImpl@xercesc_3_1@@@xercesc_3_1@@UAEXXZ 1202c750 f i AbstractDOMParser.obj
 0001:0002b750       ?cleanup@?$BaseRefVectorOf@VXSAnnotation@xercesc_3_1@@@xercesc_3_1@@UAEXXZ 1202c750 f i XSComplexTypeDefinition.obj
 0001:0002b750       ?cleanup@?$BaseRefVectorOf@VXercesStep@xercesc_3_1@@@xercesc_3_1@@UAEXXZ 1202c750 f i XTemplateSerializer.obj
 0001:0002b750       ?cleanup@?$BaseRefVectorOf@VDOMRangeImpl@xercesc_3_1@@@xercesc_3_1@@UAEXXZ 1202c750 f i DOMDocumentImpl.obj
 0001:0002b750       ?cleanup@?$BaseRefVectorOf@VXPathMatcher@xercesc_3_1@@@xercesc_3_1@@UAEXXZ 1202c750 f i XPathMatcherStack.obj
 0001:0002b750       ?cleanup@?$BaseRefVectorOf@VToken@xercesc_3_1@@@xercesc_3_1@@UAEXXZ 1202c750 f i TokenFactory.obj
 0001:0002b750       ?cleanup@?$BaseRefVectorOf@VIdentityConstraint@xercesc_3_1@@@xercesc_3_1@@UAEXXZ 1202c750 f i XMLElementDecl.obj
 0001:0002b750       ?cleanup@?$BaseRefVectorOf@VDatatypeValidator@xercesc_3_1@@@xercesc_3_1@@UAEXXZ 1202c750 f i XTemplateSerializer.obj
 0001:0002b750       ?cleanup@?$BaseRefVectorOf@VXSMultiValueFacet@xercesc_3_1@@@xercesc_3_1@@UAEXXZ 1202c750 f i XSObjectFactory.obj
 0001:0002b750       ?cleanup@?$BaseRefVectorOf@VKVStringPair@xercesc_3_1@@@xercesc_3_1@@UAEXXZ 1202c750 f i IGXMLScanner.obj
 0001:0002b750       ?cleanup@?$BaseRefVectorOf@VXercesLocationPath@xercesc_3_1@@@xercesc_3_1@@UAEXXZ 1202c750 f i XTemplateSerializer.obj
 0001:0002b750       ?cleanup@?$BaseRefVectorOf@VMatch@xercesc_3_1@@@xercesc_3_1@@UAEXXZ 1202c750 f i RegularExpression.obj
 0001:0002b750       ?cleanup@?$BaseRefVectorOf@VXSObject@xercesc_3_1@@@xercesc_3_1@@UAEXXZ 1202c750 f i XSModel.obj
 0001:0002b750       ?cleanup@?$BaseRefVectorOf@VXSSimpleTypeDefinition@xercesc_3_1@@@xercesc_3_1@@UAEXXZ 1202c750 f i XSObjectFactory.obj
 0001:0002b750       ?cleanup@?$BaseRefVectorOf@VDOMImplementationSource@xercesc_3_1@@@xercesc_3_1@@UAEXXZ 1202c750 f i DOMImplementationRegistry.obj
 0001:0002b750       ?cleanup@?$BaseRefVectorOf@VXMLElementDecl@xercesc_3_1@@@xercesc_3_1@@UAEXXZ 1202c750 f i WFXMLScanner.obj
 0001:0002b750       ?cleanup@?$BaseRefVectorOf@VXMLEntityDecl@xercesc_3_1@@@xercesc_3_1@@UAEXXZ 1202c750 f i ReaderMgr.obj
 0001:0002b750       ?cleanup@?$BaseRefVectorOf@VDOMNodeIteratorImpl@xercesc_3_1@@@xercesc_3_1@@UAEXXZ 1202c750 f i DOMDocumentImpl.obj
 0001:0002b750       ?cleanup@?$BaseRefVectorOf@VIC_Field@xercesc_3_1@@@xercesc_3_1@@UAEXXZ 1202c750 f i XMLElementDecl.obj
 0001:0002b750       ?cleanup@?$BaseRefVectorOf@VXSFacet@xercesc_3_1@@@xercesc_3_1@@UAEXXZ 1202c750 f i XSObjectFactory.obj
 0001:0002b750       ?cleanup@?$BaseRefVectorOf@VSchemaElementDecl@xercesc_3_1@@@xercesc_3_1@@UAEXXZ 1202c750 f i XMLElementDecl.obj
 0001:0002b750       ?cleanup@?$BaseRefVectorOf@VXMLNumber@xercesc_3_1@@@xercesc_3_1@@UAEXXZ 1202c750 f i XTemplateSerializer.obj
 0001:0002b750       ?cleanup@?$BaseRefVectorOf@VDOMImplementation@xercesc_3_1@@@xercesc_3_1@@UAEXXZ 1202c750 f i DOMImplementationListImpl.obj
 0001:0002b750       ?cleanup@?$BaseRefVectorOf@VENameMap@xercesc_3_1@@@xercesc_3_1@@UAEXXZ 1202c750 f i TransService.obj
 0001:0002b785       ??0?$RefVectorOf@VXSObject@xercesc_3_1@@@xercesc_3_1@@QAE@K_NQAVMemoryManager@1@@Z 1202c785 f i XSModel.obj
 0001:0002b7c5       ??1?$BaseRefVectorOf@VXSNamespaceItem@xercesc_3_1@@@xercesc_3_1@@UAE@XZ 1202c7c5 f i XSModel.obj
 0001:0002b7cc       ?setElementAt@?$BaseRefVectorOf@VXSNamespaceItem@xercesc_3_1@@@xercesc_3_1@@UAEXQAVXSNamespaceItem@2@K@Z 1202c7cc f i XSModel.obj
 0001:0002b827       ?removeAllElements@?$BaseRefVectorOf@VXSNamespaceItem@xercesc_3_1@@@xercesc_3_1@@UAEXXZ 1202c827 f i XSModel.obj
 0001:0002b85c       ?removeElementAt@?$BaseRefVectorOf@VXSNamespaceItem@xercesc_3_1@@@xercesc_3_1@@UAEXK@Z 1202c85c f i XSModel.obj
 0001:0002b8ea       ?removeLastElement@?$BaseRefVectorOf@VXSNamespaceItem@xercesc_3_1@@@xercesc_3_1@@UAEXXZ 1202c8ea f i XSModel.obj
 0001:0002b90c       ?cleanup@?$BaseRefVectorOf@VXSNamespaceItem@xercesc_3_1@@@xercesc_3_1@@UAEXXZ 1202c90c f i XSModel.obj
 0001:0002b941       ??0?$RefVectorOf@VXSNamespaceItem@xercesc_3_1@@@xercesc_3_1@@QAE@K_NQAVMemoryManager@1@@Z 1202c941 f i XSModel.obj
 0001:0002b980       ??0?$RefHashTableOf@VXSNamespaceItem@xercesc_3_1@@UStringHasher@2@@xercesc_3_1@@QAE@K_NQAVMemoryManager@1@@Z 1202c980 f i XSModel.obj
 0001:0002b9b8       ?put@?$RefHashTableOf@VXSNamespaceItem@xercesc_3_1@@UStringHasher@2@@xercesc_3_1@@QAEXPAXQAVXSNamespaceItem@2@@Z 1202c9b8 f i XSModel.obj
 0001:0002ba37       ?put@?$RefHashTableOf@VXSObject@xercesc_3_1@@UStringHasher@2@@xercesc_3_1@@QAEXPAXQAVXSObject@2@@Z 1202ca37 f i XSModel.obj
 0001:0002bab6       ??0?$RefHashTableOfEnumerator@VDatatypeValidator@xercesc_3_1@@UStringHasher@2@@xercesc_3_1@@QAE@QAV?$RefHashTableOf@VDatatypeValidator@xercesc_3_1@@UStringHasher@2@@1@_NQAVMemoryManager@1@@Z 1202cab6 f i XSModel.obj
 0001:0002bb1c       ??1?$RefHashTableOfEnumerator@VDatatypeValidator@xercesc_3_1@@UStringHasher@2@@xercesc_3_1@@UAE@XZ 1202cb1c f i XSModel.obj
 0001:0002bb55       ??0?$RefHashTableOfEnumerator@VXMLAttDef@xercesc_3_1@@UStringHasher@2@@xercesc_3_1@@QAE@QAV?$RefHashTableOf@VXMLAttDef@xercesc_3_1@@UStringHasher@2@@1@_NQAVMemoryManager@1@@Z 1202cb55 f i XSModel.obj
 0001:0002bbbb       ??1?$RefHashTableOfEnumerator@VXMLAttDef@xercesc_3_1@@UStringHasher@2@@xercesc_3_1@@UAE@XZ 1202cbbb f i XSModel.obj
 0001:0002bbf4       ??0?$RefHashTableOfEnumerator@VComplexTypeInfo@xercesc_3_1@@UStringHasher@2@@xercesc_3_1@@QAE@QAV?$RefHashTableOf@VComplexTypeInfo@xercesc_3_1@@UStringHasher@2@@1@_NQAVMemoryManager@1@@Z 1202cbf4 f i XSModel.obj
 0001:0002bc5a       ??1?$RefHashTableOfEnumerator@VComplexTypeInfo@xercesc_3_1@@UStringHasher@2@@xercesc_3_1@@UAE@XZ 1202cc5a f i XSModel.obj
 0001:0002bc93       ?hasMoreElements@?$RefHashTableOfEnumerator@VDatatypeValidator@xercesc_3_1@@UStringHasher@2@@xercesc_3_1@@UBE_NXZ 1202cc93 f i XSModel.obj
 0001:0002bc93       ?hasMoreElements@?$RefHashTableOfEnumerator@VFieldValueMap@xercesc_3_1@@UICValueHasher@2@@xercesc_3_1@@UBE_NXZ 1202cc93 f i ValueStore.obj
 0001:0002bc93       ?hasMoreElements@?$RefHash2KeysTableOfEnumerator@V?$ValueVectorOf@PAVSchemaElementDecl@xercesc_3_1@@@xercesc_3_1@@UStringHasher@2@@xercesc_3_1@@UBE_NXZ 1202cc93 f i XTemplateSerializer.obj
 0001:0002bc93       ?hasMoreElements@?$RefHashTableOfEnumerator@VXMLRefInfo@xercesc_3_1@@UStringHasher@2@@xercesc_3_1@@UBE_NXZ 1202cc93 f i XMLScanner.obj
 0001:0002bc93       ?hasMoreElements@?$RefHash2KeysTableOfEnumerator@V?$KeyRefPair@XVDOMUserDataHandler@xercesc_3_1@@@xercesc_3_1@@UPtrHasher@2@@xercesc_3_1@@UBE_NXZ 1202cc93 f i DOMDocumentImpl.obj
 0001:0002bc93       ?hasMoreElements@?$RefHashTableOfEnumerator@_WUStringHasher@xercesc_3_1@@@xercesc_3_1@@UBE_NXZ 1202cc93 f i DOMNormalizer.obj
 0001:0002bc93       ?hasMoreElements@?$RefHashTableOfEnumerator@VComplexTypeInfo@xercesc_3_1@@UStringHasher@2@@xercesc_3_1@@UBE_NXZ 1202cc93 f i XSModel.obj
 0001:0002bc93       ?hasMoreElements@?$RefHash2KeysTableOfEnumerator@VSchemaAttDef@xercesc_3_1@@UStringHasher@2@@xercesc_3_1@@UBE_NXZ 1202cc93 f i XMLElementDecl.obj
 0001:0002bc93       ?hasMoreElements@?$RefHash2KeysTableOfEnumerator@VSchemaInfo@xercesc_3_1@@UStringHasher@2@@xercesc_3_1@@UBE_NXZ 1202cc93 f i IGXMLScanner2.obj
 0001:0002bc93       ?hasMoreElements@?$RefHashTableOfEnumerator@VValueStore@xercesc_3_1@@UPtrHasher@2@@xercesc_3_1@@UBE_NXZ 1202cc93 f i ValueStoreCache.obj
 0001:0002bc93       ?hasMoreElements@?$RefHashTableOfEnumerator@VXMLAttDef@xercesc_3_1@@UStringHasher@2@@xercesc_3_1@@UBE_NXZ 1202cc93 f i XSModel.obj
 0001:0002bc93       ?hasMoreElements@?$RefHashTableOfEnumerator@VKVStringPair@xercesc_3_1@@UStringHasher@2@@xercesc_3_1@@UBE_NXZ 1202cc93 f i XSObjectFactory.obj
 0001:0002bc93       ?hasMoreElements@?$RefHashTableOfEnumerator@VXSAnnotation@xercesc_3_1@@UPtrHasher@2@@xercesc_3_1@@UBE_NXZ 1202cc93 f i XTemplateSerializer.obj
 0001:0002bc93       ?hasMoreElements@?$RefHashTableOfEnumerator@VGrammar@xercesc_3_1@@UStringHasher@2@@xercesc_3_1@@UBE_NXZ 1202cc93 f i XMLGrammarPoolImpl.obj
 0001:0002bc93       ?hasMoreElements@?$RefHashTableOfEnumerator@VXercesGroupInfo@xercesc_3_1@@UStringHasher@2@@xercesc_3_1@@UBE_NXZ 1202cc93 f i XSModel.obj
 0001:0002bc93       ?hasMoreElements@?$RefHashTableOfEnumerator@VXercesAttGroupInfo@xercesc_3_1@@UStringHasher@2@@xercesc_3_1@@UBE_NXZ 1202cc93 f i XSModel.obj
 0001:0002bc93       ?hasMoreElements@?$RefHashTableOfEnumerator@VDTDAttDef@xercesc_3_1@@UStringHasher@2@@xercesc_3_1@@UBE_NXZ 1202cc93 f i XTemplateSerializer.obj
 0001:0002bcaa       ??0?$RefHashTableOfEnumerator@VXercesAttGroupInfo@xercesc_3_1@@UStringHasher@2@@xercesc_3_1@@QAE@QAV?$RefHashTableOf@VXercesAttGroupInfo@xercesc_3_1@@UStringHasher@2@@1@_NQAVMemoryManager@1@@Z 1202ccaa f i XSModel.obj
 0001:0002bd10       ??1?$RefHashTableOfEnumerator@VXercesAttGroupInfo@xercesc_3_1@@UStringHasher@2@@xercesc_3_1@@UAE@XZ 1202cd10 f i XSModel.obj
 0001:0002bd49       ??0?$RefHashTableOfEnumerator@VXercesGroupInfo@xercesc_3_1@@UStringHasher@2@@xercesc_3_1@@QAE@QAV?$RefHashTableOf@VXercesGroupInfo@xercesc_3_1@@UStringHasher@2@@1@_NQAVMemoryManager@1@@Z 1202cd49 f i XSModel.obj
 0001:0002bdaf       ??1?$RefHashTableOfEnumerator@VXercesGroupInfo@xercesc_3_1@@UStringHasher@2@@xercesc_3_1@@UAE@XZ 1202cdaf f i XSModel.obj
 0001:0002bde8       ??_E?$BaseRefVectorOf@VXSObject@xercesc_3_1@@@xercesc_3_1@@UAEPAXI@Z 1202cde8 f i  CIL library: CIL module
 0001:0002bde8       ??_G?$BaseRefVectorOf@VXSObject@xercesc_3_1@@@xercesc_3_1@@UAEPAXI@Z 1202cde8 f i XSModel.obj
 0001:0002be08       ??_E?$RefVectorOf@VXSObject@xercesc_3_1@@@xercesc_3_1@@UAEPAXI@Z 1202ce08 f i  CIL library: CIL module
 0001:0002be08       ??_G?$RefVectorOf@VXSObject@xercesc_3_1@@@xercesc_3_1@@UAEPAXI@Z 1202ce08 f i XSModel.obj
 0001:0002be72       ??_E?$BaseRefVectorOf@VXSNamespaceItem@xercesc_3_1@@@xercesc_3_1@@UAEPAXI@Z 1202ce72 f i  CIL library: CIL module
 0001:0002be72       ??_G?$BaseRefVectorOf@VXSNamespaceItem@xercesc_3_1@@@xercesc_3_1@@UAEPAXI@Z 1202ce72 f i XSModel.obj
 0001:0002be92       ??_GXSNamespaceItem@xercesc_3_1@@QAEPAXI@Z 1202ce92 f i XSModel.obj
 0001:0002bead       ??_E?$RefVectorOf@VXSNamespaceItem@xercesc_3_1@@@xercesc_3_1@@UAEPAXI@Z 1202cead f i  CIL library: CIL module
 0001:0002bead       ??_G?$RefVectorOf@VXSNamespaceItem@xercesc_3_1@@@xercesc_3_1@@UAEPAXI@Z 1202cead f i XSModel.obj
 0001:0002bf17       ??_G?$RefHashTableOfEnumerator@VDatatypeValidator@xercesc_3_1@@UStringHasher@2@@xercesc_3_1@@UAEPAXI@Z 1202cf17 f i XSModel.obj
 0001:0002bf17       ??_E?$RefHashTableOfEnumerator@VDatatypeValidator@xercesc_3_1@@UStringHasher@2@@xercesc_3_1@@UAEPAXI@Z 1202cf17 f i  CIL library: CIL module
 0001:0002bf36       ??_G?$RefHashTableOfEnumerator@VXMLAttDef@xercesc_3_1@@UStringHasher@2@@xercesc_3_1@@UAEPAXI@Z 1202cf36 f i XSModel.obj
 0001:0002bf36       ??_E?$RefHashTableOfEnumerator@VXMLAttDef@xercesc_3_1@@UStringHasher@2@@xercesc_3_1@@UAEPAXI@Z 1202cf36 f i  CIL library: CIL module
 0001:0002bf55       ??_E?$RefHashTableOfEnumerator@VComplexTypeInfo@xercesc_3_1@@UStringHasher@2@@xercesc_3_1@@UAEPAXI@Z 1202cf55 f i  CIL library: CIL module
 0001:0002bf55       ??_G?$RefHashTableOfEnumerator@VComplexTypeInfo@xercesc_3_1@@UStringHasher@2@@xercesc_3_1@@UAEPAXI@Z 1202cf55 f i XSModel.obj
 0001:0002bf74       ??_E?$RefHashTableOfEnumerator@VXercesAttGroupInfo@xercesc_3_1@@UStringHasher@2@@xercesc_3_1@@UAEPAXI@Z 1202cf74 f i  CIL library: CIL module
 0001:0002bf74       ??_G?$RefHashTableOfEnumerator@VXercesAttGroupInfo@xercesc_3_1@@UStringHasher@2@@xercesc_3_1@@UAEPAXI@Z 1202cf74 f i XSModel.obj
 0001:0002bf93       ??_E?$RefHashTableOfEnumerator@VXercesGroupInfo@xercesc_3_1@@UStringHasher@2@@xercesc_3_1@@UAEPAXI@Z 1202cf93 f i  CIL library: CIL module
 0001:0002bf93       ??_G?$RefHashTableOfEnumerator@VXercesGroupInfo@xercesc_3_1@@UStringHasher@2@@xercesc_3_1@@UAEPAXI@Z 1202cf93 f i XSModel.obj
 0001:0002bfb2       ?put@?$RefHash2KeysTableOf@VXSObject@xercesc_3_1@@UStringHasher@2@@xercesc_3_1@@QAEXPAXHQAVXSObject@2@@Z 1202cfb2 f i XSModel.obj
 0001:0002bfb2       ?put@?$RefHash2KeysTableOf@VXSIDCDefinition@xercesc_3_1@@UStringHasher@2@@xercesc_3_1@@QAEXPAXHQAVXSIDCDefinition@2@@Z 1202cfb2 f i XSObjectFactory.obj
 0001:0002c063       ?findBucketElem@?$RefHashTableOf@V?$ValueVectorOf@PAVSchemaElementDecl@xercesc_3_1@@@xercesc_3_1@@UStringHasher@2@@xercesc_3_1@@AAEPAU?$RefHashTableBucketElem@V?$ValueVectorOf@PAVSchemaElementDecl@xercesc_3_1@@@xercesc_3_1@@@2@QBXAAK@Z 1202d063 f i TraverseSchema.obj
 0001:0002c063       ?findBucketElem@?$RefHashTableOf@VXSNamespaceItem@xercesc_3_1@@UStringHasher@2@@xercesc_3_1@@AAEPAU?$RefHashTableBucketElem@VXSNamespaceItem@xercesc_3_1@@@2@QBXAAK@Z 1202d063 f i XSModel.obj
 0001:0002c063       ?findBucketElem@?$RefHashTableOf@VRangeFactory@xercesc_3_1@@UStringHasher@2@@xercesc_3_1@@AAEPAU?$RefHashTableBucketElem@VRangeFactory@xercesc_3_1@@@2@QBXAAK@Z 1202d063 f i RangeTokenMap.obj
 0001:0002c063       ?findBucketElem@?$RefHashTableOf@VKVStringPair@xercesc_3_1@@UStringHasher@2@@xercesc_3_1@@AAEPAU?$RefHashTableBucketElem@VKVStringPair@xercesc_3_1@@@2@QBXAAK@Z 1202d063 f i XTemplateSerializer.obj
 0001:0002c063       ?findBucketElem@?$RefHashTableOf@VDTDEntityDecl@xercesc_3_1@@UStringHasher@2@@xercesc_3_1@@AAEPAU?$RefHashTableBucketElem@VDTDEntityDecl@xercesc_3_1@@@2@QBXAAK@Z 1202d063 f i XMLGrammarPoolImpl.obj
 0001:0002c063       ?findBucketElem@?$RefHashTableOf@UPoolElem@XMLStringPool@xercesc_3_1@@UStringHasher@3@@xercesc_3_1@@AAEPAU?$RefHashTableBucketElem@UPoolElem@XMLStringPool@xercesc_3_1@@@2@QBXAAK@Z 1202d063 f i StringPool.obj
 0001:0002c063       ?findBucketElem@?$RefHashTableOf@VXMLNotationDecl@xercesc_3_1@@UStringHasher@2@@xercesc_3_1@@AAEPAU?$RefHashTableBucketElem@VXMLNotationDecl@xercesc_3_1@@@2@QBXAAK@Z 1202d063 f i XMLGrammarPoolImpl.obj
 0001:0002c063       ?findBucketElem@?$RefHashTableOf@VXSObject@xercesc_3_1@@UStringHasher@2@@xercesc_3_1@@AAEPAU?$RefHashTableBucketElem@VXSObject@xercesc_3_1@@@2@QBXAAK@Z 1202d063 f i XSModel.obj
 0001:0002c063       ?findBucketElem@?$RefHashTableOf@VCPMapEntry@xercesc_3_1@@UStringHasher@2@@xercesc_3_1@@AAEPAU?$RefHashTableBucketElem@VCPMapEntry@xercesc_3_1@@@2@QBXAAK@Z 1202d063 f i Win32TransService.obj
 0001:0002c063       ?findBucketElem@?$RefHashTableOf@VENameMap@xercesc_3_1@@UStringHasher@2@@xercesc_3_1@@AAEPAU?$RefHashTableBucketElem@VENameMap@xercesc_3_1@@@2@QBXAAK@Z 1202d063 f i TransService.obj
 0001:0002c063       ?findBucketElem@?$RefHashTableOf@VRangeTokenElemMap@xercesc_3_1@@UStringHasher@2@@xercesc_3_1@@AAEPAU?$RefHashTableBucketElem@VRangeTokenElemMap@xercesc_3_1@@@2@QBXAAK@Z 1202d063 f i RangeTokenMap.obj
 0001:0002c063       ?findBucketElem@?$RefHashTableOf@VXMLRefInfo@xercesc_3_1@@UStringHasher@2@@xercesc_3_1@@AAEPAU?$RefHashTableBucketElem@VXMLRefInfo@xercesc_3_1@@@2@QBXAAK@Z 1202d063 f i ValidationContextImpl.obj
 0001:0002c063       ?findBucketElem@?$RefHashTableOf@VDOMElement@xercesc_3_1@@UStringHasher@2@@xercesc_3_1@@AAEPAU?$RefHashTableBucketElem@VDOMElement@xercesc_3_1@@@2@QBXAAK@Z 1202d063 f i SchemaInfo.obj
 0001:0002c063       ?findBucketElem@?$RefHashTableOf@VComplexTypeInfo@xercesc_3_1@@UStringHasher@2@@xercesc_3_1@@AAEPAU?$RefHashTableBucketElem@VComplexTypeInfo@xercesc_3_1@@@2@QBXAAK@Z 1202d063 f i XTemplateSerializer.obj
 0001:0002c063       ?findBucketElem@?$RefHashTableOf@VDTDEntityDecl@xercesc_3_1@@UStringHasher@2@@xercesc_3_1@@ABEPBU?$RefHashTableBucketElem@VDTDEntityDecl@xercesc_3_1@@@2@QBXAAK@Z 1202d063 f i XMLGrammarPoolImpl.obj
 0001:0002c063       ?findBucketElem@?$RefHashTableOf@VXercesGroupInfo@xercesc_3_1@@UStringHasher@2@@xercesc_3_1@@AAEPAU?$RefHashTableBucketElem@VXercesGroupInfo@xercesc_3_1@@@2@QBXAAK@Z 1202d063 f i XTemplateSerializer.obj
 0001:0002c063       ?findBucketElem@?$RefHashTableOf@VXMLElementDecl@xercesc_3_1@@UStringHasher@2@@xercesc_3_1@@AAEPAU?$RefHashTableBucketElem@VXMLElementDecl@xercesc_3_1@@@2@QBXAAK@Z 1202d063 f i WFXMLScanner.obj
 0001:0002c063       ?findBucketElem@?$RefHashTableOf@_WUStringHasher@xercesc_3_1@@@xercesc_3_1@@AAEPAU?$RefHashTableBucketElem@_W@2@QBXAAK@Z 1202d063 f i DOMLSSerializerImpl.obj
 0001:0002c063       ?findBucketElem@?$RefHashTableOf@VDTDElementDecl@xercesc_3_1@@UStringHasher@2@@xercesc_3_1@@AAEPAU?$RefHashTableBucketElem@VDTDElementDecl@xercesc_3_1@@@2@QBXAAK@Z 1202d063 f i XMLGrammarPoolImpl.obj
 0001:0002c063       ?findBucketElem@?$RefHashTableOf@VXercesAttGroupInfo@xercesc_3_1@@UStringHasher@2@@xercesc_3_1@@AAEPAU?$RefHashTableBucketElem@VXercesAttGroupInfo@xercesc_3_1@@@2@QBXAAK@Z 1202d063 f i XTemplateSerializer.obj
 0001:0002c063       ?findBucketElem@?$RefHashTableOf@VXMLAttDef@xercesc_3_1@@UStringHasher@2@@xercesc_3_1@@AAEPAU?$RefHashTableBucketElem@VXMLAttDef@xercesc_3_1@@@2@QBXAAK@Z 1202d063 f i IGXMLScanner2.obj
 0001:0002c063       ?findBucketElem@?$RefHashTableOf@VDatatypeValidator@xercesc_3_1@@UStringHasher@2@@xercesc_3_1@@AAEPAU?$RefHashTableBucketElem@VDatatypeValidator@xercesc_3_1@@@2@QBXAAK@Z 1202d063 f i XMLGrammarPoolImpl.obj
 0001:0002c063       ?findBucketElem@?$RefHashTableOf@VDTDAttDef@xercesc_3_1@@UStringHasher@2@@xercesc_3_1@@AAEPAU?$RefHashTableBucketElem@VDTDAttDef@xercesc_3_1@@@2@QBXAAK@Z 1202d063 f i XTemplateSerializer.obj
 0001:0002c063       ?findBucketElem@?$RefHashTableOf@VGrammar@xercesc_3_1@@UStringHasher@2@@xercesc_3_1@@AAEPAU?$RefHashTableBucketElem@VGrammar@xercesc_3_1@@@2@QBXAAK@Z 1202d063 f i XMLGrammarPoolImpl.obj
 0001:0002c0a6       ?rehash@?$RefHashTableOf@VXSObject@xercesc_3_1@@UStringHasher@2@@xercesc_3_1@@AAEXXZ 1202d0a6 f i XSModel.obj
 0001:0002c152       ??_EXSModelGroup@xercesc_3_1@@UAEPAXI@Z 1202d152 f i XSModelGroup.obj
 0001:0002c19d       ??0XSModelGroup@xercesc_3_1@@QAE@W4COMPOSITOR_TYPE@01@QAV?$RefVectorOf@VXSParticle@xercesc_3_1@@@1@QAVXSAnnotation@1@QAVXSModel@1@QAVMemoryManager@1@@Z 1202d19d f   XSModelGroup.obj
 0001:0002c1cf       ??1XSModelGroup@xercesc_3_1@@UAE@XZ 1202d1cf f   XSModelGroup.obj
 0001:0002c203       ??_EXSModelGroupDefinition@xercesc_3_1@@UAEPAXI@Z 1202d203 f i XSModelGroupDefinition.obj
 0001:0002c24e       ??0XSModelGroupDefinition@xercesc_3_1@@QAE@QAVXercesGroupInfo@1@QAVXSParticle@1@QAVXSAnnotation@1@QAVXSModel@1@QAVMemoryManager@1@@Z 1202d24e f   XSModelGroupDefinition.obj
 0001:0002c280       ??1XSModelGroupDefinition@xercesc_3_1@@UAE@XZ 1202d280 f   XSModelGroupDefinition.obj
 0001:0002c2b4       ?getNamespace@XSModelGroupDefinition@xercesc_3_1@@UAEPB_WXZ 1202d2b4 f   XSModelGroupDefinition.obj
 0001:0002c2c9       ?getModelGroup@XSModelGroupDefinition@xercesc_3_1@@QAEPAVXSModelGroup@2@XZ 1202d2c9 f   XSModelGroupDefinition.obj
 0001:0002c2d8       ??_EXSMultiValueFacet@xercesc_3_1@@UAEPAXI@Z 1202d2d8 f i XSMultiValueFacet.obj
 0001:0002c323       ??0XSMultiValueFacet@xercesc_3_1@@QAE@W4FACET@XSSimpleTypeDefinition@1@PAV?$RefArrayVectorOf@_W@1@_NQAVXSAnnotation@1@QAVXSModel@1@QAVMemoryManager@1@@Z 1202d323 f   XSMultiValueFacet.obj
 0001:0002c3b2       ??1XSMultiValueFacet@xercesc_3_1@@UAE@XZ 1202d3b2 f   XSMultiValueFacet.obj
 0001:0002c3e6       ??0XSNamespaceItem@xercesc_3_1@@QAE@QAVXSModel@1@QAVSchemaGrammar@1@QAVMemoryManager@1@@Z 1202d3e6 f   XSNamespaceItem.obj
 0001:0002c4f3       ??0XSNamespaceItem@xercesc_3_1@@QAE@QAVXSModel@1@QB_WQAVMemoryManager@1@@Z 1202d4f3 f   XSNamespaceItem.obj
 0001:0002c5fb       ??1XSNamespaceItem@xercesc_3_1@@QAE@XZ 1202d5fb f   XSNamespaceItem.obj
 0001:0002c671       ??_G?$RefHashTableOf@VDTDAttDef@xercesc_3_1@@UStringHasher@2@@xercesc_3_1@@QAEPAXI@Z 1202d671 f i XTemplateSerializer.obj
 0001:0002c671       ??_G?$RefHashTableOf@VDOMElement@xercesc_3_1@@UStringHasher@2@@xercesc_3_1@@QAEPAXI@Z 1202d671 f i IGXMLScanner.obj
 0001:0002c671       ??_G?$RefHashTableOf@VENameMap@xercesc_3_1@@UStringHasher@2@@xercesc_3_1@@QAEPAXI@Z 1202d671 f i TransService.obj
 0001:0002c671       ??_G?$RefHashTableOf@VComplexTypeInfo@xercesc_3_1@@UStringHasher@2@@xercesc_3_1@@QAEPAXI@Z 1202d671 f i XSModel.obj
 0001:0002c671       ??_G?$RefHashTableOf@VXercesAttGroupInfo@xercesc_3_1@@UStringHasher@2@@xercesc_3_1@@QAEPAXI@Z 1202d671 f i XSModel.obj
 0001:0002c671       ??_G?$RefHashTableOf@VKVStringPair@xercesc_3_1@@UStringHasher@2@@xercesc_3_1@@QAEPAXI@Z 1202d671 f i XSObjectFactory.obj
 0001:0002c671       ??_G?$RefHashTableOf@VXMLAttDef@xercesc_3_1@@UStringHasher@2@@xercesc_3_1@@QAEPAXI@Z 1202d671 f i XSModel.obj
 0001:0002c671       ??_G?$RefHashTableOf@VXSObject@xercesc_3_1@@UPtrHasher@2@@xercesc_3_1@@QAEPAXI@Z 1202d671 f i XSObjectFactory.obj
 0001:0002c671       ??_G?$RefHashTableOf@VXSObject@xercesc_3_1@@UStringHasher@2@@xercesc_3_1@@QAEPAXI@Z 1202d671 f i XSNamespaceItem.obj
 0001:0002c671       ??_G?$RefHashTableOf@VRangeFactory@xercesc_3_1@@UStringHasher@2@@xercesc_3_1@@QAEPAXI@Z 1202d671 f i RangeTokenMap.obj
 0001:0002c671       ??_G?$RefHashTableOf@VXercesGroupInfo@xercesc_3_1@@UStringHasher@2@@xercesc_3_1@@QAEPAXI@Z 1202d671 f i XSModel.obj
 0001:0002c6dd       ?getComponents@XSNamespaceItem@xercesc_3_1@@QAEPAV?$XSNamedMap@VXSObject@xercesc_3_1@@@2@W4COMPONENT_TYPE@XSConstants@2@@Z 1202d6dd f   XSNamespaceItem.obj
 0001:0002c6eb       ?getElementDeclaration@XSNamespaceItem@xercesc_3_1@@QAEPAVXSElementDeclaration@2@PB_W@Z 1202d6eb f   XSNamespaceItem.obj
 0001:0002c707       ?getAttributeDeclaration@XSNamespaceItem@xercesc_3_1@@QAEPAVXSAttributeDeclaration@2@PB_W@Z 1202d707 f   XSNamespaceItem.obj
 0001:0002c723       ?getTypeDefinition@XSNamespaceItem@xercesc_3_1@@QAEPAVXSTypeDefinition@2@PB_W@Z 1202d723 f   XSNamespaceItem.obj
 0001:0002c73f       ?getAttributeGroup@XSNamespaceItem@xercesc_3_1@@QAEPAVXSAttributeGroupDefinition@2@PB_W@Z 1202d73f f   XSNamespaceItem.obj
 0001:0002c75b       ?getModelGroupDefinition@XSNamespaceItem@xercesc_3_1@@QAEPAVXSModelGroupDefinition@2@PB_W@Z 1202d75b f   XSNamespaceItem.obj
 0001:0002c777       ?getNotationDeclaration@XSNamespaceItem@xercesc_3_1@@QAEPAVXSNotationDeclaration@2@PB_W@Z 1202d777 f   XSNamespaceItem.obj
 0001:0002c793       ?getDocumentLocations@XSNamespaceItem@xercesc_3_1@@QAEPBV?$RefArrayVectorOf@_W@2@XZ 1202d793 f   XSNamespaceItem.obj
 0001:0002c7ab       ??0?$RefHashTableOf@VXSObject@xercesc_3_1@@UStringHasher@2@@xercesc_3_1@@QAE@K_NQAVMemoryManager@1@@Z 1202d7ab f i XSNamespaceItem.obj
 0001:0002c7e3       ?get@?$RefHashTableOf@VXercesAttGroupInfo@xercesc_3_1@@UStringHasher@2@@xercesc_3_1@@QAEPAVXercesAttGroupInfo@2@QBX@Z 1202d7e3 f i XTemplateSerializer.obj
 0001:0002c7e3       ?get@?$RefHashTableOf@VRangeFactory@xercesc_3_1@@UStringHasher@2@@xercesc_3_1@@QAEPAVRangeFactory@2@QBX@Z 1202d7e3 f i RangeTokenMap.obj
 0001:0002c7e3       ?get@?$RefHashTableOf@VComplexTypeInfo@xercesc_3_1@@UStringHasher@2@@xercesc_3_1@@QAEPAVComplexTypeInfo@2@QBX@Z 1202d7e3 f i XTemplateSerializer.obj
 0001:0002c7e3       ?get@?$RefHashTableOf@_WUStringHasher@xercesc_3_1@@@xercesc_3_1@@QAEPA_WQBX@Z 1202d7e3 f i DOMLSSerializerImpl.obj
 0001:0002c7e3       ?get@?$RefHashTableOf@VKVStringPair@xercesc_3_1@@UStringHasher@2@@xercesc_3_1@@QAEPAVKVStringPair@2@QBX@Z 1202d7e3 f i XTemplateSerializer.obj
 0001:0002c7e3       ?get@?$RefHashTableOf@VDTDAttDef@xercesc_3_1@@UStringHasher@2@@xercesc_3_1@@QAEPAVDTDAttDef@2@QBX@Z 1202d7e3 f i XTemplateSerializer.obj
 0001:0002c7e3       ?get@?$RefHashTableOf@VXMLAttDef@xercesc_3_1@@UStringHasher@2@@xercesc_3_1@@QAEPAVXMLAttDef@2@QBX@Z 1202d7e3 f i IGXMLScanner2.obj
 0001:0002c7e3       ?get@?$RefHashTableOf@VGrammar@xercesc_3_1@@UStringHasher@2@@xercesc_3_1@@QAEPAVGrammar@2@QBX@Z 1202d7e3 f i XMLGrammarPoolImpl.obj
 0001:0002c7e3       ?get@?$RefHashTableOf@VXMLRefInfo@xercesc_3_1@@UStringHasher@2@@xercesc_3_1@@QAEPAVXMLRefInfo@2@QBX@Z 1202d7e3 f i ValidationContextImpl.obj
 0001:0002c7e3       ?get@?$RefHashTableOf@VXSObject@xercesc_3_1@@UStringHasher@2@@xercesc_3_1@@QAEPAVXSObject@2@QBX@Z 1202d7e3 f i XSNamespaceItem.obj
 0001:0002c7e3       ?get@?$RefHashTableOf@VDatatypeValidator@xercesc_3_1@@UStringHasher@2@@xercesc_3_1@@QAEPAVDatatypeValidator@2@QBX@Z 1202d7e3 f i XMLGrammarPoolImpl.obj
 0001:0002c7e3       ?get@?$RefHashTableOf@VXercesGroupInfo@xercesc_3_1@@UStringHasher@2@@xercesc_3_1@@QAEPAVXercesGroupInfo@2@QBX@Z 1202d7e3 f i XTemplateSerializer.obj
 0001:0002c803       ??_EXSNotationDeclaration@xercesc_3_1@@UAEPAXI@Z 1202d803 f i XSNotationDeclaration.obj
 0001:0002c84f       ??0XSNotationDeclaration@xercesc_3_1@@QAE@QAVXMLNotationDecl@1@QAVXSAnnotation@1@QAVXSModel@1@QAVMemoryManager@1@@Z 1202d84f f   XSNotationDeclaration.obj
 0001:0002c87b       ?getName@XSNotationDeclaration@xercesc_3_1@@UBEPB_WXZ 1202d87b f   XSNotationDeclaration.obj
 0001:0002c882       ?getName@XSAttributeGroupDefinition@xercesc_3_1@@UBEPB_WXZ 1202d882 f   XSAttributeGroupDefinition.obj
 0001:0002c882       ?getNamespace@XSNotationDeclaration@xercesc_3_1@@UAEPB_WXZ 1202d882 f   XSNotationDeclaration.obj
 0001:0002c897       ?getSystemId@XSNotationDeclaration@xercesc_3_1@@QAEPB_WXZ 1202d897 f   XSNotationDeclaration.obj
 0001:0002c89e       ?getPublicId@XSNotationDeclaration@xercesc_3_1@@QAEPB_WXZ 1202d89e f   XSNotationDeclaration.obj
 0001:0002c8a5       ??_EXSObject@xercesc_3_1@@UAEPAXI@Z 1202d8a5 f i XSObject.obj
 0001:0002c8f1       ??0XSObject@xercesc_3_1@@QAE@W4COMPONENT_TYPE@XSConstants@1@QAVXSModel@1@QAVMemoryManager@1@@Z 1202d8f1 f   XSObject.obj
 0001:0002c934       ??_EXSParticle@xercesc_3_1@@UAEPAXI@Z 1202d934 f i XSParticle.obj
 0001:0002c97f       ??0XSParticle@xercesc_3_1@@QAE@W4TERM_TYPE@01@QAVXSModel@1@QAVXSObject@1@KK_NQAVMemoryManager@1@@Z 1202d97f f   XSParticle.obj
 0001:0002c9bd       ??1XSParticle@xercesc_3_1@@UAE@XZ 1202d9bd f   XSParticle.obj
 0001:0002c9f7       ?getElementTerm@XSParticle@xercesc_3_1@@QAEPAVXSElementDeclaration@2@XZ 1202d9f7 f   XSParticle.obj
 0001:0002ca04       ?getModelGroupTerm@XSParticle@xercesc_3_1@@QAEPAVXSModelGroup@2@XZ 1202da04 f   XSParticle.obj
 0001:0002ca11       ?getWildcardTerm@XSParticle@xercesc_3_1@@QAEPAVXSWildcard@2@XZ 1202da11 f   XSParticle.obj
 0001:0002ca1e       ??_EXSSimpleTypeDefinition@xercesc_3_1@@UAEPAXI@Z 1202da1e f i XSSimpleTypeDefinition.obj
 0001:0002ca69       ??0XSSimpleTypeDefinition@xercesc_3_1@@QAE@QAVDatatypeValidator@1@W4VARIETY@01@QAVXSTypeDefinition@1@QAV01@QAV?$RefVectorOf@VXSSimpleTypeDefinition@xercesc_3_1@@@1@PAVXSAnnotation@1@QAVXSModel@1@QAVMemoryManager@1@@Z 1202da69 f   XSSimpleTypeDefinition.obj
 0001:0002cb47       ??1XSSimpleTypeDefinition@xercesc_3_1@@UAE@XZ 1202db47 f   XSSimpleTypeDefinition.obj
 0001:0002cbaf       ?isDefinedFacet@XSSimpleTypeDefinition@xercesc_3_1@@QAE_NW4FACET@12@@Z 1202dbaf f   XSSimpleTypeDefinition.obj
 0001:0002cbbf       ?isFixedFacet@XSSimpleTypeDefinition@xercesc_3_1@@QAE_NW4FACET@12@@Z 1202dbbf f   XSSimpleTypeDefinition.obj
 0001:0002cbcf       ?getLexicalFacetValue@XSSimpleTypeDefinition@xercesc_3_1@@QAEPB_WW4FACET@12@@Z 1202dbcf f   XSSimpleTypeDefinition.obj
 0001:0002cc2e       ?getLexicalEnumeration@XSSimpleTypeDefinition@xercesc_3_1@@QAEPAV?$RefArrayVectorOf@_W@2@XZ 1202dc2e f   XSSimpleTypeDefinition.obj
 0001:0002cc36       ?getOrdered@XSSimpleTypeDefinition@xercesc_3_1@@QBE?AW4ORDERING@12@XZ 1202dc36 f   XSSimpleTypeDefinition.obj
 0001:0002cc3d       ?getFinite@XSSimpleTypeDefinition@xercesc_3_1@@QBE_NXZ 1202dc3d f   XSSimpleTypeDefinition.obj
 0001:0002cc44       ?getBounded@XSSimpleTypeDefinition@xercesc_3_1@@QBE_NXZ 1202dc44 f   XSSimpleTypeDefinition.obj
 0001:0002cc4b       ?getNumeric@XSSimpleTypeDefinition@xercesc_3_1@@QBE_NXZ 1202dc4b f   XSSimpleTypeDefinition.obj
 0001:0002cc52       ?getName@XSSimpleTypeDefinition@xercesc_3_1@@UBEPB_WXZ 1202dc52 f   XSSimpleTypeDefinition.obj
 0001:0002cc59       ?getNamespace@XSSimpleTypeDefinition@xercesc_3_1@@UAEPB_WXZ 1202dc59 f   XSSimpleTypeDefinition.obj
 0001:0002cc60       ?getAnonymous@XSSimpleTypeDefinition@xercesc_3_1@@UBE_NXZ 1202dc60 f   XSSimpleTypeDefinition.obj
 0001:0002cc67       ?derivedFromType@XSSimpleTypeDefinition@xercesc_3_1@@UAE_NQBVXSTypeDefinition@2@@Z 1202dc67 f   XSSimpleTypeDefinition.obj
 0001:0002ccb3       ?setFacetInfo@XSSimpleTypeDefinition@xercesc_3_1@@AAEXHHQAV?$RefVectorOf@VXSFacet@xercesc_3_1@@@2@QAV?$RefVectorOf@VXSMultiValueFacet@xercesc_3_1@@@2@QAV?$RefArrayVectorOf@_W@2@@Z 1202dcb3 f   XSSimpleTypeDefinition.obj
 0001:0002ccd8       ??_EXSTypeDefinition@xercesc_3_1@@UAEPAXI@Z 1202dcd8 f i XSTypeDefinition.obj
 0001:0002cd24       ??0XSTypeDefinition@xercesc_3_1@@QAE@W4TYPE_CATEGORY@01@QAV01@QAVXSModel@1@QAVMemoryManager@1@@Z 1202dd24 f   XSTypeDefinition.obj
 0001:0002cd56       ??1XSAttributeUse@xercesc_3_1@@UAE@XZ 1202dd56 f   XSAttributeUse.obj
 0001:0002cd56       ??1XSAttributeDeclaration@xercesc_3_1@@UAE@XZ 1202dd56 f   XSAttributeDeclaration.obj
 0001:0002cd56       ??1XSNotationDeclaration@xercesc_3_1@@UAE@XZ 1202dd56 f   XSNotationDeclaration.obj
 0001:0002cd56       ??1XSTypeDefinition@xercesc_3_1@@UAE@XZ 1202dd56 f   XSTypeDefinition.obj
 0001:0002cd56       ??1XSObject@xercesc_3_1@@UAE@XZ 1202dd56 f   XSObject.obj
 0001:0002cd56       ??1XSFacet@xercesc_3_1@@UAE@XZ 1202dd56 f   XSFacet.obj
 0001:0002cd5d       ?isFinal@XSTypeDefinition@xercesc_3_1@@QAE_NF@Z 1202dd5d f   XSTypeDefinition.obj
 0001:0002cd6f       ?derivedFrom@XSTypeDefinition@xercesc_3_1@@QAE_NPB_W0@Z 1202dd6f f   XSTypeDefinition.obj
 0001:0002cd9e       ?initializeXSValue@XMLInitializer@xercesc_3_1@@CAXXZ 1202dd9e f   XSValue.obj
 0001:0002cde9       ?terminateXSValue@XMLInitializer@xercesc_3_1@@CAXXZ 1202dde9 f   XSValue.obj
 0001:0002ce19       ??_G?$ValueHashTableOf@GUStringHasher@xercesc_3_1@@@xercesc_3_1@@QAEPAXI@Z 1202de19 f i GeneralAttributeCheck.obj
 0001:0002ce19       ??_G?$ValueHashTableOf@_NUStringHasher@xercesc_3_1@@@xercesc_3_1@@QAEPAXI@Z 1202de19 f i EncodingValidator.obj
 0001:0002ce19       ??_G?$ValueHashTableOf@W4DataType@XSValue@xercesc_3_1@@UStringHasher@3@@xercesc_3_1@@QAEPAXI@Z 1202de19 f i XSValue.obj
 0001:0002ce19       ??_G?$ValueHashTableOf@_WUStringHasher@xercesc_3_1@@@xercesc_3_1@@QAEPAXI@Z 1202de19 f i SGXMLScanner.obj
 0001:0002ce6a       ?getDataType@XSValue@xercesc_3_1@@SA?AW4DataType@12@QB_W@Z 1202de6a f   XSValue.obj
 0001:0002ceb7       ?initializeRegistry@XSValue@xercesc_3_1@@CAXXZ 1202deb7 f   XSValue.obj
 0001:0002d308       ??0XSValue@xercesc_3_1@@AAE@W4DataType@01@QAVMemoryManager@1@@Z 1202e308 f   XSValue.obj
 0001:0002d320       ??1XSValue@xercesc_3_1@@QAE@XZ 1202e320 f   XSValue.obj
 0001:0002d334       ?validate@XSValue@xercesc_3_1@@SA_NQB_WW4DataType@12@AAW4Status@12@W4XMLVersion@12@QAVMemoryManager@2@@Z 1202e334 f   XSValue.obj
 0001:0002d40b       ?getCanonicalRepresentation@XSValue@xercesc_3_1@@SAPA_WQB_WW4DataType@12@AAW4Status@12@W4XMLVersion@12@_NQAVMemoryManager@2@@Z 1202e40b f   XSValue.obj
 0001:0002d4c8       ?getActualValue@XSValue@xercesc_3_1@@SAPAV12@QB_WW4DataType@12@AAW4Status@12@W4XMLVersion@12@_NQAVMemoryManager@2@@Z 1202e4c8 f   XSValue.obj
 0001:0002d585       ?validateNumerics@XSValue@xercesc_3_1@@CA_NQB_WW4DataType@12@AAW4Status@12@QAVMemoryManager@2@@Z 1202e585 f   XSValue.obj
 0001:0002d7d2       ?validateDateTimes@XSValue@xercesc_3_1@@CA_NQB_WW4DataType@12@AAW4Status@12@QAVMemoryManager@2@@Z 1202e7d2 f   XSValue.obj
 0001:0002d91a       ?validateStrings@XSValue@xercesc_3_1@@CA_NQB_WW4DataType@12@AAW4Status@12@W4XMLVersion@12@QAVMemoryManager@2@@Z 1202e91a f   XSValue.obj
 0001:0002df2a       ?getCanRepNumerics@XSValue@xercesc_3_1@@CAPA_WQB_WW4DataType@12@AAW4Status@12@_NQAVMemoryManager@2@@Z 1202ef2a f   XSValue.obj
 0001:0002e035       ?getCanRepDateTimes@XSValue@xercesc_3_1@@CAPA_WQB_WW4DataType@12@AAW4Status@12@_NQAVMemoryManager@2@@Z 1202f035 f   XSValue.obj
 0001:0002e171       ?getCanRepStrings@XSValue@xercesc_3_1@@CAPA_WQB_WW4DataType@12@AAW4Status@12@W4XMLVersion@12@_NQAVMemoryManager@2@@Z 1202f171 f   XSValue.obj
 0001:0002e314       ?getActValNumerics@XSValue@xercesc_3_1@@CAPAV12@QB_WW4DataType@12@AAW4Status@12@_NQAVMemoryManager@2@@Z 1202f314 f   XSValue.obj
 0001:0002e594       ?getActValDateTimes@XSValue@xercesc_3_1@@CAPAV12@QB_WW4DataType@12@AAW4Status@12@QAVMemoryManager@2@@Z 1202f594 f   XSValue.obj
 0001:0002e750       ?getActValStrings@XSValue@xercesc_3_1@@CAPAV12@QB_WW4DataType@12@AAW4Status@12@W4XMLVersion@12@_NQAVMemoryManager@2@@Z 1202f750 f   XSValue.obj
 0001:0002e97e       ?getActualNumericValue@XSValue@xercesc_3_1@@CA_NQB_WAAW4Status@12@AATt_value@12@QAVMemoryManager@2@W4DataType@12@@Z 1202f97e f   XSValue.obj
 0001:0002eae1       ?get@?$ValueHashTableOf@W4DataType@XSValue@xercesc_3_1@@UStringHasher@3@@xercesc_3_1@@QAEAAW4DataType@XSValue@2@QBXQAVMemoryManager@2@@Z 1202fae1 f i XSValue.obj
 0001:0002eb29       ?put@?$ValueHashTableOf@W4DataType@XSValue@xercesc_3_1@@UStringHasher@3@@xercesc_3_1@@QAEXPAXABW4DataType@XSValue@2@@Z 1202fb29 f i XSValue.obj
 0001:0002eb98       ??_EXSWildcard@xercesc_3_1@@UAEPAXI@Z 1202fb98 f i XSWildcard.obj
 0001:0002ebe3       ??0XSWildcard@xercesc_3_1@@QAE@QAVSchemaAttDef@1@QAVXSAnnotation@1@QAVXSModel@1@QAVMemoryManager@1@@Z 1202fbe3 f   XSWildcard.obj
 0001:0002ed6f       ??0XSWildcard@xercesc_3_1@@QAE@QBVContentSpecNode@1@QAVXSAnnotation@1@QAVXSModel@1@QAVMemoryManager@1@@Z 1202fd6f f   XSWildcard.obj
 0001:0002eef1       ??1XSWildcard@xercesc_3_1@@UAE@XZ 1202fef1 f   XSWildcard.obj
 0001:0002ef25       ?buildNamespaceList@XSWildcard@xercesc_3_1@@AAEXQBVContentSpecNode@2@@Z 1202ff25 f   XSWildcard.obj
 0001:0002ef70       ??_EBinFileOutputStream@xercesc_3_1@@UAEPAXI@Z 1202ff70 f i BinFileOutputStream.obj
 0001:0002efbb       ?getIsOpen@BinFileOutputStream@xercesc_3_1@@QBE_NXZ 1202ffbb f i BinFileOutputStream.obj
 0001:0002efbb       ?getIsOpen@BinFileInputStream@xercesc_3_1@@QBE_NXZ 1202ffbb f i BinFileInputStream.obj
 0001:0002efc4       ??0BinFileOutputStream@xercesc_3_1@@QAE@QB_WQAVMemoryManager@1@@Z 1202ffc4 f   BinFileOutputStream.obj
 0001:0002effd       ??0BinFileOutputStream@xercesc_3_1@@QAE@QBDQAVMemoryManager@1@@Z 1202fffd f   BinFileOutputStream.obj
 0001:0002f036       ??1BinFileOutputStream@xercesc_3_1@@UAE@XZ 12030036 f   BinFileOutputStream.obj
 0001:0002f07e       ?getSize@BinFileInputStream@xercesc_3_1@@QBE_KXZ 1203007e f   BinFileInputStream.obj
 0001:0002f07e       ?getSize@BinFileOutputStream@xercesc_3_1@@QBE_KXZ 1203007e f   BinFileOutputStream.obj
 0001:0002f08c       ?writeBytes@BinFileOutputStream@xercesc_3_1@@UAEXQBEK@Z 1203008c f   BinFileOutputStream.obj
 0001:0002f0a7       ??_FBinMemOutputStream@xercesc_3_1@@QAEXXZ 120300a7 f i BinMemOutputStream.obj
 0001:0002f0b8       ??_EBinMemOutputStream@xercesc_3_1@@UAEPAXI@Z 120300b8 f i BinMemOutputStream.obj
 0001:0002f103       ??0BinMemOutputStream@xercesc_3_1@@QAE@KQAVMemoryManager@1@@Z 12030103 f   BinMemOutputStream.obj
 0001:0002f14b       ??1BinMemOutputStream@xercesc_3_1@@UAE@XZ 1203014b f   BinMemOutputStream.obj
 0001:0002f17d       ?writeBytes@BinMemOutputStream@xercesc_3_1@@UAEXQBEK@Z 1203017d f   BinMemOutputStream.obj
 0001:0002f1ae       ?getRawBuffer@BinMemOutputStream@xercesc_3_1@@QBEPBEXZ 120301ae f   BinMemOutputStream.obj
 0001:0002f1ae       ?getRawBuffer@MemBufFormatTarget@xercesc_3_1@@QBEPBEXZ 120301ae f   MemBufFormatTarget.obj
 0001:0002f1dd       ?reset@BinMemOutputStream@xercesc_3_1@@QAEXXZ 120301dd f   BinMemOutputStream.obj
 0001:0002f1f8       ?curPos@BinMemOutputStream@xercesc_3_1@@UBE_KXZ 120301f8 f   BinMemOutputStream.obj
 0001:0002f1fe       ?curPos@BinMemInputStream@xercesc_3_1@@UBE_KXZ 120301fe f   BinMemInputStream.obj
 0001:0002f1fe       ?getSize@BinMemOutputStream@xercesc_3_1@@QBE_KXZ 120301fe f   BinMemOutputStream.obj
 0001:0002f204       ?ensureCapacity@BinMemOutputStream@xercesc_3_1@@AAEXK@Z 12030204 f   BinMemOutputStream.obj
 0001:0002f261       ??_EBinOutputStream@xercesc_3_1@@UAEPAXI@Z 12030261 f i BinOutputStream.obj
 0001:0002f2ad       ??1BinOutputStream@xercesc_3_1@@UAE@XZ 120302ad f   BinOutputStream.obj
 0001:0002f2b4       ??0BinOutputStream@xercesc_3_1@@IAE@XZ 120302b4 f   BinOutputStream.obj
 0001:0002f2bd       ??1XMLBufBid@xercesc_3_1@@QAE@XZ 120302bd f i DGXMLScanner.obj
 0001:0002f2ca       ??_EDGXMLScanner@xercesc_3_1@@UAEPAXI@Z 120302ca f i DGXMLScanner.obj
 0001:0002f318       ?getName@DGXMLScanner@xercesc_3_1@@UBEPB_WXZ 12030318 f i DGXMLScanner.obj
 0001:0002f31e       ??0EndOfEntityException@xercesc_3_1@@QAE@ABV01@@Z 1203031e f i DGXMLScanner.obj
 0001:0002f31e       ??4DOMNodeImpl@xercesc_3_1@@QAEAAV01@ABV01@@Z 1203031e f i AbstractDOMParser.obj
 0001:0002f31e       ??4XProtoType@xercesc_3_1@@QAEAAV01@ABV01@@Z 1203031e f i KVStringPair.obj
 0001:0002f31e       ??0XMLPScanToken@xercesc_3_1@@QAE@ABV01@@Z 1203031e f i XSAnnotation.obj
 0001:0002f334       ?isReadingExternalEntity@DTDScanner@xercesc_3_1@@AAE_NXZ 12030334 f i DGXMLScanner.obj
 0001:0002f349       ??_FDTDValidator@xercesc_3_1@@QAEXXZ 12030349 f i DGXMLScanner.obj
 0001:0002f361       ?getCategoryId@RangeTokenElemMap@xercesc_3_1@@QBEIXZ 12030361 f i ASCIIRangeFactory.obj
 0001:0002f361       ?getEntity@EndOfEntityException@xercesc_3_1@@QAEAAVXMLEntityDecl@2@XZ 12030361 f i DGXMLScanner.obj
 0001:0002f361       ?str@TranscodeToStr@xercesc_3_1@@QBEPBEXZ 12030361 f i PlatformUtils.obj
 0001:0002f361       ?str@TranscodeFromStr@xercesc_3_1@@QBEPB_WXZ 12030361 f i PlatformUtils.obj
 0001:0002f361       ?getLocation@XIncludeLocation@xercesc_3_1@@QAEPB_WXZ 12030361 f i AbstractDOMParser.obj
 0001:0002f361       ?getGroup@XMLCanRepGroup@xercesc_3_1@@QBE?AW4CanRepGroup@12@XZ 12030361 f i XMLGrammarPoolImpl.obj
 0001:0002f361       ?intValue@XMLInteger@xercesc_3_1@@QBEHXZ 12030361 f i DFAContentModel.obj
 0001:0002f361       ?getEntity@EndOfEntityException@xercesc_3_1@@QBEABVXMLEntityDecl@2@XZ 12030361 f i DGXMLScanner.obj
 0001:0002f361       ?getSign@XMLBigInteger@xercesc_3_1@@QBEHXZ 12030361 f i XMLBigDecimal.obj
 0001:0002f361       ?getEmptyNamespaceId@ElemStack@xercesc_3_1@@QAEIXZ 12030361 f i XMLValidator.obj
 0001:0002f361       ?getBufferCount@XMLBufferMgr@xercesc_3_1@@QBEKXZ 12030361 f i XMLBufferMgr.obj
 0001:0002f361       ?getLen@XMLBuffer@xercesc_3_1@@QBEKXZ 12030361 f i Base64.obj
 0001:0002f361       ?getResourceIdentifierType@XMLResourceIdentifier@xercesc_3_1@@QBE?AW4ResourceIdentifierType@12@XZ 12030361 f i DGXMLScanner.obj
 0001:0002f361       ?getMatcherCount@XPathMatcherStack@xercesc_3_1@@QBEKXZ 12030361 f i IGXMLScanner.obj
 0001:0002f361       ?getEscapeFlags@XMLFormatter@xercesc_3_1@@QBE?AW4EscapeFlags@12@XZ 12030361 f i LocalFileFormatTarget.obj
 0001:0002f361       ?getTokenRegistry@RangeTokenMap@xercesc_3_1@@IBEPAV?$RefHashTableOf@VRangeTokenElemMap@xercesc_3_1@@UStringHasher@2@@2@XZ 12030361 f i ASCIIRangeFactory.obj
 0001:0002f364       ??0XMLResourceIdentifier@xercesc_3_1@@QAE@W4ResourceIdentifierType@01@QB_W111PBVLocator@1@@Z 12030364 f i DGXMLScanner.obj
 0001:0002f390       ??0DGXMLScanner@xercesc_3_1@@QAE@QAVXMLValidator@1@QAVGrammarResolver@1@QAVMemoryManager@1@@Z 12030390 f   DGXMLScanner.obj
 0001:0002f414       ??0DGXMLScanner@xercesc_3_1@@QAE@QAVXMLDocumentHandler@1@QAVDocTypeHandler@1@QAVXMLEntityHandler@1@QAVXMLErrorReporter@1@QAVXMLValidator@1@QAVGrammarResolver@1@QAVMemoryManager@1@@Z 12030414 f   DGXMLScanner.obj
 0001:0002f4a4       ??1DGXMLScanner@xercesc_3_1@@UAE@XZ 120304a4 f   DGXMLScanner.obj
 0001:0002f4d5       ?getEntityDeclPool@DGXMLScanner@xercesc_3_1@@UAEPAV?$NameIdPool@VDTDEntityDecl@xercesc_3_1@@@2@XZ 120304d5 f   DGXMLScanner.obj
 0001:0002f4d5       ?getEntityDeclPool@DGXMLScanner@xercesc_3_1@@UBEPBV?$NameIdPool@VDTDEntityDecl@xercesc_3_1@@@2@XZ 120304d5 f   DGXMLScanner.obj
 0001:0002f4e4       ?scanDocument@DGXMLScanner@xercesc_3_1@@UAEXABVInputSource@2@@Z 120304e4 f   DGXMLScanner.obj
 0001:0002f610       ?scanNext@DGXMLScanner@xercesc_3_1@@UAE_NAAVXMLPScanToken@2@@Z 12030610 f   DGXMLScanner.obj
 0001:0002f87d       ?scanContent@DGXMLScanner@xercesc_3_1@@AAE_NXZ 1203087d f   DGXMLScanner.obj
 0001:0002f9fc       ?scanEndTag@DGXMLScanner@xercesc_3_1@@AAEXAA_N@Z 120309fc f   DGXMLScanner.obj
 0001:0002fc47       ?scanDocTypeDecl@DGXMLScanner@xercesc_3_1@@EAEXXZ 12030c47 f   DGXMLScanner.obj
 0001:000303bf       ?scanStartTag@DGXMLScanner@xercesc_3_1@@AAE_NAA_N@Z 120313bf f   DGXMLScanner.obj
 0001:00030ac5       ?scanStartTagNS@DGXMLScanner@xercesc_3_1@@AAE_NAA_N@Z 12031ac5 f   DGXMLScanner.obj
 0001:0003120b       ?loadGrammar@DGXMLScanner@xercesc_3_1@@UAEPAVGrammar@2@ABVInputSource@2@F_N@Z 1203220b f   DGXMLScanner.obj
 0001:0003131f       ?loadDTDGrammar@DGXMLScanner@xercesc_3_1@@AAEPAVGrammar@2@ABVInputSource@2@_N@Z 1203231f f   DGXMLScanner.obj
 0001:000316a5       ?commonInit@DGXMLScanner@xercesc_3_1@@AAEXXZ 120326a5 f   DGXMLScanner.obj
 0001:00031822       ?cleanUp@DGXMLScanner@xercesc_3_1@@AAEXXZ 12032822 f   DGXMLScanner.obj
 0001:00031883       ??_G?$RefHashTableOf@IUPtrHasher@xercesc_3_1@@@xercesc_3_1@@QAEPAXI@Z 12032883 f i DGXMLScanner.obj
 0001:000318a4       ??_G?$Hash2KeysSetOf@UStringHasher@xercesc_3_1@@@xercesc_3_1@@QAEPAXI@Z 120328a4 f i DGXMLScanner.obj
 0001:0003190d       ?buildAttList@DGXMLScanner@xercesc_3_1@@AAEKKPAVXMLElementDecl@2@AAV?$RefVectorOf@VXMLAttr@xercesc_3_1@@@2@@Z 1203290d f   DGXMLScanner.obj
 0001:00031b96       ?scanReset@DGXMLScanner@xercesc_3_1@@EAEXABVInputSource@2@@Z 12032b96 f   DGXMLScanner.obj
 0001:00031ddf       ?sendCharData@DGXMLScanner@xercesc_3_1@@EAEXAAVXMLBuffer@2@@Z 12032ddf f   DGXMLScanner.obj
 0001:00031ec7       ?updateNSMap@DGXMLScanner@xercesc_3_1@@AAEXQB_W00@Z 12032ec7 f   DGXMLScanner.obj
 0001:00031fbd       ?scanAttrListforNameSpaces@DGXMLScanner@xercesc_3_1@@AAEXPAV?$RefVectorOf@VXMLAttr@xercesc_3_1@@@2@KPAVXMLElementDecl@2@@Z 12032fbd f   DGXMLScanner.obj
 0001:0003211d       ?resolveSystemId@DGXMLScanner@xercesc_3_1@@EAEPAVInputSource@2@QB_W0@Z 1203311d f   DGXMLScanner.obj
 0001:000323d1       ?scanAttValue@DGXMLScanner@xercesc_3_1@@AAE_NQBVXMLAttDef@2@QB_WAAVXMLBuffer@2@@Z 120333d1 f   DGXMLScanner.obj
 0001:000326f6       ?scanCDSection@DGXMLScanner@xercesc_3_1@@EAEXXZ 120336f6 f   DGXMLScanner.obj
 0001:0003299a       ?scanCharData@DGXMLScanner@xercesc_3_1@@EAEXAAVXMLBuffer@2@@Z 1203399a f   DGXMLScanner.obj
 0001:00032c81       ?scanEntityRef@DGXMLScanner@xercesc_3_1@@EAE?AW4EntityExpRes@XMLScanner@2@_NAA_W1AA_N@Z 12033c81 f   DGXMLScanner.obj
 0001:0003319a       ?containsKey@?$RefHash2KeysTableOf@_WUStringHasher@xercesc_3_1@@@xercesc_3_1@@QBE_NQBXH@Z 1203419a f i TraverseSchema.obj
 0001:0003319a       ?containsKey@?$RefHash2KeysTableOf@VIdentityConstraint@xercesc_3_1@@UStringHasher@2@@xercesc_3_1@@QBE_NQBXH@Z 1203419a f i TraverseSchema.obj
 0001:0003319a       ?containsKey@?$RefHash2KeysTableOf@VXMLAttr@xercesc_3_1@@UStringHasher@2@@xercesc_3_1@@QBE_NQBXH@Z 1203419a f i DGXMLScanner.obj
 0001:000331e1       ?put@?$RefHash2KeysTableOf@VXMLAttr@xercesc_3_1@@UStringHasher@2@@xercesc_3_1@@QAEXPAXHQAVXMLAttr@2@@Z 120341e1 f i DGXMLScanner.obj
 0001:00033292       ??0?$RefHashTableOf@IUPtrHasher@xercesc_3_1@@@xercesc_3_1@@QAE@K_NQAVMemoryManager@1@@Z 12034292 f i DGXMLScanner.obj
 0001:000332cf       ?removeAll@?$RefHashTableOf@UPoolElem@XMLStringPool@xercesc_3_1@@UStringHasher@3@@xercesc_3_1@@QAEXXZ 120342cf f i StringPool.obj
 0001:000332cf       ?removeAll@?$RefHashTableOf@IUPtrHasher@xercesc_3_1@@@xercesc_3_1@@QAEXXZ 120342cf f i DGXMLScanner.obj
 0001:00033322       ?put@?$RefHashTableOf@IUPtrHasher@xercesc_3_1@@@xercesc_3_1@@QAEXPAXQAI@Z 12034322 f i DGXMLScanner.obj
 0001:000333b8       ??0?$Hash2KeysSetOf@UStringHasher@xercesc_3_1@@@xercesc_3_1@@QAE@KQAVMemoryManager@1@@Z 120343b8 f i DGXMLScanner.obj
 0001:000333ef       ?removeAll@?$Hash2KeysSetOf@UStringHasher@xercesc_3_1@@@xercesc_3_1@@QAEXXZ 120343ef f i DGXMLScanner.obj
 0001:0003342d       ?putIfNotPresent@?$Hash2KeysSetOf@UStringHasher@xercesc_3_1@@@xercesc_3_1@@QAE_NPBXH@Z 1203442d f i DGXMLScanner.obj
 0001:000334be       ?rehash@?$Hash2KeysSetOf@UStringHasher@xercesc_3_1@@@xercesc_3_1@@AAEXXZ 120344be f i DGXMLScanner.obj
 0001:0003355f       ??0ElemStack@xercesc_3_1@@QAE@QAVMemoryManager@1@@Z 1203455f f   ElemStack.obj
 0001:00033629       ??1ElemStack@xercesc_3_1@@QAE@XZ 12034629 f   ElemStack.obj
 0001:000336e2       ?addLevel@ElemStack@xercesc_3_1@@QAEKXZ 120346e2 f   ElemStack.obj
 0001:000337e6       ?addLevel@ElemStack@xercesc_3_1@@QAEKQAVXMLElementDecl@2@K@Z 120347e6 f   ElemStack.obj
 0001:000338f5       ?popTop@ElemStack@xercesc_3_1@@QAEPBUStackElem@12@XZ 120348f5 f   ElemStack.obj
 0001:00033934       ?setElement@ElemStack@xercesc_3_1@@QAEXQAVXMLElementDecl@2@K@Z 12034934 f   ElemStack.obj
 0001:0003398a       ?addChild@ElemStack@xercesc_3_1@@QAEKQAVQName@2@_N@Z 1203498a f   ElemStack.obj
 0001:00033a95       ?topElement@ElemStack@xercesc_3_1@@QBEPBUStackElem@12@XZ 12034a95 f   ElemStack.obj
 0001:00033ad1       ?addGlobalPrefix@ElemStack@xercesc_3_1@@QAEXQB_WI@Z 12034ad1 f   ElemStack.obj
 0001:00033bb6       ?addPrefix@ElemStack@xercesc_3_1@@QAEXQB_WI@Z 12034bb6 f   ElemStack.obj
 0001:00033c49       ?mapPrefixToURI@ElemStack@xercesc_3_1@@QBEIQB_WAA_N@Z 12034c49 f   ElemStack.obj
 0001:00033d30       ?getNamespaceMap@ElemStack@xercesc_3_1@@QBEPAV?$ValueVectorOf@PAUPrefMapElem@xercesc_3_1@@@2@XZ 12034d30 f   ElemStack.obj
 0001:00033dc1       ?reset@ElemStack@xercesc_3_1@@QAEXIIII@Z 12034dc1 f   ElemStack.obj
 0001:00033e40       ?expandMap@ElemStack@xercesc_3_1@@AAEXQAUStackElem@12@@Z 12034e40 f   ElemStack.obj
 0001:00033eb6       ?expandStack@ElemStack@xercesc_3_1@@AAEXXZ 12034eb6 f   ElemStack.obj
 0001:00033f34       ??0WFElemStack@xercesc_3_1@@QAE@QAVMemoryManager@1@@Z 12034f34 f   ElemStack.obj
 0001:00033faf       ??1WFElemStack@xercesc_3_1@@QAE@XZ 12034faf f   ElemStack.obj
 0001:00034022       ?addLevel@WFElemStack@xercesc_3_1@@QAEKXZ 12035022 f   ElemStack.obj
 0001:000340b4       ?addLevel@WFElemStack@xercesc_3_1@@QAEKQB_WII@Z 120350b4 f   ElemStack.obj
 0001:000341ae       ?popTop@WFElemStack@xercesc_3_1@@QAEPBUStackElem@12@XZ 120351ae f   ElemStack.obj
 0001:000341ed       ?setElement@WFElemStack@xercesc_3_1@@QAEXQB_WII@Z 120351ed f   ElemStack.obj
 0001:00034299       ?topElement@WFElemStack@xercesc_3_1@@QBEPBUStackElem@12@XZ 12035299 f   ElemStack.obj
 0001:000342d5       ?addPrefix@WFElemStack@xercesc_3_1@@QAEXQB_WI@Z 120352d5 f   ElemStack.obj
 0001:00034364       ?mapPrefixToURI@WFElemStack@xercesc_3_1@@QBEIQB_WAA_N@Z 12035364 f   ElemStack.obj
 0001:000343dd       ?reset@WFElemStack@xercesc_3_1@@QAEXIIII@Z 120353dd f   ElemStack.obj
 0001:0003443e       ?expandMap@WFElemStack@xercesc_3_1@@AAEXXZ 1203543e f   ElemStack.obj
 0001:000344ac       ?expandStack@WFElemStack@xercesc_3_1@@AAEXXZ 120354ac f   ElemStack.obj
 0001:0003452a       ?getElemAttrDefaultQualified@SchemaInfo@xercesc_3_1@@QBEGXZ 1203552a f i IGXMLScanner.obj
 0001:0003452f       ?getProcessed@SchemaInfo@xercesc_3_1@@QBE_NXZ 1203552f f i IGXMLScanner.obj
 0001:00034533       ?getImportingListEnumerator@SchemaInfo@xercesc_3_1@@QBE?AV?$BaseRefVectorEnumerator@VSchemaInfo@xercesc_3_1@@@2@XZ 12035533 f i IGXMLScanner.obj
 0001:00034551       ?getEntityHandler@XMLScanner@xercesc_3_1@@QAEPAVXMLEntityHandler@2@XZ 12035551 f i XMLValidator.obj
 0001:00034551       ?getNonXSAttList@SchemaInfo@xercesc_3_1@@QBEPAV?$ValueVectorOf@PAVDOMNode@xercesc_3_1@@@2@XZ 12035551 f i IGXMLScanner.obj
 0001:00034551       ?getEntityHandler@XMLScanner@xercesc_3_1@@QBEPBVXMLEntityHandler@2@XZ 12035551 f i XMLValidator.obj
 0001:00034555       ?setElemAttrDefaultQualified@SchemaInfo@xercesc_3_1@@QAEXG@Z 12035555 f i IGXMLScanner.obj
 0001:00034564       ?setProcessed@SchemaInfo@xercesc_3_1@@QAEX_N@Z 12035564 f i IGXMLScanner.obj
 0001:00034564       ?useCachedGrammarInParse@GrammarResolver@xercesc_3_1@@QAEX_N@Z 12035564 f i XMLValidator.obj
 0001:00034571       ?resetRoot@SchemaInfo@xercesc_3_1@@QAEXXZ 12035571 f i IGXMLScanner.obj
 0001:00034576       ?addSchemaInfo@SchemaInfo@xercesc_3_1@@QAEXQAV12@W4ListType@12@@Z 12035576 f i IGXMLScanner.obj
 0001:00034713       ?getImportInfo@SchemaInfo@xercesc_3_1@@QBEPAV12@I@Z 12035713 f i IGXMLScanner.obj
 0001:00034760       ?containsInfo@SchemaInfo@xercesc_3_1@@QBE_NQBV12@W4ListType@12@@Z 12035760 f i IGXMLScanner.obj
 0001:0003478b       ?circularImportExist@SchemaInfo@xercesc_3_1@@QAE_NI@Z 1203578b f i IGXMLScanner.obj
 0001:000347d4       ?isFailedRedefine@SchemaInfo@xercesc_3_1@@QAE_NQBVDOMElement@2@@Z 120357d4 f i IGXMLScanner.obj
 0001:000347ee       ?addFailedRedefine@SchemaInfo@xercesc_3_1@@QAEXQBVDOMElement@2@@Z 120357ee f i IGXMLScanner.obj
 0001:00034848       ?addRecursingType@SchemaInfo@xercesc_3_1@@QAEXQBVDOMElement@2@QB_W@Z 12035848 f i IGXMLScanner.obj
 0001:0003490a       ?clearTopLevelComponents@SchemaInfo@xercesc_3_1@@AAEXXZ 1203590a f i IGXMLScanner.obj
 0001:0003492f       ??_EIGXMLScanner@xercesc_3_1@@UAEPAXI@Z 1203592f f i IGXMLScanner.obj
 0001:0003497d       ?getName@IGXMLScanner@xercesc_3_1@@UBEPB_WXZ 1203597d f i IGXMLScanner.obj
 0001:00034983       ?toCheckIdentityConstraint@SGXMLScanner@xercesc_3_1@@ABE_NXZ 12035983 f i SGXMLScanner.obj
 0001:00034983       ?toCheckIdentityConstraint@IGXMLScanner@xercesc_3_1@@ABE_NXZ 12035983 f i IGXMLScanner.obj
 0001:00034999       ??1XSDErrorReporter@xercesc_3_1@@UAE@XZ 12035999 f i IGXMLScanner.obj
 0001:000349a0       ??_FXSDErrorReporter@xercesc_3_1@@QAEXXZ 120359a0 f i IGXMLScanner.obj
 0001:000349af       ??_EXSDErrorReporter@xercesc_3_1@@UAEPAXI@Z 120359af f i IGXMLScanner.obj
 0001:000349fb       ??_FSchemaValidator@xercesc_3_1@@QAEXXZ 120359fb f i IGXMLScanner.obj
 0001:00034a09       ?setXsiType@SchemaValidator@xercesc_3_1@@QAEXQB_W0I@Z 12035a09 f i IGXMLScanner.obj
 0001:00034a60       ?setNillable@SchemaValidator@xercesc_3_1@@QAEX_N@Z 12035a60 f i IGXMLScanner.obj
 0001:00034a71       ?resetNillable@SchemaValidator@xercesc_3_1@@QAEXXZ 12035a71 f i IGXMLScanner.obj
 0001:00034a78       ?setExitOnFirstFatal@SchemaValidator@xercesc_3_1@@QAEX_N@Z 12035a78 f i IGXMLScanner.obj
 0001:00034a85       ?setDatatypeBuffer@SchemaValidator@xercesc_3_1@@QAEXQB_W@Z 12035a85 f i IGXMLScanner.obj
 0001:00034a99       ?clearDatatypeBuffer@SchemaValidator@xercesc_3_1@@QAEXXZ 12035a99 f i IGXMLScanner.obj
 0001:00034a9e       ?getCurrentTypeInfo@SchemaValidator@xercesc_3_1@@QBEPAVComplexTypeInfo@2@XZ 12035a9e f i IGXMLScanner.obj
 0001:00034ab2       ?setErrorReporter@SchemaValidator@xercesc_3_1@@QAEXQAVXMLErrorReporter@2@@Z 12035ab2 f i IGXMLScanner.obj
 0001:00034ac2       ?isOccurrenceRangeOK@SchemaValidator@xercesc_3_1@@AAE_NHHHH@Z 12035ac2 f i IGXMLScanner.obj
 0001:00034aea       ?getErrorOccurred@SchemaValidator@xercesc_3_1@@QBE_NXZ 12035aea f i IGXMLScanner.obj
 0001:00034aee       ?getIsElemSpecified@SchemaValidator@xercesc_3_1@@QBE_NXZ 12035aee f i IGXMLScanner.obj
 0001:00034af2       ?getNormalizedValue@SchemaValidator@xercesc_3_1@@QBEPB_WXZ 12035af2 f i IGXMLScanner.obj
 0001:00034b04       ?getIsXsiTypeSet@SchemaValidator@xercesc_3_1@@QBE_NXZ 12035b04 f i IGXMLScanner.obj
 0001:00034b0d       ??_FValueStoreCache@xercesc_3_1@@QAEXXZ 12035b0d f i IGXMLScanner.obj
 0001:00034b19       ?getValueStoreFor@ValueStoreCache@xercesc_3_1@@QAEPAVValueStore@2@QBVIC_Field@2@H@Z 12035b19 f i IGXMLScanner.obj
 0001:00034b33       ?getValueStoreFor@ValueStoreCache@xercesc_3_1@@QAEPAVValueStore@2@QBVIdentityConstraint@2@H@Z 12035b33 f i IGXMLScanner.obj
 0001:00034b4a       ?getGlobalValueStoreFor@ValueStoreCache@xercesc_3_1@@QAEPAVValueStore@2@QBVIdentityConstraint@2@@Z 12035b4a f i IGXMLScanner.obj
 0001:00034b5e       ??_FXPathMatcherStack@xercesc_3_1@@QAEXXZ 12035b5e f i IGXMLScanner.obj
 0001:00034b6a       ?size@XPathMatcherStack@xercesc_3_1@@QBEKXZ 12035b6a f i IGXMLScanner.obj
 0001:00034b71       ?getMatcherAt@XPathMatcherStack@xercesc_3_1@@QBEPAVXPathMatcher@2@K@Z 12035b71 f i IGXMLScanner.obj
 0001:00034bb3       ?pushContext@XPathMatcherStack@xercesc_3_1@@QAEXXZ 12035bb3 f i IGXMLScanner.obj
 0001:00034bcc       ?popContext@XPathMatcherStack@xercesc_3_1@@QAEXXZ 12035bcc f i IGXMLScanner.obj
 0001:00034c39       ?addMatcher@XPathMatcherStack@xercesc_3_1@@QAEXQAVXPathMatcher@2@@Z 12035c39 f i IGXMLScanner.obj
 0001:00034c6c       ?getMatcherCount@IdentityConstraintHandler@xercesc_3_1@@QBEKXZ 12035c6c f i IGXMLScanner.obj
 0001:00034c72       ??0IGXMLScanner@xercesc_3_1@@QAE@QAVXMLValidator@1@QAVGrammarResolver@1@QAVMemoryManager@1@@Z 12035c72 f   IGXMLScanner.obj
 0001:00034d7b       ??0IGXMLScanner@xercesc_3_1@@QAE@QAVXMLDocumentHandler@1@QAVDocTypeHandler@1@QAVXMLEntityHandler@1@QAVXMLErrorReporter@1@QAVXMLValidator@1@QAVGrammarResolver@1@QAVMemoryManager@1@@Z 12035d7b f   IGXMLScanner.obj
 0001:00034e90       ??1IGXMLScanner@xercesc_3_1@@UAE@XZ 12035e90 f   IGXMLScanner.obj
 0001:00034ed9       ?getEntityDeclPool@IGXMLScanner@xercesc_3_1@@UBEPBV?$NameIdPool@VDTDEntityDecl@xercesc_3_1@@@2@XZ 12035ed9 f   IGXMLScanner.obj
 0001:00034ed9       ?getEntityDeclPool@IGXMLScanner@xercesc_3_1@@UAEPAV?$NameIdPool@VDTDEntityDecl@xercesc_3_1@@@2@XZ 12035ed9 f   IGXMLScanner.obj
 0001:00034ee8       ?scanDocument@IGXMLScanner@xercesc_3_1@@UAEXABVInputSource@2@@Z 12035ee8 f   IGXMLScanner.obj
 0001:00035014       ?scanNext@IGXMLScanner@xercesc_3_1@@UAE_NAAVXMLPScanToken@2@@Z 12036014 f   IGXMLScanner.obj
 0001:00035281       ?commonInit@IGXMLScanner@xercesc_3_1@@AAEXXZ 12036281 f   IGXMLScanner.obj
 0001:000355aa       ?cleanUp@IGXMLScanner@xercesc_3_1@@AAEXXZ 120365aa f   IGXMLScanner.obj
 0001:000356e4       ??_G?$RefHash2KeysTableOf@VSchemaInfo@xercesc_3_1@@UStringHasher@2@@xercesc_3_1@@QAEPAXI@Z 120366e4 f i IGXMLScanner.obj
 0001:00035705       ?rawAttrScan@IGXMLScanner@xercesc_3_1@@AAEKQB_WAAV?$RefVectorOf@VKVStringPair@xercesc_3_1@@@2@AA_N@Z 12036705 f   IGXMLScanner.obj
 0001:00035a89       ?scanContent@IGXMLScanner@xercesc_3_1@@AAE_NXZ 12036a89 f   IGXMLScanner.obj
 0001:00035c08       ?scanEndTag@IGXMLScanner@xercesc_3_1@@AAEXAA_N@Z 12036c08 f   IGXMLScanner.obj
 0001:0003617a       ?scanDocTypeDecl@IGXMLScanner@xercesc_3_1@@EAEXXZ 1203717a f   IGXMLScanner.obj
 0001:000368fc       ?scanStartTag@IGXMLScanner@xercesc_3_1@@AAE_NAA_N@Z 120378fc f   IGXMLScanner.obj
 0001:000371d5       ?scanStartTagNS@IGXMLScanner@xercesc_3_1@@AAE_NAA_N@Z 120381d5 f   IGXMLScanner.obj
 0001:0003804f       ?resizeRawAttrColonList@IGXMLScanner@xercesc_3_1@@AAEXXZ 1203904f f   IGXMLScanner.obj
 0001:000380b8       ?loadGrammar@IGXMLScanner@xercesc_3_1@@UAEPAVGrammar@2@ABVInputSource@2@F_N@Z 120390b8 f   IGXMLScanner.obj
 0001:000381e7       ?resetCachedGrammar@IGXMLScanner@xercesc_3_1@@UAEXXZ 120391e7 f   IGXMLScanner.obj
 0001:000381f5       ?loadDTDGrammar@IGXMLScanner@xercesc_3_1@@AAEPAVGrammar@2@ABVInputSource@2@_N@Z 120391f5 f   IGXMLScanner.obj
 0001:000385ff       ?processSchemaLocation@IGXMLScanner@xercesc_3_1@@AAEXQA_W@Z 120395ff f   IGXMLScanner.obj
 0001:000386aa       ?endElementPSVI@IGXMLScanner@xercesc_3_1@@AAEXQAVSchemaElementDecl@2@QAVDatatypeValidator@2@@Z 120396aa f   IGXMLScanner.obj
 0001:0003883b       ?resetPSVIElemContext@IGXMLScanner@xercesc_3_1@@AAEXXZ 1203983b f   IGXMLScanner.obj
 0001:0003886c       ??1?$XMLEnumerator@VSchemaInfo@xercesc_3_1@@@xercesc_3_1@@UAE@XZ 1203986c f i IGXMLScanner.obj
 0001:00038873       ??_E?$XMLEnumerator@VSchemaInfo@xercesc_3_1@@@xercesc_3_1@@UAEPAXI@Z 12039873 f i  CIL library: CIL module
 0001:00038873       ??_G?$XMLEnumerator@VSchemaInfo@xercesc_3_1@@@xercesc_3_1@@UAEPAXI@Z 12039873 f i IGXMLScanner.obj
 0001:00038894       ??1?$BaseRefVectorEnumerator@VSchemaInfo@xercesc_3_1@@@xercesc_3_1@@UAE@XZ 12039894 f i IGXMLScanner.obj
 0001:000388ce       ?hasMoreElements@?$BaseRefVectorEnumerator@VSchemaInfo@xercesc_3_1@@@xercesc_3_1@@UBE_NXZ 120398ce f i IGXMLScanner.obj
 0001:000388db       ?nextElement@?$BaseRefVectorEnumerator@VSchemaInfo@xercesc_3_1@@@xercesc_3_1@@UAEAAVSchemaInfo@2@XZ 120398db f i IGXMLScanner.obj
 0001:000388f8       ??1?$BaseRefVectorOf@VSchemaInfo@xercesc_3_1@@@xercesc_3_1@@UAE@XZ 120398f8 f i IGXMLScanner.obj
 0001:000388ff       ?setElementAt@?$BaseRefVectorOf@VSchemaInfo@xercesc_3_1@@@xercesc_3_1@@UAEXQAVSchemaInfo@2@K@Z 120398ff f i IGXMLScanner.obj
 0001:0003895a       ?removeAllElements@?$BaseRefVectorOf@VSchemaInfo@xercesc_3_1@@@xercesc_3_1@@UAEXXZ 1203995a f i IGXMLScanner.obj
 0001:0003898f       ?removeElementAt@?$BaseRefVectorOf@VSchemaInfo@xercesc_3_1@@@xercesc_3_1@@UAEXK@Z 1203998f f i IGXMLScanner.obj
 0001:00038a1d       ?removeLastElement@?$BaseRefVectorOf@VSchemaInfo@xercesc_3_1@@@xercesc_3_1@@UAEXXZ 12039a1d f i IGXMLScanner.obj
 0001:00038a3f       ?containsElement@?$BaseRefVectorOf@VSchemaInfo@xercesc_3_1@@@xercesc_3_1@@QAE_NQBVSchemaInfo@2@@Z 12039a3f f i IGXMLScanner.obj
 0001:00038a69       ?cleanup@?$BaseRefVectorOf@VSchemaInfo@xercesc_3_1@@@xercesc_3_1@@UAEXXZ 12039a69 f i IGXMLScanner.obj
 0001:00038a9e       ??0?$RefVectorOf@VSchemaInfo@xercesc_3_1@@@xercesc_3_1@@QAE@K_NQAVMemoryManager@1@@Z 12039a9e f i IGXMLScanner.obj
 0001:00038adf       ??0?$ValueVectorOf@PAX@xercesc_3_1@@QAE@KQAVMemoryManager@1@_N@Z 12039adf f i XSerializeEngine.obj
 0001:00038adf       ??0?$ValueVectorOf@K@xercesc_3_1@@QAE@KQAVMemoryManager@1@_N@Z 12039adf f i WFXMLScanner.obj
 0001:00038adf       ??0?$ValueVectorOf@H@xercesc_3_1@@QAE@KQAVMemoryManager@1@_N@Z 12039adf f i IGXMLScanner2.obj
 0001:00038adf       ??0?$ValueVectorOf@PAVDOMNode@xercesc_3_1@@@xercesc_3_1@@QAE@KQAVMemoryManager@1@_N@Z 12039adf f i SchemaInfo.obj
 0001:00038adf       ??0?$ValueVectorOf@PBVDOMElement@xercesc_3_1@@@xercesc_3_1@@QAE@KQAVMemoryManager@1@_N@Z 12039adf f i IGXMLScanner.obj
 0001:00038b12       ?removeAll@?$NameIdPool@VDTDElementDecl@xercesc_3_1@@@xercesc_3_1@@QAEXXZ 12039b12 f i IGXMLScanner.obj
 0001:00038b27       ?peek@?$ValueStackOf@PAVComplexTypeInfo@xercesc_3_1@@@xercesc_3_1@@QBEABQAVComplexTypeInfo@2@XZ 12039b27 f i IGXMLScanner.obj
 0001:00038b92       ?get@?$RefHash2KeysTableOf@VValueStore@xercesc_3_1@@UPtrHasher@2@@xercesc_3_1@@QAEPAVValueStore@2@QBXH@Z 12039b92 f i IGXMLScanner.obj
 0001:00038bc6       ?get@?$RefHashTableOf@VXSAnnotation@xercesc_3_1@@UPtrHasher@2@@xercesc_3_1@@QAEPAVXSAnnotation@2@QBX@Z 12039bc6 f i XMLGrammarPoolImpl.obj
 0001:00038bc6       ?get@?$RefHashTableOf@VValueStore@xercesc_3_1@@UPtrHasher@2@@xercesc_3_1@@QAEPAVValueStore@2@QBX@Z 12039bc6 f i IGXMLScanner.obj
 0001:00038bc6       ?get@?$RefHashTableOf@VSchemaInfo@xercesc_3_1@@UPtrHasher@2@@xercesc_3_1@@QAEPAVSchemaInfo@2@QBX@Z 12039bc6 f i TraverseSchema.obj
 0001:00038bc6       ?get@?$RefHashTableOf@IUPtrHasher@xercesc_3_1@@@xercesc_3_1@@QAEPAIQBX@Z 12039bc6 f i DGXMLScanner.obj
 0001:00038beb       ??1?$BaseRefVectorOf@VKVStringPair@xercesc_3_1@@@xercesc_3_1@@UAE@XZ 12039beb f i IGXMLScanner.obj
 0001:00038bf2       ??0?$RefVectorOf@VKVStringPair@xercesc_3_1@@@xercesc_3_1@@QAE@K_NQAVMemoryManager@1@@Z 12039bf2 f i IGXMLScanner.obj
 0001:00038c37       ??0?$RefHash2KeysTableOf@VSchemaInfo@xercesc_3_1@@UStringHasher@2@@xercesc_3_1@@QAE@KQAVMemoryManager@1@@Z 12039c37 f i IGXMLScanner.obj
 0001:00038c6e       ?removeAll@?$RefHash2KeysTableOf@VSchemaInfo@xercesc_3_1@@UStringHasher@2@@xercesc_3_1@@QAEXXZ 12039c6e f i IGXMLScanner.obj
 0001:00038cc4       ?pop@?$ValueStackOf@_N@xercesc_3_1@@QAE_NXZ 12039cc4 f i IGXMLScanner.obj
 0001:00038d1c       ??_G?$BaseRefVectorEnumerator@VSchemaInfo@xercesc_3_1@@@xercesc_3_1@@UAEPAXI@Z 12039d1c f i IGXMLScanner.obj
 0001:00038d1c       ??_E?$BaseRefVectorEnumerator@VSchemaInfo@xercesc_3_1@@@xercesc_3_1@@UAEPAXI@Z 12039d1c f i  CIL library: CIL module
 0001:00038d3b       ??_E?$BaseRefVectorOf@VSchemaInfo@xercesc_3_1@@@xercesc_3_1@@UAEPAXI@Z 12039d3b f i  CIL library: CIL module
 0001:00038d3b       ??_G?$BaseRefVectorOf@VSchemaInfo@xercesc_3_1@@@xercesc_3_1@@UAEPAXI@Z 12039d3b f i IGXMLScanner.obj
 0001:00038d5b       ??_GSchemaInfo@xercesc_3_1@@QAEPAXI@Z 12039d5b f i IGXMLScanner.obj
 0001:00038d76       ??_G?$RefVectorOf@VSchemaInfo@xercesc_3_1@@@xercesc_3_1@@UAEPAXI@Z 12039d76 f i IGXMLScanner.obj
 0001:00038d76       ??_E?$RefVectorOf@VSchemaInfo@xercesc_3_1@@@xercesc_3_1@@UAEPAXI@Z 12039d76 f i  CIL library: CIL module
 0001:00038de0       ??_G?$BaseRefVectorOf@VKVStringPair@xercesc_3_1@@@xercesc_3_1@@UAEPAXI@Z 12039de0 f i IGXMLScanner.obj
 0001:00038de0       ??_E?$BaseRefVectorOf@VKVStringPair@xercesc_3_1@@@xercesc_3_1@@UAEPAXI@Z 12039de0 f i  CIL library: CIL module
 0001:00038e00       ??_E?$RefVectorOf@VKVStringPair@xercesc_3_1@@@xercesc_3_1@@UAEPAXI@Z 12039e00 f i  CIL library: CIL module
 0001:00038e00       ??_G?$RefVectorOf@VKVStringPair@xercesc_3_1@@@xercesc_3_1@@UAEPAXI@Z 12039e00 f i IGXMLScanner.obj
 0001:00038e6a       ??1?$ValueVectorOf@PAVXercesAttGroupInfo@xercesc_3_1@@@xercesc_3_1@@QAE@XZ 12039e6a f i TraverseSchema.obj
 0001:00038e6a       ??1?$ValueVectorOf@I@xercesc_3_1@@QAE@XZ 12039e6a f i XTemplateSerializer.obj
 0001:00038e6a       ??1?$ValueVectorOf@H@xercesc_3_1@@QAE@XZ 12039e6a f i TraverseSchema.obj
 0001:00038e6a       ??1?$ValueVectorOf@_N@xercesc_3_1@@QAE@XZ 12039e6a f i IGXMLScanner.obj
 0001:00038e6a       ??1?$ValueVectorOf@PAVContentSpecNode@xercesc_3_1@@@xercesc_3_1@@QAE@XZ 12039e6a f i SchemaValidator.obj
 0001:00038e6a       ??1?$ValueVectorOf@PA_W@xercesc_3_1@@QAE@XZ 12039e6a f i IGXMLScanner.obj
 0001:00038e6a       ??1?$ValueVectorOf@W4NodeTypes@ContentSpecNode@xercesc_3_1@@@xercesc_3_1@@QAE@XZ 12039e6a f i MixedContentModel.obj
 0001:00038e6a       ??1?$ValueVectorOf@PAX@xercesc_3_1@@QAE@XZ 12039e6a f i XSerializeEngine.obj
 0001:00038e6a       ??1?$ValueVectorOf@PAVQName@xercesc_3_1@@@xercesc_3_1@@QAE@XZ 12039e6a f i AllContentModel.obj
 0001:00038e76       ?addElement@?$ValueVectorOf@_N@xercesc_3_1@@QAEXAB_N@Z 12039e76 f i IGXMLScanner.obj
 0001:00038ef1       ?removeElementAt@?$ValueVectorOf@_N@xercesc_3_1@@QAEXK@Z 12039ef1 f i IGXMLScanner.obj
 0001:00038f41       ??_FContentLeafNameTypeVector@xercesc_3_1@@QAEXXZ 12039f41 f i IGXMLScanner2.obj
 0001:00038f54       ?cleanUp@ContentLeafNameTypeVector@xercesc_3_1@@AAEXXZ 12039f54 f i IGXMLScanner2.obj
 0001:00038f6d       ?init@ContentLeafNameTypeVector@xercesc_3_1@@AAEXK@Z 12039f6d f i IGXMLScanner2.obj
 0001:00038f9d       ??0DOMAttr@xercesc_3_1@@IAE@XZ 12039f9d f i IGXMLScanner2.obj
 0001:00038fa6       ??0DOMAttr@xercesc_3_1@@IAE@ABV01@@Z 12039fa6 f i IGXMLScanner2.obj
 0001:00038fb1       ??_FGeneralAttributeCheck@xercesc_3_1@@QAEXXZ 12039fb1 f i IGXMLScanner2.obj
 0001:00038fbd       ?getFacetId@GeneralAttributeCheck@xercesc_3_1@@QAEGQB_WQAVMemoryManager@2@@Z 12039fbd f i IGXMLScanner2.obj
 0001:00038fd8       ?getPrefix@TraverseSchema@xercesc_3_1@@AAEPB_WQB_W@Z 12039fd8 f i IGXMLScanner2.obj
 0001:00039036       ?getLocalPart@TraverseSchema@xercesc_3_1@@AAEPB_WQB_W@Z 1203a036 f i IGXMLScanner2.obj
 0001:000390b0       ?checkForEmptyTargetNamespace@TraverseSchema@xercesc_3_1@@AAEXQBVDOMElement@2@@Z 1203a0b0 f i IGXMLScanner2.obj
 0001:000390e8       ?isBaseFromAnotherSchema@TraverseSchema@xercesc_3_1@@AAE_NQB_W@Z 1203a0e8 f i IGXMLScanner2.obj
 0001:00039124       ?isAttrOrAttrGroup@TraverseSchema@xercesc_3_1@@AAE_NQBVDOMElement@2@@Z 1203a124 f i IGXMLScanner2.obj
 0001:0003916c       ?genAnonTypeName@TraverseSchema@xercesc_3_1@@AAEPB_WQB_W@Z 1203a16c f i IGXMLScanner2.obj
 0001:000391e9       ?popCurrentTypeNameStack@TraverseSchema@xercesc_3_1@@AAEXXZ 1203a1e9 f i IGXMLScanner2.obj
 0001:00039201       ?copyWildCardData@TraverseSchema@xercesc_3_1@@AAEXQBVSchemaAttDef@2@QAV32@@Z 1203a201 f i IGXMLScanner2.obj
 0001:00039228       ?getRedefineNewTypeName@TraverseSchema@xercesc_3_1@@AAEXQB_WHAAVXMLBuffer@2@@Z 1203a228 f i IGXMLScanner2.obj
 0001:00039253       ?isImportingNS@TraverseSchema@xercesc_3_1@@AAE_NH@Z 1203a253 f i IGXMLScanner2.obj
 0001:00039270       ?addImportedNS@TraverseSchema@xercesc_3_1@@AAEXH@Z 1203a270 f i IGXMLScanner2.obj
 0001:000392e7       ??0EndOfEntityException@xercesc_3_1@@QAE@PAVXMLEntityDecl@1@K@Z 1203a2e7 f i DGXMLScanner.obj
 0001:000392e7       ??0SubstitutionGroupComparator@xercesc_3_1@@QAE@QAVGrammarResolver@1@QAVXMLStringPool@1@@Z 1203a2e7 f i IGXMLScanner2.obj
 0001:000392fb       ??_EXSDLocator@xercesc_3_1@@UAEPAXI@Z 1203a2fb f i IGXMLScanner2.obj
 0001:00039347       ?getLineNumber@XSDLocator@xercesc_3_1@@UBE_KXZ 1203a347 f i IGXMLScanner2.obj
 0001:00039347       ?getLineNumber@DOMLocatorImpl@xercesc_3_1@@UBE_KXZ 1203a347 f i DOMLSParserImpl.obj
 0001:0003934e       ??_FXSDDOMParser@xercesc_3_1@@QAEXXZ 1203a34e f i IGXMLScanner2.obj
 0001:0003935e       ?getSawFatal@XSDDOMParser@xercesc_3_1@@QBE_NXZ 1203a35e f i IGXMLScanner2.obj
 0001:00039362       ??_FFieldValueMap@xercesc_3_1@@QAEXXZ 1203a362 f i IGXMLScanner2.obj
 0001:00039375       ?getDatatypeValidatorAt@FieldValueMap@xercesc_3_1@@QBEPAVDatatypeValidator@2@K@Z 1203a375 f i IGXMLScanner2.obj
 0001:000393a0       ?getDatatypeValidatorFor@FieldValueMap@xercesc_3_1@@QBEPAVDatatypeValidator@2@QBVIC_Field@2@@Z 1203a3a0 f i IGXMLScanner2.obj
 0001:000393df       ?getValueAt@FieldValueMap@xercesc_3_1@@QBEPA_WK@Z 1203a3df f i IGXMLScanner2.obj
 0001:000393fb       ?getValueFor@FieldValueMap@xercesc_3_1@@QBEPA_WQBVIC_Field@2@@Z 1203a3fb f i IGXMLScanner2.obj
 0001:0003942b       ?keyAt@FieldValueMap@xercesc_3_1@@QBEPAVIC_Field@2@K@Z 1203a42b f i IGXMLScanner2.obj
 0001:00039453       ?size@FieldValueMap@xercesc_3_1@@QBEKXZ 1203a453 f i IGXMLScanner2.obj
 0001:00039460       ?put@FieldValueMap@xercesc_3_1@@QAEXQAVIC_Field@2@QAVDatatypeValidator@2@QB_W@Z 1203a460 f i IGXMLScanner2.obj
 0001:00039601       ?buildAttList@IGXMLScanner@xercesc_3_1@@AAEKABV?$RefVectorOf@VKVStringPair@xercesc_3_1@@@2@KPAVXMLElementDecl@2@AAV?$RefVectorOf@VXMLAttr@xercesc_3_1@@@2@@Z 1203a601 f   IGXMLScanner2.obj
 0001:0003a5fd       ?normalizeAttValue@IGXMLScanner@xercesc_3_1@@AAE_NQBVXMLAttDef@2@QB_W1AAVXMLBuffer@2@@Z 1203b5fd f   IGXMLScanner2.obj
 0001:0003a7e6       ?scanReset@IGXMLScanner@xercesc_3_1@@EAEXABVInputSource@2@@Z 1203b7e6 f   IGXMLScanner2.obj
 0001:0003ac01       ?sendCharData@IGXMLScanner@xercesc_3_1@@EAEXAAVXMLBuffer@2@@Z 1203bc01 f   IGXMLScanner2.obj
 0001:0003ae8b       ?scanRawAttrListforNameSpaces@IGXMLScanner@xercesc_3_1@@AAEXK@Z 1203be8b f   IGXMLScanner2.obj
 0001:0003b3a0       ?parseSchemaLocation@IGXMLScanner@xercesc_3_1@@AAEXQB_W_N@Z 1203c3a0 f   IGXMLScanner2.obj
 0001:0003b4de       ?resolveSchemaGrammar@IGXMLScanner@xercesc_3_1@@AAEXQB_W0_N@Z 1203c4de f   IGXMLScanner2.obj
 0001:0003bd16       ?resolveSystemId@IGXMLScanner@xercesc_3_1@@EAEPAVInputSource@2@QB_W0@Z 1203cd16 f   IGXMLScanner2.obj
 0001:0003bfca       ?loadXMLSchemaGrammar@IGXMLScanner@xercesc_3_1@@AAEPAVGrammar@2@ABVInputSource@2@_N@Z 1203cfca f   IGXMLScanner2.obj
 0001:0003c33b       ?basicAttrValueScan@IGXMLScanner@xercesc_3_1@@AAE_NQB_WAAVXMLBuffer@2@@Z 1203d33b f   IGXMLScanner2.obj
 0001:0003c510       ?scanAttValue@IGXMLScanner@xercesc_3_1@@AAE_NQBVXMLAttDef@2@QB_WAAVXMLBuffer@2@@Z 1203d510 f   IGXMLScanner2.obj
 0001:0003c835       ?scanCDSection@IGXMLScanner@xercesc_3_1@@EAEXXZ 1203d835 f   IGXMLScanner2.obj
 0001:0003cbfa       ?scanCharData@IGXMLScanner@xercesc_3_1@@EAEXAAVXMLBuffer@2@@Z 1203dbfa f   IGXMLScanner2.obj
 0001:0003cf19       ?scanEntityRef@IGXMLScanner@xercesc_3_1@@EAE?AW4EntityExpRes@XMLScanner@2@_NAA_W1AA_N@Z 1203df19 f   IGXMLScanner2.obj
 0001:0003d432       ?switchGrammar@IGXMLScanner@xercesc_3_1@@AAE_NQB_W@Z 1203e432 f   IGXMLScanner2.obj
 0001:0003d53b       ?laxElementValidation@IGXMLScanner@xercesc_3_1@@AAE_NPAVQName@2@PAVContentLeafNameTypeVector@2@QBVXMLContentModel@2@K@Z 1203e53b f   IGXMLScanner2.obj
 0001:0003d8b8       ?anyAttributeValidation@IGXMLScanner@xercesc_3_1@@AAE_NPAVSchemaAttDef@2@IAA_N1@Z 1203e8b8 f   IGXMLScanner2.obj
 0001:0003d8b8       ?anyAttributeValidation@SGXMLScanner@xercesc_3_1@@AAE_NPAVSchemaAttDef@2@IAA_N1@Z 1203e8b8 f   SGXMLScanner.obj
 0001:0003d972       ?elementAt@?$BaseRefVectorOf@_W@xercesc_3_1@@QAEPA_WK@Z 1203e972 f i IGXMLScanner2.obj
 0001:0003d972       ?elementAt@?$BaseRefVectorOf@VDatatypeValidator@xercesc_3_1@@@xercesc_3_1@@QAEPAVDatatypeValidator@2@K@Z 1203e972 f i XMLElementDecl.obj
 0001:0003d9ac       ?get@?$ValueHashTableOf@GUStringHasher@xercesc_3_1@@@xercesc_3_1@@QAEAAGQBXQAVMemoryManager@2@@Z 1203e9ac f i IGXMLScanner2.obj
 0001:0003d9ef       ?elementAt@?$BaseRefVectorOf@VXMLAttr@xercesc_3_1@@@xercesc_3_1@@QBEPBVXMLAttr@2@K@Z 1203e9ef f i VecAttributesImpl.obj
 0001:0003d9ef       ?elementAt@?$BaseRefVectorOf@VKVStringPair@xercesc_3_1@@@xercesc_3_1@@QBEPBVKVStringPair@2@K@Z 1203e9ef f i IGXMLScanner2.obj
 0001:0003da1d       ?get@?$RefHash2KeysTableOf@V?$ValueVectorOf@PAVSchemaElementDecl@xercesc_3_1@@@xercesc_3_1@@UStringHasher@2@@xercesc_3_1@@QAEPAV?$ValueVectorOf@PAVSchemaElementDecl@xercesc_3_1@@@2@QBXH@Z 1203ea1d f i XTemplateSerializer.obj
 0001:0003da1d       ?get@?$RefHash2KeysTableOf@VSchemaAttDef@xercesc_3_1@@UStringHasher@2@@xercesc_3_1@@QAEPAVSchemaAttDef@2@QBXH@Z 1203ea1d f i XMLElementDecl.obj
 0001:0003da1d       ?get@?$RefHash2KeysTableOf@VSchemaInfo@xercesc_3_1@@UStringHasher@2@@xercesc_3_1@@QAEPAVSchemaInfo@2@QBXH@Z 1203ea1d f i IGXMLScanner2.obj
 0001:0003da3c       ??0?$RefHash2KeysTableOfEnumerator@VSchemaInfo@xercesc_3_1@@UStringHasher@2@@xercesc_3_1@@QAE@QAV?$RefHash2KeysTableOf@VSchemaInfo@xercesc_3_1@@UStringHasher@2@@1@_NQAVMemoryManager@1@@Z 1203ea3c f i IGXMLScanner2.obj
 0001:0003daa5       ??1?$RefHash2KeysTableOfEnumerator@VSchemaInfo@xercesc_3_1@@UStringHasher@2@@xercesc_3_1@@UAE@XZ 1203eaa5 f i IGXMLScanner2.obj
 0001:0003dade       ?nextElement@?$RefHash2KeysTableOfEnumerator@V?$ValueVectorOf@PAVSchemaElementDecl@xercesc_3_1@@@xercesc_3_1@@UStringHasher@2@@xercesc_3_1@@UAEAAV?$ValueVectorOf@PAVSchemaElementDecl@xercesc_3_1@@@2@XZ 1203eade f i XTemplateSerializer.obj
 0001:0003dade       ?nextElement@?$RefHash2KeysTableOfEnumerator@VSchemaInfo@xercesc_3_1@@UStringHasher@2@@xercesc_3_1@@UAEAAVSchemaInfo@2@XZ 1203eade f i IGXMLScanner2.obj
 0001:0003dade       ?nextElement@?$RefHash2KeysTableOfEnumerator@VSchemaAttDef@xercesc_3_1@@UStringHasher@2@@xercesc_3_1@@UAEAAVSchemaAttDef@2@XZ 1203eade f i XMLElementDecl.obj
 0001:0003db26       ??_E?$RefHash2KeysTableOfEnumerator@VSchemaInfo@xercesc_3_1@@UStringHasher@2@@xercesc_3_1@@UAEPAXI@Z 1203eb26 f i  CIL library: CIL module
 0001:0003db26       ??_G?$RefHash2KeysTableOfEnumerator@VSchemaInfo@xercesc_3_1@@UStringHasher@2@@xercesc_3_1@@UAEPAXI@Z 1203eb26 f i IGXMLScanner2.obj
 0001:0003db45       ??0?$ValueVectorOf@_N@xercesc_3_1@@QAE@KQAVMemoryManager@1@_N@Z 1203eb45 f i IGXMLScanner2.obj
 0001:0003db71       ?findNext@?$RefHash2KeysTableOfEnumerator@V?$ValueVectorOf@PAVSchemaElementDecl@xercesc_3_1@@@xercesc_3_1@@UStringHasher@2@@xercesc_3_1@@AAEXXZ 1203eb71 f i XTemplateSerializer.obj
 0001:0003db71       ?findNext@?$RefHash2KeysTableOfEnumerator@VSchemaAttDef@xercesc_3_1@@UStringHasher@2@@xercesc_3_1@@AAEXXZ 1203eb71 f i XMLElementDecl.obj
 0001:0003db71       ?findNext@?$RefHash2KeysTableOfEnumerator@VSchemaInfo@xercesc_3_1@@UStringHasher@2@@xercesc_3_1@@AAEXXZ 1203eb71 f i IGXMLScanner2.obj
 0001:0003dbff       ?allocate@MemoryManagerImpl@xercesc_3_1@@UAEPAXK@Z 1203ebff f   MemoryManagerImpl.obj
 0001:0003dc46       ?deallocate@MemoryManagerImpl@xercesc_3_1@@UAEXPAX@Z 1203ec46 f   MemoryManagerImpl.obj
 0001:0003dc5d       ??_EReaderMgr@xercesc_3_1@@UAEPAXI@Z 1203ec5d f i ReaderMgr.obj
 0001:0003dca8       ??0ReaderMgr@xercesc_3_1@@QAE@QAVMemoryManager@1@@Z 1203eca8 f   ReaderMgr.obj
 0001:0003dcde       ??1ReaderMgr@xercesc_3_1@@UAE@XZ 1203ecde f   ReaderMgr.obj
 0001:0003dd3a       ??_GXMLReader@xercesc_3_1@@QAEPAXI@Z 1203ed3a f i ReaderMgr.obj
 0001:0003dd55       ?isEmpty@ReaderMgr@xercesc_3_1@@QBE_NXZ 1203ed55 f   ReaderMgr.obj
 0001:0003dd61       ?getNextChar@ReaderMgr@xercesc_3_1@@QAE_WXZ 1203ed61 f   ReaderMgr.obj
 0001:0003dd9a       ?getSpaces@ReaderMgr@xercesc_3_1@@QAEXAAVXMLBuffer@2@@Z 1203ed9a f   ReaderMgr.obj
 0001:0003ddc7       ?getUpToCharOrWS@ReaderMgr@xercesc_3_1@@QAEXAAVXMLBuffer@2@_W@Z 1203edc7 f   ReaderMgr.obj
 0001:0003ddf7       ?peekNextChar@ReaderMgr@xercesc_3_1@@QAE_WXZ 1203edf7 f   ReaderMgr.obj
 0001:0003de30       ?skippedChar@ReaderMgr@xercesc_3_1@@QAE_N_W@Z 1203ee30 f   ReaderMgr.obj
 0001:0003de69       ?skippedSpace@ReaderMgr@xercesc_3_1@@QAE_NXZ 1203ee69 f   ReaderMgr.obj
 0001:0003de99       ?skipIfQuote@ReaderMgr@xercesc_3_1@@QAE_NAA_W@Z 1203ee99 f   ReaderMgr.obj
 0001:0003ded2       ?skipPastSpaces@ReaderMgr@xercesc_3_1@@QAEXAA_N_N@Z 1203eed2 f   ReaderMgr.obj
 0001:0003df02       ?skipPastSpaces@ReaderMgr@xercesc_3_1@@QAEXXZ 1203ef02 f   ReaderMgr.obj
 0001:0003df2b       ?skipQuotedString@ReaderMgr@xercesc_3_1@@QAEX_W@Z 1203ef2b f   ReaderMgr.obj
 0001:0003df4d       ?skipUntilIn@ReaderMgr@xercesc_3_1@@QAE_WQB_W@Z 1203ef4d f   ReaderMgr.obj
 0001:0003df85       ?skipUntilInOrWS@ReaderMgr@xercesc_3_1@@QAE_WQB_W@Z 1203ef85 f   ReaderMgr.obj
 0001:0003dfd1       ?atEOF@ReaderMgr@xercesc_3_1@@QBE_NXZ 1203efd1 f   ReaderMgr.obj
 0001:0003dfe8       ?cleanStackBackTo@ReaderMgr@xercesc_3_1@@QAEXK@Z 1203efe8 f   ReaderMgr.obj
 0001:0003e063       ?createReader@ReaderMgr@xercesc_3_1@@QAEPAVXMLReader@2@ABVInputSource@2@_NW4RefFrom@32@W4Types@32@W4Sources@32@1K@Z 1203f063 f   ReaderMgr.obj
 0001:0003e177       ?createReader@ReaderMgr@xercesc_3_1@@QAEPAVXMLReader@2@QB_W0_NW4RefFrom@32@W4Types@32@W4Sources@32@AAPAVInputSource@2@1K1@Z 1203f177 f   ReaderMgr.obj
 0001:0003e46c       ?createReader@ReaderMgr@xercesc_3_1@@QAEPAVXMLReader@2@QB_W00_NW4RefFrom@32@W4Types@32@W4Sources@32@AAPAVInputSource@2@1K1@Z 1203f46c f   ReaderMgr.obj
 0001:0003e75f       ?createIntEntReader@ReaderMgr@xercesc_3_1@@QAEPAVXMLReader@2@QB_WW4RefFrom@32@W4Types@32@0K_N3K@Z 1203f75f f   ReaderMgr.obj
 0001:0003e823       ?getCurrentEncodingStr@ReaderMgr@xercesc_3_1@@QBEPB_WXZ 1203f823 f   ReaderMgr.obj
 0001:0003e838       ?getReaderDepth@ReaderMgr@xercesc_3_1@@QBEKXZ 1203f838 f   ReaderMgr.obj
 0001:0003e84b       ?getLastExtEntityInfo@ReaderMgr@xercesc_3_1@@QBEXAAULastExtEntityInfo@12@@Z 1203f84b f   ReaderMgr.obj
 0001:0003e8bb       ?isScanningPERefOutOfLiteral@ReaderMgr@xercesc_3_1@@QBE_NXZ 1203f8bb f   ReaderMgr.obj
 0001:0003e8dc       ?pushReader@ReaderMgr@xercesc_3_1@@QAE_NQAVXMLReader@2@QAVXMLEntityDecl@2@@Z 1203f8dc f   ReaderMgr.obj
 0001:0003e9d8       ?reset@ReaderMgr@xercesc_3_1@@QAEXXZ 1203f9d8 f   ReaderMgr.obj
 0001:0003ea0e       ?getPublicId@ReaderMgr@xercesc_3_1@@UBEPB_WXZ 1203fa0e f   ReaderMgr.obj
 0001:0003ea36       ?getSystemId@ReaderMgr@xercesc_3_1@@UBEPB_WXZ 1203fa36 f   ReaderMgr.obj
 0001:0003ea5e       ?getColumnNumber@ReaderMgr@xercesc_3_1@@UBE_KXZ 1203fa5e f   ReaderMgr.obj
 0001:0003ea8d       ?getLineNumber@ReaderMgr@xercesc_3_1@@UBE_KXZ 1203fa8d f   ReaderMgr.obj
 0001:0003eabc       ?getLastExtEntity@ReaderMgr@xercesc_3_1@@ABEPBVXMLReader@2@AAPBVXMLEntityDecl@2@@Z 1203fabc f   ReaderMgr.obj
 0001:0003eb1f       ?popReader@ReaderMgr@xercesc_3_1@@AAE_NXZ 1203fb1f f   ReaderMgr.obj
 0001:0003ebf0       ??1?$BaseRefVectorOf@VXMLReader@xercesc_3_1@@@xercesc_3_1@@UAE@XZ 1203fbf0 f i ReaderMgr.obj
 0001:0003ebf7       ?setElementAt@?$BaseRefVectorOf@VXMLReader@xercesc_3_1@@@xercesc_3_1@@UAEXQAVXMLReader@2@K@Z 1203fbf7 f i ReaderMgr.obj
 0001:0003ec52       ?removeAllElements@?$BaseRefVectorOf@VXMLReader@xercesc_3_1@@@xercesc_3_1@@UAEXXZ 1203fc52 f i ReaderMgr.obj
 0001:0003ec87       ?removeElementAt@?$BaseRefVectorOf@VXMLReader@xercesc_3_1@@@xercesc_3_1@@UAEXK@Z 1203fc87 f i ReaderMgr.obj
 0001:0003ed15       ?removeLastElement@?$BaseRefVectorOf@VXMLReader@xercesc_3_1@@@xercesc_3_1@@UAEXXZ 1203fd15 f i ReaderMgr.obj
 0001:0003ed37       ?cleanup@?$BaseRefVectorOf@VXMLReader@xercesc_3_1@@@xercesc_3_1@@UAEXXZ 1203fd37 f i ReaderMgr.obj
 0001:0003ed6c       ??1?$RefVectorOf@VXMLReader@xercesc_3_1@@@xercesc_3_1@@UAE@XZ 1203fd6c f i ReaderMgr.obj
 0001:0003edc1       ??0?$RefStackOf@VXMLReader@xercesc_3_1@@@xercesc_3_1@@QAE@K_NQAVMemoryManager@1@@Z 1203fdc1 f i ReaderMgr.obj
 0001:0003ee01       ?elementAt@?$RefStackOf@VXMLReader@xercesc_3_1@@@xercesc_3_1@@QBEPBVXMLReader@2@K@Z 1203fe01 f i ReaderMgr.obj
 0001:0003ee38       ?pop@?$RefStackOf@VXMLReader@xercesc_3_1@@@xercesc_3_1@@QAEPAVXMLReader@2@XZ 1203fe38 f i ReaderMgr.obj
 0001:0003ee38       ?pop@?$RefStackOf@VXMLEntityDecl@xercesc_3_1@@@xercesc_3_1@@QAEPAVXMLEntityDecl@2@XZ 1203fe38 f i ReaderMgr.obj
 0001:0003ee70       ??1?$BaseRefVectorOf@VXMLEntityDecl@xercesc_3_1@@@xercesc_3_1@@UAE@XZ 1203fe70 f i ReaderMgr.obj
 0001:0003ee77       ??1?$RefVectorOf@VXMLEntityDecl@xercesc_3_1@@@xercesc_3_1@@UAE@XZ 1203fe77 f i ReaderMgr.obj
 0001:0003eecc       ??0?$RefStackOf@VXMLEntityDecl@xercesc_3_1@@@xercesc_3_1@@QAE@K_NQAVMemoryManager@1@@Z 1203fecc f i ReaderMgr.obj
 0001:0003ef0c       ?elementAt@?$RefStackOf@VXMLEntityDecl@xercesc_3_1@@@xercesc_3_1@@QBEPBVXMLEntityDecl@2@K@Z 1203ff0c f i ReaderMgr.obj
 0001:0003ef4a       ??_G?$BaseRefVectorOf@VXMLReader@xercesc_3_1@@@xercesc_3_1@@UAEPAXI@Z 1203ff4a f i ReaderMgr.obj
 0001:0003ef4a       ??_E?$BaseRefVectorOf@VXMLReader@xercesc_3_1@@@xercesc_3_1@@UAEPAXI@Z 1203ff4a f i  CIL library: CIL module
 0001:0003ef6a       ??_G?$RefVectorOf@VXMLReader@xercesc_3_1@@@xercesc_3_1@@UAEPAXI@Z 1203ff6a f i ReaderMgr.obj
 0001:0003ef6a       ??_E?$RefVectorOf@VXMLReader@xercesc_3_1@@@xercesc_3_1@@UAEPAXI@Z 1203ff6a f i  CIL library: CIL module
 0001:0003ef8a       ??_G?$BaseRefVectorOf@VXMLEntityDecl@xercesc_3_1@@@xercesc_3_1@@UAEPAXI@Z 1203ff8a f i ReaderMgr.obj
 0001:0003ef8a       ??_E?$BaseRefVectorOf@VXMLEntityDecl@xercesc_3_1@@@xercesc_3_1@@UAEPAXI@Z 1203ff8a f i  CIL library: CIL module
 0001:0003efaa       ??_E?$RefVectorOf@VXMLEntityDecl@xercesc_3_1@@@xercesc_3_1@@UAEPAXI@Z 1203ffaa f i  CIL library: CIL module
 0001:0003efaa       ??_G?$RefVectorOf@VXMLEntityDecl@xercesc_3_1@@@xercesc_3_1@@UAEPAXI@Z 1203ffaa f i ReaderMgr.obj
 0001:0003efca       ??_ESGXMLScanner@xercesc_3_1@@UAEPAXI@Z 1203ffca f i SGXMLScanner.obj
 0001:0003f018       ?getName@SGXMLScanner@xercesc_3_1@@UBEPB_WXZ 12040018 f i SGXMLScanner.obj
 0001:0003f01e       ?getCurrentGrammarType@SGXMLScanner@xercesc_3_1@@UBE?AW4GrammarType@Grammar@2@XZ 1204001e f i SGXMLScanner.obj
 0001:0003f01e       ?getCurrentGrammarType@IGXMLScanner@xercesc_3_1@@UBE?AW4GrammarType@Grammar@2@XZ 1204001e f i IGXMLScanner.obj
 0001:0003f025       ??0SGXMLScanner@xercesc_3_1@@QAE@QAVXMLValidator@1@QAVGrammarResolver@1@QAVMemoryManager@1@@Z 12040025 f   SGXMLScanner.obj
 0001:0003f122       ??0SGXMLScanner@xercesc_3_1@@QAE@QAVXMLDocumentHandler@1@QAVDocTypeHandler@1@QAVXMLEntityHandler@1@QAVXMLErrorReporter@1@QAVXMLValidator@1@QAVGrammarResolver@1@QAVMemoryManager@1@@Z 12040122 f   SGXMLScanner.obj
 0001:0003f22b       ??1SGXMLScanner@xercesc_3_1@@UAE@XZ 1204022b f   SGXMLScanner.obj
 0001:0003f274       ?scanDocument@SGXMLScanner@xercesc_3_1@@UAEXABVInputSource@2@@Z 12040274 f   SGXMLScanner.obj
 0001:0003f3a0       ?scanNext@SGXMLScanner@xercesc_3_1@@UAE_NAAVXMLPScanToken@2@@Z 120403a0 f   SGXMLScanner.obj
 0001:0003f601       ?rawAttrScan@SGXMLScanner@xercesc_3_1@@IAEKQB_WAAV?$RefVectorOf@VKVStringPair@xercesc_3_1@@@2@AA_N@Z 12040601 f   SGXMLScanner.obj
 0001:0003f992       ?scanContent@SGXMLScanner@xercesc_3_1@@AAE_NXZ 12040992 f   SGXMLScanner.obj
 0001:0003fb05       ?scanEndTag@SGXMLScanner@xercesc_3_1@@MAEXAA_N@Z 12040b05 f   SGXMLScanner.obj
 0001:0003ff2d       ?scanStartTag@SGXMLScanner@xercesc_3_1@@MAE_NAA_N@Z 12040f2d f   SGXMLScanner.obj
 0001:00040ba8       ?loadGrammar@SGXMLScanner@xercesc_3_1@@UAEPAVGrammar@2@ABVInputSource@2@F_N@Z 12041ba8 f   SGXMLScanner.obj
 0001:00040cc4       ?resetCachedGrammar@SGXMLScanner@xercesc_3_1@@UAEXXZ 12041cc4 f   SGXMLScanner.obj
 0001:00040cd2       ?commonInit@SGXMLScanner@xercesc_3_1@@AAEXXZ 12041cd2 f   SGXMLScanner.obj
 0001:00041029       ?cleanUp@SGXMLScanner@xercesc_3_1@@AAEXXZ 12042029 f   SGXMLScanner.obj
 0001:00041146       ?resizeElemState@IGXMLScanner@xercesc_3_1@@AAEXXZ 12042146 f   IGXMLScanner.obj
 0001:00041146       ?resizeElemState@SGXMLScanner@xercesc_3_1@@IAEXXZ 12042146 f   SGXMLScanner.obj
 0001:00041211       ?resizeRawAttrColonList@SGXMLScanner@xercesc_3_1@@IAEXXZ 12042211 f   SGXMLScanner.obj
 0001:0004127a       ?buildAttList@SGXMLScanner@xercesc_3_1@@IAEKABV?$RefVectorOf@VKVStringPair@xercesc_3_1@@@2@KPAVXMLElementDecl@2@AAV?$RefVectorOf@VXMLAttr@xercesc_3_1@@@2@@Z 1204227a f   SGXMLScanner.obj
 0001:00042085       ?normalizeAttValue@SGXMLScanner@xercesc_3_1@@AAE_NQBVXMLAttDef@2@QB_W1AAVXMLBuffer@2@@Z 12043085 f   SGXMLScanner.obj
 0001:0004227a       ?normalizeAttRawValue@IGXMLScanner@xercesc_3_1@@AAE_NQB_W0AAVXMLBuffer@2@@Z 1204327a f   IGXMLScanner2.obj
 0001:0004227a       ?normalizeAttRawValue@SGXMLScanner@xercesc_3_1@@AAE_NQB_W0AAVXMLBuffer@2@@Z 1204327a f   SGXMLScanner.obj
 0001:0004230d       ?scanReset@SGXMLScanner@xercesc_3_1@@MAEXABVInputSource@2@@Z 1204330d f   SGXMLScanner.obj
 0001:00042685       ?sendCharData@SGXMLScanner@xercesc_3_1@@EAEXAAVXMLBuffer@2@@Z 12043685 f   SGXMLScanner.obj
 0001:00042916       ?updateNSMap@IGXMLScanner@xercesc_3_1@@AAEXQB_W0@Z 12043916 f   IGXMLScanner2.obj
 0001:00042916       ?updateNSMap@SGXMLScanner@xercesc_3_1@@IAEXQB_W0@Z 12043916 f   SGXMLScanner.obj
 0001:0004293b       ?updateNSMap@SGXMLScanner@xercesc_3_1@@IAEXQB_W0H@Z 1204393b f   SGXMLScanner.obj
 0001:0004293b       ?updateNSMap@IGXMLScanner@xercesc_3_1@@AAEXQB_W0H@Z 1204393b f   IGXMLScanner2.obj
 0001:00042ac9       ?scanRawAttrListforNameSpaces@SGXMLScanner@xercesc_3_1@@AAEXK@Z 12043ac9 f   SGXMLScanner.obj
 0001:00042f45       ?parseSchemaLocation@SGXMLScanner@xercesc_3_1@@AAEXQB_W_N@Z 12043f45 f   SGXMLScanner.obj
 0001:00043049       ?resolveSchemaGrammar@SGXMLScanner@xercesc_3_1@@AAEXQB_W0_N@Z 12044049 f   SGXMLScanner.obj
 0001:000437e6       ?resolveSystemId@SGXMLScanner@xercesc_3_1@@EAEPAVInputSource@2@QB_W0@Z 120447e6 f   SGXMLScanner.obj
 0001:00043a9a       ?loadXMLSchemaGrammar@SGXMLScanner@xercesc_3_1@@AAEPAVGrammar@2@ABVInputSource@2@_N@Z 12044a9a f   SGXMLScanner.obj
 0001:00043da5       ?basicAttrValueScan@SGXMLScanner@xercesc_3_1@@AAE_NQB_WAAVXMLBuffer@2@@Z 12044da5 f   SGXMLScanner.obj
 0001:00043f7a       ?scanCDSection@SGXMLScanner@xercesc_3_1@@EAEXXZ 12044f7a f   SGXMLScanner.obj
 0001:000442dd       ?scanCharData@SGXMLScanner@xercesc_3_1@@EAEXAAVXMLBuffer@2@@Z 120452dd f   SGXMLScanner.obj
 0001:000445a1       ?scanEntityRef@SGXMLScanner@xercesc_3_1@@EAE?AW4EntityExpRes@XMLScanner@2@_NAA_W1AA_N@Z 120455a1 f   SGXMLScanner.obj
 0001:00044819       ?switchGrammar@SGXMLScanner@xercesc_3_1@@AAE_NQB_W@Z 12045819 f   SGXMLScanner.obj
 0001:0004489a       ?laxElementValidation@SGXMLScanner@xercesc_3_1@@IAE_NPAVQName@2@PAVContentLeafNameTypeVector@2@QBVXMLContentModel@2@K@Z 1204589a f   SGXMLScanner.obj
 0001:00044be2       ?endElementPSVI@SGXMLScanner@xercesc_3_1@@AAEXQAVSchemaElementDecl@2@QAVDatatypeValidator@2@@Z 12045be2 f   SGXMLScanner.obj
 0001:00044d73       ?resetPSVIElemContext@SGXMLScanner@xercesc_3_1@@AAEXXZ 12045d73 f   SGXMLScanner.obj
 0001:00044da4       ??0?$ValueHashTableOf@_WUStringHasher@xercesc_3_1@@@xercesc_3_1@@QAE@KQAVMemoryManager@1@@Z 12045da4 f i SGXMLScanner.obj
 0001:00044de6       ?get@?$ValueHashTableOf@_WUStringHasher@xercesc_3_1@@@xercesc_3_1@@QAEAA_WQBXQAVMemoryManager@2@@Z 12045de6 f i SGXMLScanner.obj
 0001:00044e2c       ?findBucketElem@?$ValueHashTableOf@_WUStringHasher@xercesc_3_1@@@xercesc_3_1@@AAEPAU?$ValueHashTableBucketElem@_W@2@QBXAAK@Z 12045e2c f i SGXMLScanner.obj
 0001:00044e2c       ?findBucketElem@?$ValueHashTableOf@IUStringHasher@xercesc_3_1@@@xercesc_3_1@@AAEPAU?$ValueHashTableBucketElem@I@2@QBXAAK@Z 12045e2c f i DOMLSParserImpl.obj
 0001:00044e2c       ?findBucketElem@?$ValueHashTableOf@W4DataType@XSValue@xercesc_3_1@@UStringHasher@3@@xercesc_3_1@@AAEPAU?$ValueHashTableBucketElem@W4DataType@XSValue@xercesc_3_1@@@2@QBXAAK@Z 12045e2c f i XSValue.obj
 0001:00044e2c       ?findBucketElem@?$ValueHashTableOf@GUStringHasher@xercesc_3_1@@@xercesc_3_1@@AAEPAU?$ValueHashTableBucketElem@G@2@QBXAAK@Z 12045e2c f i IGXMLScanner2.obj
 0001:00044e6f       ??_FValidationContextImpl@xercesc_3_1@@QAEXXZ 12045e6f f i ValidationContextImpl.obj
 0001:00044e7b       ??_EValidationContextImpl@xercesc_3_1@@UAEPAXI@Z 12045e7b f i ValidationContextImpl.obj
 0001:00044ec6       ??0InvalidDatatypeValueException@xercesc_3_1@@QAE@QBD_KW4Codes@XMLExcepts@1@PAVMemoryManager@1@@Z 12045ec6 f i ValidationContextImpl.obj
 0001:00044f06       ??0InvalidDatatypeValueException@xercesc_3_1@@QAE@ABV01@@Z 12045f06 f i ValidationContextImpl.obj
 0001:00044f21       ??0InvalidDatatypeValueException@xercesc_3_1@@QAE@QBD_KW4Codes@XMLExcepts@1@QB_W333PAVMemoryManager@1@@Z 12045f21 f i ValidationContextImpl.obj
 0001:00044f6d       ??0InvalidDatatypeValueException@xercesc_3_1@@QAE@QBD_KW4Codes@XMLExcepts@1@0000PAVMemoryManager@1@@Z 12045f6d f i ValidationContextImpl.obj
 0001:00044fb9       ??1InvalidDatatypeValueException@xercesc_3_1@@UAE@XZ 12045fb9 f i ValidationContextImpl.obj
 0001:00044fc4       ?duplicate@InvalidDatatypeValueException@xercesc_3_1@@UBEPAVXMLException@2@XZ 12045fc4 f i ValidationContextImpl.obj
 0001:00045005       ?getType@InvalidDatatypeValueException@xercesc_3_1@@UBEPB_WXZ 12046005 f i ValidationContextImpl.obj
 0001:0004500b       ??_EInvalidDatatypeValueException@xercesc_3_1@@UAEPAXI@Z 1204600b f i ValidationContextImpl.obj
 0001:0004505c       ??1ValidationContextImpl@xercesc_3_1@@UAE@XZ 1204605c f   ValidationContextImpl.obj
 0001:0004508f       ??0ValidationContextImpl@xercesc_3_1@@QAE@QAVMemoryManager@1@@Z 1204608f f   ValidationContextImpl.obj
 0001:0004510d       ?setIdRefList@ValidationContextImpl@xercesc_3_1@@UAEXQAV?$RefHashTableOf@VXMLRefInfo@xercesc_3_1@@UStringHasher@2@@2@@Z 1204610d f   ValidationContextImpl.obj
 0001:0004512a       ?clearIdRefList@ValidationContextImpl@xercesc_3_1@@UAEXXZ 1204612a f   ValidationContextImpl.obj
 0001:00045139       ?addId@ValidationContextImpl@xercesc_3_1@@UAEXQB_W@Z 12046139 f   ValidationContextImpl.obj
 0001:00045205       ?addIdRef@ValidationContextImpl@xercesc_3_1@@UAEXQB_W@Z 12046205 f   ValidationContextImpl.obj
 0001:00045279       ?setEntityDeclPool@ValidationContextImpl@xercesc_3_1@@UAEPBV?$NameIdPool@VDTDEntityDecl@xercesc_3_1@@@2@QBV32@@Z 12046279 f   ValidationContextImpl.obj
 0001:00045289       ?checkEntity@ValidationContextImpl@xercesc_3_1@@UBEXQB_W@Z 12046289 f   ValidationContextImpl.obj
 0001:00045395       ?isPrefixUnknown@ValidationContextImpl@xercesc_3_1@@UAE_NPA_W@Z 12046395 f   ValidationContextImpl.obj
 0001:00045403       ?getURIForPrefix@ValidationContextImpl@xercesc_3_1@@UAEPB_WPA_W@Z 12046403 f   ValidationContextImpl.obj
 0001:00045459       ?put@?$RefHashTableOf@VXercesGroupInfo@xercesc_3_1@@UStringHasher@2@@xercesc_3_1@@QAEXPAXQAVXercesGroupInfo@2@@Z 12046459 f i XTemplateSerializer.obj
 0001:00045459       ?put@?$RefHashTableOf@VDTDEntityDecl@xercesc_3_1@@UStringHasher@2@@xercesc_3_1@@QAEXPAXQAVDTDEntityDecl@2@@Z 12046459 f i XMLGrammarPoolImpl.obj
 0001:00045459       ?put@?$RefHashTableOf@VXMLAttDef@xercesc_3_1@@UStringHasher@2@@xercesc_3_1@@QAEXPAXQAVXMLAttDef@2@@Z 12046459 f i XTemplateSerializer.obj
 0001:00045459       ?put@?$RefHashTableOf@VXMLElementDecl@xercesc_3_1@@UStringHasher@2@@xercesc_3_1@@QAEXPAXQAVXMLElementDecl@2@@Z 12046459 f i WFXMLScanner.obj
 0001:00045459       ?put@?$RefHashTableOf@VComplexTypeInfo@xercesc_3_1@@UStringHasher@2@@xercesc_3_1@@QAEXPAXQAVComplexTypeInfo@2@@Z 12046459 f i XTemplateSerializer.obj
 0001:00045459       ?put@?$RefHashTableOf@VXercesAttGroupInfo@xercesc_3_1@@UStringHasher@2@@xercesc_3_1@@QAEXPAXQAVXercesAttGroupInfo@2@@Z 12046459 f i XTemplateSerializer.obj
 0001:00045459       ?put@?$RefHashTableOf@VXMLNotationDecl@xercesc_3_1@@UStringHasher@2@@xercesc_3_1@@QAEXPAXQAVXMLNotationDecl@2@@Z 12046459 f i XMLGrammarPoolImpl.obj
 0001:00045459       ?put@?$RefHashTableOf@VDatatypeValidator@xercesc_3_1@@UStringHasher@2@@xercesc_3_1@@QAEXPAXQAVDatatypeValidator@2@@Z 12046459 f i XTemplateSerializer.obj
 0001:00045459       ?put@?$RefHashTableOf@VKVStringPair@xercesc_3_1@@UStringHasher@2@@xercesc_3_1@@QAEXPAXQAVKVStringPair@2@@Z 12046459 f i XTemplateSerializer.obj
 0001:00045459       ?put@?$RefHashTableOf@VGrammar@xercesc_3_1@@UStringHasher@2@@xercesc_3_1@@QAEXPAXQAVGrammar@2@@Z 12046459 f i XMLGrammarPoolImpl.obj
 0001:00045459       ?put@?$RefHashTableOf@VXMLRefInfo@xercesc_3_1@@UStringHasher@2@@xercesc_3_1@@QAEXPAXQAVXMLRefInfo@2@@Z 12046459 f i ValidationContextImpl.obj
 0001:00045459       ?put@?$RefHashTableOf@VRangeFactory@xercesc_3_1@@UStringHasher@2@@xercesc_3_1@@QAEXPAXQAVRangeFactory@2@@Z 12046459 f i RangeTokenMap.obj
 0001:00045459       ?put@?$RefHashTableOf@VDTDAttDef@xercesc_3_1@@UStringHasher@2@@xercesc_3_1@@QAEXPAXQAVDTDAttDef@2@@Z 12046459 f i XTemplateSerializer.obj
 0001:00045459       ?put@?$RefHashTableOf@VDTDElementDecl@xercesc_3_1@@UStringHasher@2@@xercesc_3_1@@QAEXPAXQAVDTDElementDecl@2@@Z 12046459 f i XMLGrammarPoolImpl.obj
 0001:00045459       ?put@?$RefHashTableOf@VDOMElement@xercesc_3_1@@UStringHasher@2@@xercesc_3_1@@QAEXPAXQAVDOMElement@2@@Z 12046459 f i SchemaInfo.obj
 0001:000454d8       ??0Attributes@xercesc_3_1@@QAE@XZ 120464d8 f i VecAttributesImpl.obj
 0001:000454e1       ??1Attributes@xercesc_3_1@@UAE@XZ 120464e1 f i VecAttributesImpl.obj
 0001:000454e8       ??_EAttributes@xercesc_3_1@@UAEPAXI@Z 120464e8 f i VecAttributesImpl.obj
 0001:00045535       ??_EVecAttributesImpl@xercesc_3_1@@UAEPAXI@Z 12046535 f i VecAttributesImpl.obj
 0001:00045581       ??0VecAttributesImpl@xercesc_3_1@@QAE@XZ 12046581 f   VecAttributesImpl.obj
 0001:00045598       ??1VecAttributesImpl@xercesc_3_1@@UAE@XZ 12046598 f   VecAttributesImpl.obj
 0001:000455d2       ?getURI@VecAttributesImpl@xercesc_3_1@@UBEPB_WK@Z 120465d2 f   VecAttributesImpl.obj
 0001:0004560c       ?getLocalName@VecAttributesImpl@xercesc_3_1@@UBEPB_WK@Z 1204660c f   VecAttributesImpl.obj
 0001:0004563a       ?getName@VecAttrListImpl@xercesc_3_1@@UBEPB_WK@Z 1204663a f   VecAttrListImpl.obj
 0001:0004563a       ?getQName@VecAttributesImpl@xercesc_3_1@@UBEPB_WK@Z 1204663a f   VecAttributesImpl.obj
 0001:0004566a       ?getIndex@VecAttributesImpl@xercesc_3_1@@UBE_NQB_W0AAK@Z 1204666a f   VecAttributesImpl.obj
 0001:00045756       ?getIndex@VecAttributesImpl@xercesc_3_1@@UBEHQB_W0@Z 12046756 f   VecAttributesImpl.obj
 0001:00045835       ?getIndex@VecAttributesImpl@xercesc_3_1@@UBE_NQB_WAAK@Z 12046835 f   VecAttributesImpl.obj
 0001:00045890       ?getIndex@VecAttributesImpl@xercesc_3_1@@UBEHQB_W@Z 12046890 f   VecAttributesImpl.obj
 0001:000458e2       ?getType@VecAttributesImpl@xercesc_3_1@@UBEPB_WQB_W0@Z 120468e2 f   VecAttributesImpl.obj
 0001:00045910       ?getType@VecAttributesImpl@xercesc_3_1@@UBEPB_WQB_W@Z 12046910 f   VecAttributesImpl.obj
 0001:0004593b       ?getValue@VecAttributesImpl@xercesc_3_1@@UBEPB_WQB_W0@Z 1204693b f   VecAttributesImpl.obj
 0001:00045969       ?getValue@VecAttributesImpl@xercesc_3_1@@UBEPB_WQB_W@Z 12046969 f   VecAttributesImpl.obj
 0001:00045994       ?setVector@VecAttributesImpl@xercesc_3_1@@QAEXQBV?$RefVectorOf@VXMLAttr@xercesc_3_1@@@2@KQBVXMLScanner@2@_N@Z 12046994 f   VecAttributesImpl.obj
 0001:000459ca       ??0AttributeList@xercesc_3_1@@QAE@XZ 120469ca f i VecAttrListImpl.obj
 0001:000459d3       ??1AttributeList@xercesc_3_1@@UAE@XZ 120469d3 f i VecAttrListImpl.obj
 0001:000459da       ??_EAttributeList@xercesc_3_1@@UAEPAXI@Z 120469da f i VecAttrListImpl.obj
 0001:00045a27       ??_EVecAttrListImpl@xercesc_3_1@@UAEPAXI@Z 12046a27 f i VecAttrListImpl.obj
 0001:00045a72       ??0VecAttrListImpl@xercesc_3_1@@QAE@XZ 12046a72 f   VecAttrListImpl.obj
 0001:00045a86       ??1VecAttrListImpl@xercesc_3_1@@UAE@XZ 12046a86 f   VecAttrListImpl.obj
 0001:00045ac0       ?getType@VecAttributesImpl@xercesc_3_1@@UBEPB_WK@Z 12046ac0 f   VecAttributesImpl.obj
 0001:00045ac0       ?getType@VecAttrListImpl@xercesc_3_1@@UBEPB_WK@Z 12046ac0 f   VecAttrListImpl.obj
 0001:00045b29       ?getValue@VecAttrListImpl@xercesc_3_1@@UBEPB_WK@Z 12046b29 f   VecAttrListImpl.obj
 0001:00045b29       ?getValue@VecAttributesImpl@xercesc_3_1@@UBEPB_WK@Z 12046b29 f   VecAttributesImpl.obj
 0001:00045b54       ?getType@VecAttrListImpl@xercesc_3_1@@UBEPB_WQB_W@Z 12046b54 f   VecAttrListImpl.obj
 0001:00045be4       ?getValue@VecAttrListImpl@xercesc_3_1@@UBEPB_WQB_W@Z 12046be4 f   VecAttrListImpl.obj
 0001:00045c3b       ?getValue@VecAttrListImpl@xercesc_3_1@@UBEPB_WQBD@Z 12046c3b f   VecAttrListImpl.obj
 0001:00045cf6       ?setVector@VecAttrListImpl@xercesc_3_1@@QAEXQBV?$RefVectorOf@VXMLAttr@xercesc_3_1@@@2@K_N@Z 12046cf6 f   VecAttrListImpl.obj
 0001:00045d26       ??_EWFXMLScanner@xercesc_3_1@@UAEPAXI@Z 12046d26 f i WFXMLScanner.obj
 0001:00045d74       ?getName@WFXMLScanner@xercesc_3_1@@UBEPB_WXZ 12046d74 f i WFXMLScanner.obj
 0001:00045d7a       ??0WFXMLScanner@xercesc_3_1@@QAE@QAVXMLValidator@1@QAVGrammarResolver@1@QAVMemoryManager@1@@Z 12046d7a f   WFXMLScanner.obj
 0001:00045df8       ??0WFXMLScanner@xercesc_3_1@@QAE@QAVXMLDocumentHandler@1@QAVDocTypeHandler@1@QAVXMLEntityHandler@1@QAVXMLErrorReporter@1@QAVXMLValidator@1@QAVGrammarResolver@1@QAVMemoryManager@1@@Z 12046df8 f   WFXMLScanner.obj
 0001:00045e82       ??1WFXMLScanner@xercesc_3_1@@UAE@XZ 12046e82 f   WFXMLScanner.obj
 0001:00045eb3       ?scanDocument@WFXMLScanner@xercesc_3_1@@UAEXABVInputSource@2@@Z 12046eb3 f   WFXMLScanner.obj
 0001:00045fd3       ?scanNext@WFXMLScanner@xercesc_3_1@@UAE_NAAVXMLPScanToken@2@@Z 12046fd3 f   WFXMLScanner.obj
 0001:00046238       ?commonInit@WFXMLScanner@xercesc_3_1@@AAEXXZ 12047238 f   WFXMLScanner.obj
 0001:00046403       ?cleanUp@WFXMLScanner@xercesc_3_1@@AAEXXZ 12047403 f   WFXMLScanner.obj
 0001:00046485       ?scanReset@WFXMLScanner@xercesc_3_1@@EAEXABVInputSource@2@@Z 12047485 f   WFXMLScanner.obj
 0001:00046610       ?sendCharData@WFXMLScanner@xercesc_3_1@@EAEXAAVXMLBuffer@2@@Z 12047610 f   WFXMLScanner.obj
 0001:00046643       ?scanContent@WFXMLScanner@xercesc_3_1@@AAE_NXZ 12047643 f   WFXMLScanner.obj
 0001:000467c2       ?scanEndTag@WFXMLScanner@xercesc_3_1@@AAEXAA_N@Z 120477c2 f   WFXMLScanner.obj
 0001:0004693e       ?scanDocTypeDecl@SGXMLScanner@xercesc_3_1@@EAEXXZ 1204793e f   SGXMLScanner.obj
 0001:0004693e       ?scanDocTypeDecl@WFXMLScanner@xercesc_3_1@@EAEXXZ 1204793e f   WFXMLScanner.obj
 0001:00046981       ?scanStartTag@WFXMLScanner@xercesc_3_1@@AAE_NAA_N@Z 12047981 f   WFXMLScanner.obj
 0001:00046efd       ?scanStartTagNS@WFXMLScanner@xercesc_3_1@@AAE_NAA_N@Z 12047efd f   WFXMLScanner.obj
 0001:000477e3       ?scanAttValue@WFXMLScanner@xercesc_3_1@@AAE_NQB_WAAVXMLBuffer@2@@Z 120487e3 f   WFXMLScanner.obj
 0001:000479ed       ?scanCDSection@WFXMLScanner@xercesc_3_1@@EAEXXZ 120489ed f   WFXMLScanner.obj
 0001:00047c1c       ?scanCharData@WFXMLScanner@xercesc_3_1@@EAEXAAVXMLBuffer@2@@Z 12048c1c f   WFXMLScanner.obj
 0001:00047e7e       ?scanEntityRef@WFXMLScanner@xercesc_3_1@@EAE?AW4EntityExpRes@XMLScanner@2@_NAA_W1AA_N@Z 12048e7e f   WFXMLScanner.obj
 0001:000480be       ?loadGrammar@WFXMLScanner@xercesc_3_1@@UAEPAVGrammar@2@ABVInputSource@2@F_N@Z 120490be f   WFXMLScanner.obj
 0001:000480c3       ?addElement@?$ValueVectorOf@PAVDOMNode@xercesc_3_1@@@xercesc_3_1@@QAEXABQAVDOMNode@2@@Z 120490c3 f i GeneralAttributeCheck.obj
 0001:000480c3       ?addElement@?$ValueVectorOf@PA_W@xercesc_3_1@@QAEXABQA_W@Z 120490c3 f i IGXMLScanner.obj
 0001:000480c3       ?addElement@?$ValueVectorOf@PB_W@xercesc_3_1@@QAEXABQB_W@Z 120490c3 f i IGXMLScanner.obj
 0001:000480c3       ?addElement@?$ValueVectorOf@H@xercesc_3_1@@QAEXABH@Z 120490c3 f i XMLGrammarPoolImpl.obj
 0001:000480c3       ?addElement@?$ValueVectorOf@K@xercesc_3_1@@QAEXABK@Z 120490c3 f i WFXMLScanner.obj
 0001:000480c3       ?addElement@?$ValueVectorOf@PAVDOMElement@xercesc_3_1@@@xercesc_3_1@@QAEXABQAVDOMElement@2@@Z 120490c3 f i TraverseSchema.obj
 0001:000480c3       ?addElement@?$ValueVectorOf@PAVComplexTypeInfo@xercesc_3_1@@@xercesc_3_1@@QAEXABQAVComplexTypeInfo@2@@Z 120490c3 f i SchemaValidator.obj
 0001:000480c3       ?addElement@?$ValueVectorOf@PAUPrefMapElem@xercesc_3_1@@@xercesc_3_1@@QAEXABQAUPrefMapElem@2@@Z 120490c3 f i ElemStack.obj
 0001:000480c3       ?addElement@?$ValueVectorOf@PAVSchemaGrammar@xercesc_3_1@@@xercesc_3_1@@QAEXABQAVSchemaGrammar@2@@Z 120490c3 f i GrammarResolver.obj
 0001:000480c3       ?addElement@?$ValueVectorOf@PAVContentSpecNode@xercesc_3_1@@@xercesc_3_1@@QAEXABQAVContentSpecNode@2@@Z 120490c3 f i SchemaValidator.obj
 0001:000480c3       ?addElement@?$ValueVectorOf@PAVIC_Field@xercesc_3_1@@@xercesc_3_1@@QAEXABQAVIC_Field@2@@Z 120490c3 f i IGXMLScanner2.obj
 0001:000480c3       ?addElement@?$ValueVectorOf@PAVXMLAttr@xercesc_3_1@@@xercesc_3_1@@QAEXABQAVXMLAttr@2@@Z 120490c3 f i DGXMLScanner.obj
 0001:000480c3       ?addElement@?$ValueVectorOf@I@xercesc_3_1@@QAEXABI@Z 120490c3 f i XTemplateSerializer.obj
 0001:000480c3       ?addElement@?$ValueVectorOf@PAVDatatypeValidator@xercesc_3_1@@@xercesc_3_1@@QAEXABQAVDatatypeValidator@2@@Z 120490c3 f i IGXMLScanner2.obj
 0001:000480c3       ?addElement@?$ValueVectorOf@PAX@xercesc_3_1@@QAEXABQAX@Z 120490c3 f i XSerializeEngine.obj
 0001:000480c3       ?addElement@?$ValueVectorOf@PAVSchemaElementDecl@xercesc_3_1@@@xercesc_3_1@@QAEXABQAVSchemaElementDecl@2@@Z 120490c3 f i XTemplateSerializer.obj
 0001:000480c3       ?addElement@?$ValueVectorOf@PBVDOMElement@xercesc_3_1@@@xercesc_3_1@@QAEXABQBVDOMElement@2@@Z 120490c3 f i IGXMLScanner.obj
 0001:000480c3       ?addElement@?$ValueVectorOf@PAVXercesAttGroupInfo@xercesc_3_1@@@xercesc_3_1@@QAEXABQAVXercesAttGroupInfo@2@@Z 120490c3 f i TraverseSchema.obj
 0001:000480c3       ?addElement@?$ValueVectorOf@PAVQName@xercesc_3_1@@@xercesc_3_1@@QAEXABQAVQName@2@@Z 120490c3 f i AllContentModel.obj
 0001:00048143       ?setElementAt@?$ValueVectorOf@K@xercesc_3_1@@QAEXABKK@Z 12049143 f i WFXMLScanner.obj
 0001:0004816e       ??1?$BaseRefVectorOf@VXMLElementDecl@xercesc_3_1@@@xercesc_3_1@@UAE@XZ 1204916e f i WFXMLScanner.obj
 0001:00048175       ??0?$RefVectorOf@VXMLElementDecl@xercesc_3_1@@@xercesc_3_1@@QAE@K_NQAVMemoryManager@1@@Z 12049175 f i WFXMLScanner.obj
 0001:000481ba       ?removeAll@?$RefHashTableOf@VDTDElementDecl@xercesc_3_1@@UStringHasher@2@@xercesc_3_1@@QAEXXZ 120491ba f i XMLGrammarPoolImpl.obj
 0001:000481ba       ?removeAll@?$RefHashTableOf@VXMLNotationDecl@xercesc_3_1@@UStringHasher@2@@xercesc_3_1@@QAEXXZ 120491ba f i XTemplateSerializer.obj
 0001:000481ba       ?removeAll@?$RefHashTableOf@VXMLRefInfo@xercesc_3_1@@UStringHasher@2@@xercesc_3_1@@QAEXXZ 120491ba f i ValidationContextImpl.obj
 0001:000481ba       ?removeAll@?$RefHashTableOf@VDTDEntityDecl@xercesc_3_1@@UStringHasher@2@@xercesc_3_1@@QAEXXZ 120491ba f i XTemplateSerializer.obj
 0001:000481ba       ?removeAll@?$RefHashTableOf@VDatatypeValidator@xercesc_3_1@@UStringHasher@2@@xercesc_3_1@@QAEXXZ 120491ba f i XMLGrammarPoolImpl.obj
 0001:000481ba       ?removeAll@?$RefHashTableOf@VGrammar@xercesc_3_1@@UStringHasher@2@@xercesc_3_1@@QAEXXZ 120491ba f i XMLGrammarPoolImpl.obj
 0001:000481ba       ?removeAll@?$RefHashTableOf@VXSAnnotation@xercesc_3_1@@UPtrHasher@2@@xercesc_3_1@@QAEXXZ 120491ba f i XTemplateSerializer.obj
 0001:000481ba       ?removeAll@?$RefHashTableOf@VXMLElementDecl@xercesc_3_1@@UStringHasher@2@@xercesc_3_1@@QAEXXZ 120491ba f i WFXMLScanner.obj
 0001:00048210       ??_G?$BaseRefVectorOf@VXMLElementDecl@xercesc_3_1@@@xercesc_3_1@@UAEPAXI@Z 12049210 f i WFXMLScanner.obj
 0001:00048210       ??_E?$BaseRefVectorOf@VXMLElementDecl@xercesc_3_1@@@xercesc_3_1@@UAEPAXI@Z 12049210 f i  CIL library: CIL module
 0001:00048230       ??_G?$RefVectorOf@VXMLElementDecl@xercesc_3_1@@@xercesc_3_1@@UAEPAXI@Z 12049230 f i WFXMLScanner.obj
 0001:00048230       ??_E?$RefVectorOf@VXMLElementDecl@xercesc_3_1@@@xercesc_3_1@@UAEPAXI@Z 12049230 f i  CIL library: CIL module
 0001:0004829a       ?isAllSpaces@XMLReader@xercesc_3_1@@QBE_NQB_WK@Z 1204929a f   XMLReader.obj
 0001:000482ce       ?containsWhiteSpace@XMLReader@xercesc_3_1@@QBE_NQB_WK@Z 120492ce f   XMLReader.obj
 0001:00048302       ?isPublicIdChar@XMLReader@xercesc_3_1@@QBE_N_W@Z 12049302 f   XMLReader.obj
 0001:00048325       ??0XMLReader@xercesc_3_1@@QAE@QB_W0QAVBinInputStream@1@W4RefFrom@01@W4Types@01@W4Sources@01@_N5KW4XMLVersion@01@QAVMemoryManager@1@@Z 12049325 f   XMLReader.obj
 0001:00048476       ??0XMLReader@xercesc_3_1@@QAE@QB_W0QAVBinInputStream@1@0W4RefFrom@01@W4Types@01@W4Sources@01@_N5KW4XMLVersion@01@QAVMemoryManager@1@@Z 12049476 f   XMLReader.obj
 0001:000487d1       ??0XMLReader@xercesc_3_1@@QAE@QB_W0QAVBinInputStream@1@W4Encodings@XMLRecognizer@1@W4RefFrom@01@W4Types@01@W4Sources@01@_N6KW4XMLVersion@01@QAVMemoryManager@1@@Z 120497d1 f   XMLReader.obj
 0001:00048a2f       ??1XMLReader@xercesc_3_1@@QAE@XZ 12049a2f f   XMLReader.obj
 0001:00048a87       ?getSrcOffset@XMLReader@xercesc_3_1@@QBE_KXZ 12049a87 f   XMLReader.obj
 0001:00048b24       ?refreshCharBuffer@XMLReader@xercesc_3_1@@QAE_NXZ 12049b24 f   XMLReader.obj
 0001:00048d61       ?getName@XMLReader@xercesc_3_1@@QAE_NAAVXMLBuffer@2@_N@Z 12049d61 f   XMLReader.obj
 0001:00048ec6       ?getNCName@XMLReader@xercesc_3_1@@QAE_NAAVXMLBuffer@2@@Z 12049ec6 f   XMLReader.obj
 0001:00049046       ?getQName@XMLReader@xercesc_3_1@@QAE_NAAVXMLBuffer@2@PAH@Z 1204a046 f   XMLReader.obj
 0001:000490b3       ?getSpaces@XMLReader@xercesc_3_1@@QAE_NAAVXMLBuffer@2@@Z 1204a0b3 f   XMLReader.obj
 0001:0004912e       ?getUpToCharOrWS@XMLReader@xercesc_3_1@@QAE_NAAVXMLBuffer@2@_W@Z 1204a12e f   XMLReader.obj
 0001:000491b3       ?skipIfQuote@XMLReader@xercesc_3_1@@QAE_NAA_W@Z 1204a1b3 f   XMLReader.obj
 0001:000491fe       ?skipSpaces@XMLReader@xercesc_3_1@@QAE_NAA_N_N@Z 1204a1fe f   XMLReader.obj
 0001:00049273       ?skippedChar@XMLReader@xercesc_3_1@@QAE_N_W@Z 1204a273 f   XMLReader.obj
 0001:000492b5       ?skippedSpace@XMLReader@xercesc_3_1@@QAE_NXZ 1204a2b5 f   XMLReader.obj
 0001:00049320       ?skippedString@XMLReader@xercesc_3_1@@QAE_NQB_W@Z 1204a320 f   XMLReader.obj
 0001:00049398       ?skippedStringLong@XMLReader@xercesc_3_1@@QAE_NPB_W@Z 1204a398 f   XMLReader.obj
 0001:00049441       ?peekString@XMLReader@xercesc_3_1@@QAE_NQB_W@Z 1204a441 f   XMLReader.obj
 0001:000494a7       ?setEncoding@XMLReader@xercesc_3_1@@QAE_NQB_W@Z 1204a4a7 f   XMLReader.obj
 0001:00049796       ?checkForSwapped@XMLReader@xercesc_3_1@@AAEXXZ 1204a796 f   XMLReader.obj
 0001:000497c8       ?doInitDecode@XMLReader@xercesc_3_1@@AAEXXZ 1204a7c8 f   XMLReader.obj
 0001:0004a108       ?refreshRawBuffer@XMLReader@xercesc_3_1@@AAEXXZ 1204b108 f   XMLReader.obj
 0001:0004a1ca       ?xcodeMoreChars@XMLReader@xercesc_3_1@@AAEKQA_WQAEK@Z 1204b1ca f   XMLReader.obj
 0001:0004a264       ?handleEOL@XMLReader@xercesc_3_1@@AAEXAA_W_N@Z 1204b264 f   XMLReader.obj
 0001:0004a3f2       ?errorType@XMLErrs@xercesc_3_1@@SA?AW4ErrTypes@XMLErrorReporter@2@W4Codes@12@@Z 1204b3f2 f i XMLScanner.obj
 0001:0004a420       ??_EXMLScanner@xercesc_3_1@@UAEPAXI@Z 1204b420 f i XMLScanner.obj
 0001:0004a46e       ?initializeXMLScanner@XMLInitializer@xercesc_3_1@@CAXXZ 1204b46e f   XMLScanner.obj
 0001:0004a4c5       ?terminateXMLScanner@XMLInitializer@xercesc_3_1@@CAXXZ 1204b4c5 f   XMLScanner.obj
 0001:0004a4fe       ??0XMLScanner@xercesc_3_1@@QAE@QAVXMLValidator@1@QAVGrammarResolver@1@QAVMemoryManager@1@@Z 1204b4fe f   XMLScanner.obj
 0001:0004a6e2       ??0XMLScanner@xercesc_3_1@@QAE@QAVXMLDocumentHandler@1@QAVDocTypeHandler@1@QAVXMLEntityHandler@1@QAVXMLErrorReporter@1@QAVXMLValidator@1@QAVGrammarResolver@1@QAVMemoryManager@1@@Z 1204b6e2 f   XMLScanner.obj
 0001:0004a8d2       ??1XMLScanner@xercesc_3_1@@UAE@XZ 1204b8d2 f   XMLScanner.obj
 0001:0004a9c1       ?setValidator@XMLScanner@xercesc_3_1@@QAEXQAVXMLValidator@2@@Z 1204b9c1 f   XMLScanner.obj
 0001:0004a9f7       ?scanDocument@XMLScanner@xercesc_3_1@@QAEXQB_W@Z 1204b9f7 f   XMLScanner.obj
 0001:0004abf8       ?scanDocument@XMLScanner@xercesc_3_1@@QAEXQBD@Z 1204bbf8 f   XMLScanner.obj
 0001:0004ac42       ?scanFirst@XMLScanner@xercesc_3_1@@QAE_NQB_WAAVXMLPScanToken@2@@Z 1204bc42 f   XMLScanner.obj
 0001:0004ae85       ?scanFirst@XMLScanner@xercesc_3_1@@QAE_NQBDAAVXMLPScanToken@2@@Z 1204be85 f   XMLScanner.obj
 0001:0004aed6       ?scanFirst@XMLScanner@xercesc_3_1@@QAE_NABVInputSource@2@AAVXMLPScanToken@2@@Z 1204bed6 f   XMLScanner.obj
 0001:0004afec       ?scanReset@XMLScanner@xercesc_3_1@@QAEXAAVXMLPScanToken@2@@Z 1204bfec f   XMLScanner.obj
 0001:0004b042       ?setParseSettings@XMLScanner@xercesc_3_1@@QAEXQAV12@@Z 1204c042 f   XMLScanner.obj
 0001:0004b10a       ?commonInit@XMLScanner@xercesc_3_1@@AAEXXZ 1204c10a f   XMLScanner.obj
 0001:0004b240       ?cleanUp@XMLScanner@xercesc_3_1@@AAEXXZ 1204c240 f   XMLScanner.obj
 0001:0004b2e5       ?initValidator@XMLScanner@xercesc_3_1@@IAEXPAVXMLValidator@2@@Z 1204c2e5 f   XMLScanner.obj
 0001:0004b30a       ?emitErrorWillThrowException@XMLScanner@xercesc_3_1@@QAE_NW4Codes@XMLErrs@2@@Z 1204c30a f   XMLScanner.obj
 0001:0004b332       ?emitError@XMLScanner@xercesc_3_1@@QAEXW4Codes@XMLErrs@2@@Z 1204c332 f   XMLScanner.obj
 0001:0004b3f2       ?emitError@XMLScanner@xercesc_3_1@@QAEXW4Codes@XMLErrs@2@QB_W111@Z 1204c3f2 f   XMLScanner.obj
 0001:0004b4e4       ?emitError@XMLScanner@xercesc_3_1@@QAEXW4Codes@XMLErrs@2@QBD111@Z 1204c4e4 f   XMLScanner.obj
 0001:0004b5d6       ?emitError@XMLScanner@xercesc_3_1@@QAEXW4Codes@XMLErrs@2@W43XMLExcepts@2@QB_W222@Z 1204c5d6 f   XMLScanner.obj
 0001:0004b6c8       ?scanMiscellaneous@XMLScanner@xercesc_3_1@@IAEXXZ 1204c6c8 f   XMLScanner.obj
 0001:0004b861       ?scanPI@XMLScanner@xercesc_3_1@@IAEXXZ 1204c861 f   XMLScanner.obj
 0001:0004bba8       ?scanProlog@XMLScanner@xercesc_3_1@@IAEXXZ 1204cba8 f   XMLScanner.obj
 0001:0004bde1       ?scanXMLDecl@XMLScanner@xercesc_3_1@@IAEXW4DeclTypes@12@@Z 1204cde1 f   XMLScanner.obj
 0001:0004c48f       ?getURIText@XMLScanner@xercesc_3_1@@QBEPB_WI@Z 1204d48f f   XMLScanner.obj
 0001:0004c4bf       ?getURIText@XMLScanner@xercesc_3_1@@QBE_NIAAVXMLBuffer@2@@Z 1204d4bf f   XMLScanner.obj
 0001:0004c4fb       ?checkXMLDecl@XMLScanner@xercesc_3_1@@QAE_N_N@Z 1204d4fb f   XMLScanner.obj
 0001:0004c67a       ?loadGrammar@XMLScanner@xercesc_3_1@@QAEPAVGrammar@2@QB_WF_N@Z 1204d67a f   XMLScanner.obj
 0001:0004c92e       ?loadGrammar@XMLScanner@xercesc_3_1@@QAEPAVGrammar@2@QBDF_N@Z 1204d92e f   XMLScanner.obj
 0001:0004c982       ?setURIStringPool@XMLScanner@xercesc_3_1@@QAEXQAVXMLStringPool@2@@Z 1204d982 f   XMLScanner.obj
 0001:0004c9dc       ?checkInternalDTD@XMLScanner@xercesc_3_1@@IAEX_NQB_W1@Z 1204d9dc f   XMLScanner.obj
 0001:0004cacc       ?checkIDRefs@XMLScanner@xercesc_3_1@@IAEXXZ 1204dacc f   XMLScanner.obj
 0001:0004cb72       ?isLegalToken@XMLScanner@xercesc_3_1@@IAE_NABVXMLPScanToken@2@@Z 1204db72 f   XMLScanner.obj
 0001:0004cb92       ?senseNextToken@XMLScanner@xercesc_3_1@@IAE?AW4XMLTokens@12@AAK@Z 1204db92 f   XMLScanner.obj
 0001:0004cc97       ?getQuotedString@XMLScanner@xercesc_3_1@@AAE_NAAVXMLBuffer@2@@Z 1204dc97 f   XMLScanner.obj
 0001:0004cce2       ?scanCharRef@XMLScanner@xercesc_3_1@@IAE_NAA_W0@Z 1204dce2 f   XMLScanner.obj
 0001:0004ceaa       ?scanComment@XMLScanner@xercesc_3_1@@IAEXXZ 1204deaa f   XMLScanner.obj
 0001:0004d0ee       ?scanEq@XMLScanner@xercesc_3_1@@IAE_N_N@Z 1204e0ee f   XMLScanner.obj
 0001:0004d14f       ?scanUpToWSOr@XMLScanner@xercesc_3_1@@AAEKAAVXMLBuffer@2@_W@Z 1204e14f f   XMLScanner.obj
 0001:0004d16e       ?getNewUIntPtr@XMLScanner@xercesc_3_1@@IAEPAIXZ 1204e16e f   XMLScanner.obj
 0001:0004d230       ?resetUIntPool@XMLScanner@xercesc_3_1@@IAEXXZ 1204e230 f   XMLScanner.obj
 0001:0004d255       ?recreateUIntPool@XMLScanner@xercesc_3_1@@IAEXXZ 1204e255 f   XMLScanner.obj
 0001:0004d2d4       ?resolvePrefix@XMLScanner@xercesc_3_1@@IAEIQB_WW4MapModes@ElemStack@2@@Z 1204e2d4 f   XMLScanner.obj
 0001:0004d38c       ?resolveQName@XMLScanner@xercesc_3_1@@QAEIQB_WAAVXMLBuffer@2@W4MapModes@ElemStack@2@AAH@Z 1204e38c f   XMLScanner.obj
 0001:0004d3bb       ?resolveQNameWithColon@XMLScanner@xercesc_3_1@@IAEIQB_WAAVXMLBuffer@2@W4MapModes@ElemStack@2@H@Z 1204e3bb f   XMLScanner.obj
 0001:0004d40a       ??1?$XMLEnumerator@VXMLRefInfo@xercesc_3_1@@@xercesc_3_1@@UAE@XZ 1204e40a f i XMLScanner.obj
 0001:0004d411       ??_G?$XMLEnumerator@VXMLRefInfo@xercesc_3_1@@@xercesc_3_1@@UAEPAXI@Z 1204e411 f i XMLScanner.obj
 0001:0004d411       ??_E?$XMLEnumerator@VXMLRefInfo@xercesc_3_1@@@xercesc_3_1@@UAEPAXI@Z 1204e411 f i  CIL library: CIL module
 0001:0004d432       ??1?$BaseRefVectorOf@VXMLAttr@xercesc_3_1@@@xercesc_3_1@@UAE@XZ 1204e432 f i XMLScanner.obj
 0001:0004d439       ?setElementAt@?$BaseRefVectorOf@VXMLAttr@xercesc_3_1@@@xercesc_3_1@@UAEXQAVXMLAttr@2@K@Z 1204e439 f i XMLScanner.obj
 0001:0004d494       ?removeAllElements@?$BaseRefVectorOf@VXMLAttr@xercesc_3_1@@@xercesc_3_1@@UAEXXZ 1204e494 f i XMLScanner.obj
 0001:0004d4c9       ?removeElementAt@?$BaseRefVectorOf@VXMLAttr@xercesc_3_1@@@xercesc_3_1@@UAEXK@Z 1204e4c9 f i XMLScanner.obj
 0001:0004d557       ?removeLastElement@?$BaseRefVectorOf@VXMLAttr@xercesc_3_1@@@xercesc_3_1@@UAEXXZ 1204e557 f i XMLScanner.obj
 0001:0004d579       ?cleanup@?$BaseRefVectorOf@VXMLAttr@xercesc_3_1@@@xercesc_3_1@@UAEXXZ 1204e579 f i XMLScanner.obj
 0001:0004d5ae       ??0?$RefVectorOf@VXMLAttr@xercesc_3_1@@@xercesc_3_1@@QAE@K_NQAVMemoryManager@1@@Z 1204e5ae f i XMLScanner.obj
 0001:0004d5ee       ??1?$RefVectorOf@VXMLAttr@xercesc_3_1@@@xercesc_3_1@@UAE@XZ 1204e5ee f i XMLScanner.obj
 0001:0004d643       ??0?$RefHashTableOfEnumerator@VXMLRefInfo@xercesc_3_1@@UStringHasher@2@@xercesc_3_1@@QAE@QAV?$RefHashTableOf@VXMLRefInfo@xercesc_3_1@@UStringHasher@2@@1@_NQAVMemoryManager@1@@Z 1204e643 f i XMLScanner.obj
 0001:0004d6a9       ??1?$RefHashTableOfEnumerator@VXMLRefInfo@xercesc_3_1@@UStringHasher@2@@xercesc_3_1@@UAE@XZ 1204e6a9 f i XMLScanner.obj
 0001:0004d6e2       ??_E?$BaseRefVectorOf@VXMLAttr@xercesc_3_1@@@xercesc_3_1@@UAEPAXI@Z 1204e6e2 f i  CIL library: CIL module
 0001:0004d6e2       ??_G?$BaseRefVectorOf@VXMLAttr@xercesc_3_1@@@xercesc_3_1@@UAEPAXI@Z 1204e6e2 f i XMLScanner.obj
 0001:0004d702       ??_G?$RefVectorOf@VXMLAttr@xercesc_3_1@@@xercesc_3_1@@UAEPAXI@Z 1204e702 f i XMLScanner.obj
 0001:0004d702       ??_E?$RefVectorOf@VXMLAttr@xercesc_3_1@@@xercesc_3_1@@UAEPAXI@Z 1204e702 f i  CIL library: CIL module
 0001:0004d722       ??_G?$RefHashTableOfEnumerator@VXMLRefInfo@xercesc_3_1@@UStringHasher@2@@xercesc_3_1@@UAEPAXI@Z 1204e722 f i XMLScanner.obj
 0001:0004d722       ??_E?$RefHashTableOfEnumerator@VXMLRefInfo@xercesc_3_1@@UStringHasher@2@@xercesc_3_1@@UAEPAXI@Z 1204e722 f i  CIL library: CIL module
 0001:0004d741       ?getDefaultScanner@XMLScannerResolver@xercesc_3_1@@SAPAVXMLScanner@2@QAVXMLValidator@2@QAVGrammarResolver@2@QAVMemoryManager@2@@Z 1204e741 f   XMLScannerResolver.obj
 0001:0004d77e       ?resolveScanner@XMLScannerResolver@xercesc_3_1@@SAPAVXMLScanner@2@QB_WQAVXMLValidator@2@QAVGrammarResolver@2@QAVMemoryManager@2@@Z 1204e77e f   XMLScannerResolver.obj
 0001:0004d8a0       ?resolveScanner@XMLScannerResolver@xercesc_3_1@@SAPAVXMLScanner@2@QB_WQAVXMLDocumentHandler@2@QAVDocTypeHandler@2@QAVXMLEntityHandler@2@QAVXMLErrorReporter@2@QAVXMLValidator@2@QAVGrammarResolver@2@QAVMemoryManager@2@@Z 1204e8a0 f   XMLScannerResolver.obj
 0001:0004d9f2       ?store@XProtoType@xercesc_3_1@@QBEXAAVXSerializeEngine@2@@Z 1204e9f2 f   XProtoType.obj
 0001:0004da20       ?load@XProtoType@xercesc_3_1@@SAXAAVXSerializeEngine@2@QAEQAVMemoryManager@2@@Z 1204ea20 f   XProtoType.obj
 0001:0004dc58       ??_EXSAXMLScanner@xercesc_3_1@@UAEPAXI@Z 1204ec58 f i XSAXMLScanner.obj
 0001:0004dcac       ?getName@XSAXMLScanner@xercesc_3_1@@UBEPB_WXZ 1204ecac f i XSAXMLScanner.obj
 0001:0004dcb2       ??0XSAXMLScanner@xercesc_3_1@@IAE@QAVGrammarResolver@1@QAVXMLStringPool@1@QAVSchemaGrammar@1@QAVMemoryManager@1@@Z 1204ecb2 f   XSAXMLScanner.obj
 0001:0004dcf7       ??1XSAXMLScanner@xercesc_3_1@@UAE@XZ 1204ecf7 f   XSAXMLScanner.obj
 0001:0004dd02       ?scanEndTag@XSAXMLScanner@xercesc_3_1@@MAEXAA_N@Z 1204ed02 f   XSAXMLScanner.obj
 0001:0004df4d       ?scanStartTag@XSAXMLScanner@xercesc_3_1@@MAE_NAA_N@Z 1204ef4d f   XSAXMLScanner.obj
 0001:0004e5b0       ?scanReset@XSAXMLScanner@xercesc_3_1@@MAEXABVInputSource@2@@Z 1204f5b0 f   XSAXMLScanner.obj
 0001:0004e804       ?scanRawAttrListforNameSpaces@XSAXMLScanner@xercesc_3_1@@AAEXK@Z 1204f804 f   XSAXMLScanner.obj
 0001:0004eb05       ?switchGrammar@XSAXMLScanner@xercesc_3_1@@AAEXQB_W_N@Z 1204fb05 f   XSAXMLScanner.obj
 0001:0004eb85       ??1XSerializeEngine@xercesc_3_1@@QAE@XZ 1204fb85 f   XSerializeEngine.obj
 0001:0004ebd1       ??_G?$RefHashTableOf@VRangeTokenElemMap@xercesc_3_1@@UStringHasher@2@@xercesc_3_1@@QAEPAXI@Z 1204fbd1 f i RangeTokenMap.obj
 0001:0004ebd1       ??_G?$RefHashTableOf@VXMLCanRepGroup@xercesc_3_1@@UPtrHasher@2@@xercesc_3_1@@QAEPAXI@Z 1204fbd1 f i DatatypeValidatorFactory.obj
 0001:0004ebd1       ??_G?$RefHashTableOf@VXSerializedObjectId@xercesc_3_1@@UPtrHasher@2@@xercesc_3_1@@QAEPAXI@Z 1204fbd1 f i XSerializeEngine.obj
 0001:0004ec3e       ??0XSerializeEngine@xercesc_3_1@@QAE@PAVBinInputStream@1@QAVXMLGrammarPool@1@K@Z 1204fc3e f   XSerializeEngine.obj
 0001:0004ecce       ??0XSerializeEngine@xercesc_3_1@@QAE@PAVBinOutputStream@1@QAVXMLGrammarPool@1@K@Z 1204fcce f   XSerializeEngine.obj
 0001:0004edba       ?flush@XSerializeEngine@xercesc_3_1@@QAEXXZ 1204fdba f   XSerializeEngine.obj
 0001:0004edc6       ?write@XSerializeEngine@xercesc_3_1@@QAEXQAVXSerializable@2@@Z 1204fdc6 f   XSerializeEngine.obj
 0001:0004ee19       ?write@XSerializeEngine@xercesc_3_1@@QAEXQAVXProtoType@2@@Z 1204fe19 f   XSerializeEngine.obj
 0001:0004ee6a       ?write@XSerializeEngine@xercesc_3_1@@QAEXQB_WK@Z 1204fe6a f   XSerializeEngine.obj
 0001:0004ee7f       ?write@XSerializeEngine@xercesc_3_1@@QAEXQBEK@Z 1204fe7f f   XSerializeEngine.obj
 0001:0004ef1c       ?writeString@XSerializeEngine@xercesc_3_1@@QAEXQB_WK_N@Z 1204ff1c f   XSerializeEngine.obj
 0001:0004ef69       ?writeString@XSerializeEngine@xercesc_3_1@@QAEXQBEK_N@Z 1204ff69 f   XSerializeEngine.obj
 0001:0004efb2       ?read@XSerializeEngine@xercesc_3_1@@QAEPAVXSerializable@2@QAVXProtoType@2@@Z 1204ffb2 f   XSerializeEngine.obj
 0001:0004f02a       ?read@XSerializeEngine@xercesc_3_1@@QAE_NQAVXProtoType@2@PAI@Z 1205002a f   XSerializeEngine.obj
 0001:0004f19f       ?read@XSerializeEngine@xercesc_3_1@@QAEXQA_WK@Z 1205019f f   XSerializeEngine.obj
 0001:0004f1b4       ?read@XSerializeEngine@xercesc_3_1@@QAEXQAEK@Z 120501b4 f   XSerializeEngine.obj
 0001:0004f25d       ?readString@XSerializeEngine@xercesc_3_1@@QAEXAAPA_WAAK1_N@Z 1205025d f   XSerializeEngine.obj
 0001:0004f2e4       ?readString@XSerializeEngine@xercesc_3_1@@QAEXAAPAEAAK1_N@Z 120502e4 f   XSerializeEngine.obj
 0001:0004f363       ??6XSerializeEngine@xercesc_3_1@@QAEAAV01@_W@Z 12050363 f   XSerializeEngine.obj
 0001:0004f363       ??6XSerializeEngine@xercesc_3_1@@QAEAAV01@F@Z 12050363 f   XSerializeEngine.obj
 0001:0004f3b2       ??5XSerializeEngine@xercesc_3_1@@QAEAAV01@AA_W@Z 120503b2 f   XSerializeEngine.obj
 0001:0004f3b2       ??5XSerializeEngine@xercesc_3_1@@QAEAAV01@AAF@Z 120503b2 f   XSerializeEngine.obj
 0001:0004f403       ??6XSerializeEngine@xercesc_3_1@@QAEAAV01@E@Z 12050403 f   XSerializeEngine.obj
 0001:0004f403       ??6XSerializeEngine@xercesc_3_1@@QAEAAV01@_N@Z 12050403 f   XSerializeEngine.obj
 0001:0004f422       ??5XSerializeEngine@xercesc_3_1@@QAEAAV01@AA_N@Z 12050422 f   XSerializeEngine.obj
 0001:0004f422       ??5XSerializeEngine@xercesc_3_1@@QAEAAV01@AAE@Z 12050422 f   XSerializeEngine.obj
 0001:0004f443       ?writeSize@XSerializeEngine@xercesc_3_1@@QAEXK@Z 12050443 f   XSerializeEngine.obj
 0001:0004f46b       ?writeUInt64@XSerializeEngine@xercesc_3_1@@QAEX_K@Z 1205046b f   XSerializeEngine.obj
 0001:0004f46b       ?writeInt64@XSerializeEngine@xercesc_3_1@@QAEX_J@Z 1205046b f   XSerializeEngine.obj
 0001:0004f493       ?readSize@XSerializeEngine@xercesc_3_1@@QAEXAAK@Z 12050493 f   XSerializeEngine.obj
 0001:0004f4ba       ?readInt64@XSerializeEngine@xercesc_3_1@@QAEXAA_J@Z 120504ba f   XSerializeEngine.obj
 0001:0004f4ba       ?readUInt64@XSerializeEngine@xercesc_3_1@@QAEXAA_K@Z 120504ba f   XSerializeEngine.obj
 0001:0004f4e1       ??6XSerializeEngine@xercesc_3_1@@QAEAAV01@D@Z 120504e1 f   XSerializeEngine.obj
 0001:0004f4ea       ??5XSerializeEngine@xercesc_3_1@@QAEAAV01@AAD@Z 120504ea f   XSerializeEngine.obj
 0001:0004f4f3       ??6XSerializeEngine@xercesc_3_1@@QAEAAV01@J@Z 120504f3 f   XSerializeEngine.obj
 0001:0004f4f3       ??6XSerializeEngine@xercesc_3_1@@QAEAAV01@I@Z 120504f3 f   XSerializeEngine.obj
 0001:0004f4f3       ??6XSerializeEngine@xercesc_3_1@@QAEAAV01@K@Z 120504f3 f   XSerializeEngine.obj
 0001:0004f4f3       ??6XSerializeEngine@xercesc_3_1@@QAEAAV01@H@Z 120504f3 f   XSerializeEngine.obj
 0001:0004f540       ??5XSerializeEngine@xercesc_3_1@@QAEAAV01@AAK@Z 12050540 f   XSerializeEngine.obj
 0001:0004f540       ??5XSerializeEngine@xercesc_3_1@@QAEAAV01@AAJ@Z 12050540 f   XSerializeEngine.obj
 0001:0004f540       ??5XSerializeEngine@xercesc_3_1@@QAEAAV01@AAI@Z 12050540 f   XSerializeEngine.obj
 0001:0004f540       ??5XSerializeEngine@xercesc_3_1@@QAEAAV01@AAH@Z 12050540 f   XSerializeEngine.obj
 0001:0004f58f       ??6XSerializeEngine@xercesc_3_1@@QAEAAV01@M@Z 1205058f f   XSerializeEngine.obj
 0001:0004f5dc       ??5XSerializeEngine@xercesc_3_1@@QAEAAV01@AAM@Z 120505dc f   XSerializeEngine.obj
 0001:0004f62b       ??6XSerializeEngine@xercesc_3_1@@QAEAAV01@N@Z 1205062b f   XSerializeEngine.obj
 0001:0004f678       ??5XSerializeEngine@xercesc_3_1@@QAEAAV01@AAN@Z 12050678 f   XSerializeEngine.obj
 0001:0004f6c7       ?lookupStorePool@XSerializeEngine@xercesc_3_1@@ABEIQAX@Z 120506c7 f   XSerializeEngine.obj
 0001:0004f705       ?addStorePool@XSerializeEngine@xercesc_3_1@@AAEXQAX@Z 12050705 f   XSerializeEngine.obj
 0001:0004f73d       ?lookupLoadPool@XSerializeEngine@xercesc_3_1@@ABEPAVXSerializable@2@I@Z 1205073d f   XSerializeEngine.obj
 0001:0004f86b       ?addLoadPool@XSerializeEngine@xercesc_3_1@@AAEXQAX@Z 1205086b f   XSerializeEngine.obj
 0001:0004f98d       ?pumpCount@XSerializeEngine@xercesc_3_1@@AAEXXZ 1205098d f   XSerializeEngine.obj
 0001:0004fa9b       ?fillBuffer@XSerializeEngine@xercesc_3_1@@AAEXXZ 12050a9b f   XSerializeEngine.obj
 0001:0004fc8c       ?flushBuffer@XSerializeEngine@xercesc_3_1@@AAEXXZ 12050c8c f   XSerializeEngine.obj
 0001:0004fcd4       ?checkAndFlushBuffer@XSerializeEngine@xercesc_3_1@@AAEXK@Z 12050cd4 f i XSerializeEngine.obj
 0001:0004fdc3       ?checkAndFillBuffer@XSerializeEngine@xercesc_3_1@@AAEXK@Z 12050dc3 f i XSerializeEngine.obj
 0001:0004feb2       ?ensureStoreBuffer@XSerializeEngine@xercesc_3_1@@ABEXXZ 12050eb2 f i XSerializeEngine.obj
 0001:0004ffcd       ?ensureLoadBuffer@XSerializeEngine@xercesc_3_1@@ABEXXZ 12050fcd f i XSerializeEngine.obj
 0001:000500e8       ?ensurePointer@XSerializeEngine@xercesc_3_1@@ABEXQAX@Z 120510e8 f i XSerializeEngine.obj
 0001:000501b6       ?resetBuffer@XSerializeEngine@xercesc_3_1@@AAEXXZ 120511b6 f i XSerializeEngine.obj
 0001:000501c8       ?needToStoreObject@XSerializeEngine@xercesc_3_1@@QAE_NQAX@Z 120511c8 f   XSerializeEngine.obj
 0001:0005020f       ?needToLoadObject@XSerializeEngine@xercesc_3_1@@QAE_NPAPAX@Z 1205120f f   XSerializeEngine.obj
 0001:00050247       ?registerObject@XSerializeEngine@xercesc_3_1@@QAEXQAX@Z 12051247 f   XSerializeEngine.obj
 0001:00050261       ?getStringPool@XSerializeEngine@xercesc_3_1@@QBEPAVXMLStringPool@2@XZ 12051261 f   XSerializeEngine.obj
 0001:00050269       ?getMemoryManager@XSerializeEngine@xercesc_3_1@@QBEPAVMemoryManager@2@XZ 12051269 f   XSerializeEngine.obj
 0001:0005027a       ?alignAdjust@XSerializeEngine@xercesc_3_1@@ABEKK@Z 1205127a f i XSerializeEngine.obj
 0001:00050295       ?alignBufCur@XSerializeEngine@xercesc_3_1@@AAEXK@Z 12051295 f i XSerializeEngine.obj
 0001:000502bb       ?calBytesNeeded@XSerializeEngine@xercesc_3_1@@ABEKK@Z 120512bb f i XSerializeEngine.obj
 0001:000502da       ?put@?$RefHashTableOf@VXSerializedObjectId@xercesc_3_1@@UPtrHasher@2@@xercesc_3_1@@QAEXPAXQAVXSerializedObjectId@2@@Z 120512da f i XSerializeEngine.obj
 0001:00050372       ?elementAt@?$ValueVectorOf@_N@xercesc_3_1@@QAEAA_NK@Z 12051372 f i IGXMLScanner.obj
 0001:00050372       ?elementAt@?$ValueVectorOf@PAVDatatypeValidator@xercesc_3_1@@@xercesc_3_1@@QAEAAPAVDatatypeValidator@2@K@Z 12051372 f i IGXMLScanner2.obj
 0001:00050372       ?elementAt@?$ValueVectorOf@PAVIC_Field@xercesc_3_1@@@xercesc_3_1@@QAEAAPAVIC_Field@2@K@Z 12051372 f i IGXMLScanner2.obj
 0001:00050372       ?elementAt@?$ValueVectorOf@PAVSchemaElementDecl@xercesc_3_1@@@xercesc_3_1@@QAEAAPAVSchemaElementDecl@2@K@Z 12051372 f i XTemplateSerializer.obj
 0001:00050372       ?elementAt@?$ValueVectorOf@PAVXMLAttr@xercesc_3_1@@@xercesc_3_1@@QAEAAPAVXMLAttr@2@K@Z 12051372 f i DGXMLScanner.obj
 0001:00050372       ?elementAt@?$ValueVectorOf@PAVQName@xercesc_3_1@@@xercesc_3_1@@QAEAAPAVQName@2@K@Z 12051372 f i AllContentModel.obj
 0001:00050372       ?elementAt@?$ValueVectorOf@PAVDOMNode@xercesc_3_1@@@xercesc_3_1@@QAEAAPAVDOMNode@2@K@Z 12051372 f i TraverseSchema.obj
 0001:00050372       ?elementAt@?$ValueVectorOf@I@xercesc_3_1@@QAEAAIK@Z 12051372 f i XSWildcard.obj
 0001:00050372       ?elementAt@?$ValueVectorOf@PA_W@xercesc_3_1@@QAEAAPA_WK@Z 12051372 f i IGXMLScanner2.obj
 0001:00050372       ?elementAt@?$ValueVectorOf@K@xercesc_3_1@@QAEAAKK@Z 12051372 f i WFXMLScanner.obj
 0001:00050372       ?elementAt@?$ValueVectorOf@PAX@xercesc_3_1@@QAEAAPAXK@Z 12051372 f i XSerializeEngine.obj
 0001:00050372       ?elementAt@?$ValueVectorOf@PAUPrefMapElem@xercesc_3_1@@@xercesc_3_1@@QAEAAPAUPrefMapElem@2@K@Z 12051372 f i XSDDOMParser.obj
 0001:00050372       ?elementAt@?$ValueVectorOf@H@xercesc_3_1@@QAEAAHK@Z 12051372 f i IGXMLScanner.obj
 0001:000503a0       ??0XSObjectFactory@xercesc_3_1@@QAE@QAVMemoryManager@1@@Z 120513a0 f   XSObjectFactory.obj
 0001:00050451       ??1XSObjectFactory@xercesc_3_1@@QAE@XZ 12051451 f   XSObjectFactory.obj
 0001:00050471       ?createModelGroupParticle@XSObjectFactory@xercesc_3_1@@AAEPAVXSParticle@2@QBVContentSpecNode@2@QAVXSModel@2@@Z 12051471 f   XSObjectFactory.obj
 0001:000505dd       ?buildAllParticles@XSObjectFactory@xercesc_3_1@@AAEXQBVContentSpecNode@2@QAV?$RefVectorOf@VXSParticle@xercesc_3_1@@@2@QAVXSModel@2@@Z 120515dd f   XSObjectFactory.obj
 0001:0005062f       ?buildChoiceSequenceParticles@XSObjectFactory@xercesc_3_1@@AAEXQBVContentSpecNode@2@QAV?$RefVectorOf@VXSParticle@xercesc_3_1@@@2@QAVXSModel@2@@Z 1205162f f   XSObjectFactory.obj
 0001:000506b7       ?createElementParticle@XSObjectFactory@xercesc_3_1@@AAEPAVXSParticle@2@QBVContentSpecNode@2@QAVXSModel@2@@Z 120516b7 f   XSObjectFactory.obj
 0001:00050729       ?createWildcardParticle@XSObjectFactory@xercesc_3_1@@AAEPAVXSParticle@2@QBVContentSpecNode@2@QAVXSModel@2@@Z 12051729 f   XSObjectFactory.obj
 0001:00050792       ?addOrFind@XSObjectFactory@xercesc_3_1@@AAEPAVXSAttributeDeclaration@2@QAVSchemaAttDef@2@QAVXSModel@2@QAVXSComplexTypeDefinition@2@@Z 12051792 f   XSObjectFactory.obj
 0001:00050863       ?addOrFind@XSObjectFactory@xercesc_3_1@@AAEPAVXSSimpleTypeDefinition@2@QAVDatatypeValidator@2@QAVXSModel@2@_N@Z 12051863 f   XSObjectFactory.obj
 0001:00050a66       ?addOrFind@XSObjectFactory@xercesc_3_1@@AAEPAVXSElementDeclaration@2@QAVSchemaElementDecl@2@QAVXSModel@2@QAVXSComplexTypeDefinition@2@@Z 12051a66 f   XSObjectFactory.obj
 0001:00050c52       ?addOrFind@XSObjectFactory@xercesc_3_1@@AAEPAVXSComplexTypeDefinition@2@QAVComplexTypeInfo@2@QAVXSModel@2@@Z 12051c52 f   XSObjectFactory.obj
 0001:00050ebd       ?addOrFind@XSObjectFactory@xercesc_3_1@@AAEPAVXSIDCDefinition@2@QAVIdentityConstraint@2@QAVXSModel@2@@Z 12051ebd f   XSObjectFactory.obj
 0001:00050fe4       ?addOrFind@XSObjectFactory@xercesc_3_1@@AAEPAVXSNotationDeclaration@2@QAVXMLNotationDecl@2@QAVXSModel@2@@Z 12051fe4 f   XSObjectFactory.obj
 0001:00051052       ?createXSAttributeUse@XSObjectFactory@xercesc_3_1@@AAEPAVXSAttributeUse@2@QAVXSAttributeDeclaration@2@QAVXSModel@2@@Z 12052052 f   XSObjectFactory.obj
 0001:000510a2       ?createXSWildcard@XSObjectFactory@xercesc_3_1@@AAEPAVXSWildcard@2@QAVSchemaAttDef@2@QAVXSModel@2@@Z 120520a2 f   XSObjectFactory.obj
 0001:0005110c       ?createXSWildcard@XSObjectFactory@xercesc_3_1@@AAEPAVXSWildcard@2@QBVContentSpecNode@2@QAVXSModel@2@@Z 1205210c f   XSObjectFactory.obj
 0001:0005116b       ?createXSModelGroupDefinition@XSObjectFactory@xercesc_3_1@@AAEPAVXSModelGroupDefinition@2@QAVXercesGroupInfo@2@QAVXSModel@2@@Z 1205216b f   XSObjectFactory.obj
 0001:00051216       ?createXSAttGroupDefinition@XSObjectFactory@xercesc_3_1@@AAEPAVXSAttributeGroupDefinition@2@QAVXercesAttGroupInfo@2@QAVXSModel@2@@Z 12052216 f   XSObjectFactory.obj
 0001:00051346       ?getAnnotationFromModel@XSObjectFactory@xercesc_3_1@@AAEPAVXSAnnotation@2@QAVXSModel@2@QBX@Z 12052346 f   XSObjectFactory.obj
 0001:000513ad       ?putObjectInMap@XSObjectFactory@xercesc_3_1@@AAEXPAXQAVXSObject@2@@Z 120523ad f   XSObjectFactory.obj
 0001:000513d3       ?processFacets@XSObjectFactory@xercesc_3_1@@AAEXQAVDatatypeValidator@2@QAVXSModel@2@QAVXSSimpleTypeDefinition@2@@Z 120523d3 f   XSObjectFactory.obj
 0001:00051972       ?processAttUse@XSObjectFactory@xercesc_3_1@@AAEXQAVSchemaAttDef@2@QAVXSAttributeUse@2@@Z 12052972 f   XSObjectFactory.obj
 0001:000519b4       ?isMultiValueFacetDefined@XSObjectFactory@xercesc_3_1@@AAE_NQAVDatatypeValidator@2@@Z 120529b4 f   XSObjectFactory.obj
 0001:000519d3       ??1?$XMLEnumerator@VKVStringPair@xercesc_3_1@@@xercesc_3_1@@UAE@XZ 120529d3 f i XSObjectFactory.obj
 0001:000519da       ??_G?$XMLEnumerator@VKVStringPair@xercesc_3_1@@@xercesc_3_1@@UAEPAXI@Z 120529da f i XSObjectFactory.obj
 0001:000519da       ??_E?$XMLEnumerator@VKVStringPair@xercesc_3_1@@@xercesc_3_1@@UAEPAXI@Z 120529da f i  CIL library: CIL module
 0001:000519fb       ?put@?$RefHashTableOf@VXSObject@xercesc_3_1@@UPtrHasher@2@@xercesc_3_1@@QAEXPAXQAVXSObject@2@@Z 120529fb f i XSObjectFactory.obj
 0001:00051a94       ??1?$BaseRefVectorOf@VXSParticle@xercesc_3_1@@@xercesc_3_1@@UAE@XZ 12052a94 f i XSObjectFactory.obj
 0001:00051a9b       ??0?$RefVectorOf@VXSParticle@xercesc_3_1@@@xercesc_3_1@@QAE@K_NQAVMemoryManager@1@@Z 12052a9b f i XSObjectFactory.obj
 0001:00051adb       ??1?$BaseRefVectorOf@VXSSimpleTypeDefinition@xercesc_3_1@@@xercesc_3_1@@UAE@XZ 12052adb f i XSObjectFactory.obj
 0001:00051ae2       ??0?$RefVectorOf@VXSSimpleTypeDefinition@xercesc_3_1@@@xercesc_3_1@@QAE@K_NQAVMemoryManager@1@@Z 12052ae2 f i XSObjectFactory.obj
 0001:00051b23       ??0?$XSNamedMap@VXSIDCDefinition@xercesc_3_1@@@xercesc_3_1@@QAE@KKPAVXMLStringPool@1@_NQAVMemoryManager@1@@Z 12052b23 f i XSObjectFactory.obj
 0001:00051bcb       ??1?$BaseRefVectorOf@VXSAttributeUse@xercesc_3_1@@@xercesc_3_1@@UAE@XZ 12052bcb f i XSObjectFactory.obj
 0001:00051bd2       ??0?$RefVectorOf@VXSAttributeUse@xercesc_3_1@@@xercesc_3_1@@QAE@K_NQAVMemoryManager@1@@Z 12052bd2 f i XSObjectFactory.obj
 0001:00051c13       ??1?$BaseRefVectorOf@VXSFacet@xercesc_3_1@@@xercesc_3_1@@UAE@XZ 12052c13 f i XSObjectFactory.obj
 0001:00051c1a       ??0?$RefVectorOf@VXSFacet@xercesc_3_1@@@xercesc_3_1@@QAE@K_NQAVMemoryManager@1@@Z 12052c1a f i XSObjectFactory.obj
 0001:00051c5a       ??1?$BaseRefVectorOf@VXSMultiValueFacet@xercesc_3_1@@@xercesc_3_1@@UAE@XZ 12052c5a f i XSObjectFactory.obj
 0001:00051c61       ??0?$RefVectorOf@VXSMultiValueFacet@xercesc_3_1@@@xercesc_3_1@@QAE@K_NQAVMemoryManager@1@@Z 12052c61 f i XSObjectFactory.obj
 0001:00051ca1       ??0?$RefHashTableOfEnumerator@VKVStringPair@xercesc_3_1@@UStringHasher@2@@xercesc_3_1@@QAE@QAV?$RefHashTableOf@VKVStringPair@xercesc_3_1@@UStringHasher@2@@1@_NQAVMemoryManager@1@@Z 12052ca1 f i XSObjectFactory.obj
 0001:00051d07       ??1?$RefHashTableOfEnumerator@VKVStringPair@xercesc_3_1@@UStringHasher@2@@xercesc_3_1@@UAE@XZ 12052d07 f i XSObjectFactory.obj
 0001:00051d40       ??_G?$BaseRefVectorOf@VXSParticle@xercesc_3_1@@@xercesc_3_1@@UAEPAXI@Z 12052d40 f i XSObjectFactory.obj
 0001:00051d40       ??_E?$BaseRefVectorOf@VXSParticle@xercesc_3_1@@@xercesc_3_1@@UAEPAXI@Z 12052d40 f i  CIL library: CIL module
 0001:00051d60       ??_E?$RefVectorOf@VXSParticle@xercesc_3_1@@@xercesc_3_1@@UAEPAXI@Z 12052d60 f i  CIL library: CIL module
 0001:00051d60       ??_G?$RefVectorOf@VXSParticle@xercesc_3_1@@@xercesc_3_1@@UAEPAXI@Z 12052d60 f i XSObjectFactory.obj
 0001:00051dca       ??_E?$BaseRefVectorOf@VXSSimpleTypeDefinition@xercesc_3_1@@@xercesc_3_1@@UAEPAXI@Z 12052dca f i  CIL library: CIL module
 0001:00051dca       ??_G?$BaseRefVectorOf@VXSSimpleTypeDefinition@xercesc_3_1@@@xercesc_3_1@@UAEPAXI@Z 12052dca f i XSObjectFactory.obj
 0001:00051dea       ??_E?$RefVectorOf@VXSSimpleTypeDefinition@xercesc_3_1@@@xercesc_3_1@@UAEPAXI@Z 12052dea f i  CIL library: CIL module
 0001:00051dea       ??_G?$RefVectorOf@VXSSimpleTypeDefinition@xercesc_3_1@@@xercesc_3_1@@UAEPAXI@Z 12052dea f i XSObjectFactory.obj
 0001:00051e54       ??_G?$BaseRefVectorOf@VXSAttributeUse@xercesc_3_1@@@xercesc_3_1@@UAEPAXI@Z 12052e54 f i XSObjectFactory.obj
 0001:00051e54       ??_E?$BaseRefVectorOf@VXSAttributeUse@xercesc_3_1@@@xercesc_3_1@@UAEPAXI@Z 12052e54 f i  CIL library: CIL module
 0001:00051e74       ??_E?$RefVectorOf@VXSAttributeUse@xercesc_3_1@@@xercesc_3_1@@UAEPAXI@Z 12052e74 f i  CIL library: CIL module
 0001:00051e74       ??_G?$RefVectorOf@VXSAttributeUse@xercesc_3_1@@@xercesc_3_1@@UAEPAXI@Z 12052e74 f i XSObjectFactory.obj
 0001:00051ede       ??_G?$BaseRefVectorOf@VXSFacet@xercesc_3_1@@@xercesc_3_1@@UAEPAXI@Z 12052ede f i XSObjectFactory.obj
 0001:00051ede       ??_E?$BaseRefVectorOf@VXSFacet@xercesc_3_1@@@xercesc_3_1@@UAEPAXI@Z 12052ede f i  CIL library: CIL module
 0001:00051efe       ??_E?$RefVectorOf@VXSFacet@xercesc_3_1@@@xercesc_3_1@@UAEPAXI@Z 12052efe f i  CIL library: CIL module
 0001:00051efe       ??_G?$RefVectorOf@VXSFacet@xercesc_3_1@@@xercesc_3_1@@UAEPAXI@Z 12052efe f i XSObjectFactory.obj
 0001:00051f68       ??_G?$BaseRefVectorOf@VXSMultiValueFacet@xercesc_3_1@@@xercesc_3_1@@UAEPAXI@Z 12052f68 f i XSObjectFactory.obj
 0001:00051f68       ??_E?$BaseRefVectorOf@VXSMultiValueFacet@xercesc_3_1@@@xercesc_3_1@@UAEPAXI@Z 12052f68 f i  CIL library: CIL module
 0001:00051f88       ??_G?$RefVectorOf@VXSMultiValueFacet@xercesc_3_1@@@xercesc_3_1@@UAEPAXI@Z 12052f88 f i XSObjectFactory.obj
 0001:00051f88       ??_E?$RefVectorOf@VXSMultiValueFacet@xercesc_3_1@@@xercesc_3_1@@UAEPAXI@Z 12052f88 f i  CIL library: CIL module
 0001:00051ff2       ??_E?$RefHashTableOfEnumerator@VKVStringPair@xercesc_3_1@@UStringHasher@2@@xercesc_3_1@@UAEPAXI@Z 12052ff2 f i  CIL library: CIL module
 0001:00051ff2       ??_G?$RefHashTableOfEnumerator@VKVStringPair@xercesc_3_1@@UStringHasher@2@@xercesc_3_1@@UAEPAXI@Z 12052ff2 f i XSObjectFactory.obj
 0001:00052011       ?rehash@?$RefHashTableOf@VXSObject@xercesc_3_1@@UPtrHasher@2@@xercesc_3_1@@AAEXXZ 12053011 f i XSObjectFactory.obj
 0001:000520b7       ??1?$BaseRefVectorOf@VXSIDCDefinition@xercesc_3_1@@@xercesc_3_1@@UAE@XZ 120530b7 f i XSObjectFactory.obj
 0001:000520be       ??0?$RefVectorOf@VXSIDCDefinition@xercesc_3_1@@@xercesc_3_1@@QAE@K_NQAVMemoryManager@1@@Z 120530be f i XSObjectFactory.obj
 0001:000520ff       ??_G?$BaseRefVectorOf@VXSIDCDefinition@xercesc_3_1@@@xercesc_3_1@@UAEPAXI@Z 120530ff f i XSObjectFactory.obj
 0001:000520ff       ??_E?$BaseRefVectorOf@VXSIDCDefinition@xercesc_3_1@@@xercesc_3_1@@UAEPAXI@Z 120530ff f i  CIL library: CIL module
 0001:0005211f       ??_E?$RefVectorOf@VXSIDCDefinition@xercesc_3_1@@@xercesc_3_1@@UAEPAXI@Z 1205311f f i  CIL library: CIL module
 0001:0005211f       ??_G?$RefVectorOf@VXSIDCDefinition@xercesc_3_1@@@xercesc_3_1@@UAEPAXI@Z 1205311f f i XSObjectFactory.obj
 0001:00052189       ?storeObject@XTemplateSerializer@xercesc_3_1@@SAXQAV?$ValueVectorOf@PAVSchemaElementDecl@xercesc_3_1@@@2@AAVXSerializeEngine@2@@Z 12053189 f   XTemplateSerializer.obj
 0001:000521df       ?loadObject@XTemplateSerializer@xercesc_3_1@@SAXPAPAV?$ValueVectorOf@PAVSchemaElementDecl@xercesc_3_1@@@2@H_NAAVXSerializeEngine@2@@Z 120531df f   XTemplateSerializer.obj
 0001:00052296       ?storeObject@XTemplateSerializer@xercesc_3_1@@SAXQAV?$ValueVectorOf@I@2@AAVXSerializeEngine@2@@Z 12053296 f   XTemplateSerializer.obj
 0001:000522ec       ?loadObject@XTemplateSerializer@xercesc_3_1@@SAXPAPAV?$ValueVectorOf@I@2@H_NAAVXSerializeEngine@2@@Z 120532ec f   XTemplateSerializer.obj
 0001:0005239f       ?storeObject@XTemplateSerializer@xercesc_3_1@@SAXQAV?$RefArrayVectorOf@_W@2@AAVXSerializeEngine@2@@Z 1205339f f   XTemplateSerializer.obj
 0001:000523ed       ?loadObject@XTemplateSerializer@xercesc_3_1@@SAXPAPAV?$RefArrayVectorOf@_W@2@H_NAAVXSerializeEngine@2@@Z 120533ed f   XTemplateSerializer.obj
 0001:000524ac       ?storeObject@XTemplateSerializer@xercesc_3_1@@SAXQAV?$RefVectorOf@VIC_Field@xercesc_3_1@@@2@AAVXSerializeEngine@2@@Z 120534ac f   XTemplateSerializer.obj
 0001:000524ac       ?storeObject@XTemplateSerializer@xercesc_3_1@@SAXQAV?$RefVectorOf@VXercesStep@xercesc_3_1@@@2@AAVXSerializeEngine@2@@Z 120534ac f   XTemplateSerializer.obj
 0001:000524ac       ?storeObject@XTemplateSerializer@xercesc_3_1@@SAXQAV?$RefVectorOf@VSchemaAttDef@xercesc_3_1@@@2@AAVXSerializeEngine@2@@Z 120534ac f   XTemplateSerializer.obj
 0001:000524ac       ?storeObject@XTemplateSerializer@xercesc_3_1@@SAXQAV?$RefVectorOf@VXercesLocationPath@xercesc_3_1@@@2@AAVXSerializeEngine@2@@Z 120534ac f   XTemplateSerializer.obj
 0001:000524ac       ?storeObject@XTemplateSerializer@xercesc_3_1@@SAXQAV?$RefVectorOf@VSchemaElementDecl@xercesc_3_1@@@2@AAVXSerializeEngine@2@@Z 120534ac f   XTemplateSerializer.obj
 0001:000524ac       ?storeObject@XTemplateSerializer@xercesc_3_1@@SAXQAV?$RefVectorOf@VXMLNumber@xercesc_3_1@@@2@AAVXSerializeEngine@2@@Z 120534ac f   XTemplateSerializer.obj
 0001:00052501       ?loadObject@XTemplateSerializer@xercesc_3_1@@SAXPAPAV?$RefVectorOf@VSchemaAttDef@xercesc_3_1@@@2@H_NAAVXSerializeEngine@2@@Z 12053501 f   XTemplateSerializer.obj
 0001:000525ac       ?loadObject@XTemplateSerializer@xercesc_3_1@@SAXPAPAV?$RefVectorOf@VSchemaElementDecl@xercesc_3_1@@@2@H_NAAVXSerializeEngine@2@@Z 120535ac f   XTemplateSerializer.obj
 0001:00052657       ?storeObject@XTemplateSerializer@xercesc_3_1@@SAXQAV?$RefVectorOf@VContentSpecNode@xercesc_3_1@@@2@AAVXSerializeEngine@2@@Z 12053657 f   XTemplateSerializer.obj
 0001:000526ce       ?loadObject@XTemplateSerializer@xercesc_3_1@@SAXPAPAV?$RefVectorOf@VContentSpecNode@xercesc_3_1@@@2@H_NAAVXSerializeEngine@2@@Z 120536ce f   XTemplateSerializer.obj
 0001:00052779       ?loadObject@XTemplateSerializer@xercesc_3_1@@SAXPAPAV?$RefVectorOf@VIC_Field@xercesc_3_1@@@2@H_NAAVXSerializeEngine@2@@Z 12053779 f   XTemplateSerializer.obj
 0001:00052824       ?storeObject@XTemplateSerializer@xercesc_3_1@@SAXQAV?$RefVectorOf@VDatatypeValidator@xercesc_3_1@@@2@AAVXSerializeEngine@2@@Z 12053824 f   XTemplateSerializer.obj
 0001:00052870       ?loadObject@XTemplateSerializer@xercesc_3_1@@SAXPAPAV?$RefVectorOf@VDatatypeValidator@xercesc_3_1@@@2@H_NAAVXSerializeEngine@2@@Z 12053870 f   XTemplateSerializer.obj
 0001:00052917       ?storeObject@XTemplateSerializer@xercesc_3_1@@SAXQAV?$RefVectorOf@VIdentityConstraint@xercesc_3_1@@@2@AAVXSerializeEngine@2@@Z 12053917 f   XTemplateSerializer.obj
 0001:0005296e       ?loadObject@XTemplateSerializer@xercesc_3_1@@SAXPAPAV?$RefVectorOf@VIdentityConstraint@xercesc_3_1@@@2@H_NAAVXSerializeEngine@2@@Z 1205396e f   XTemplateSerializer.obj
 0001:00052a15       ?loadObject@XTemplateSerializer@xercesc_3_1@@SAXPAPAV?$RefVectorOf@VXMLNumber@xercesc_3_1@@@2@H_NW4NumberType@XMLNumber@2@AAVXSerializeEngine@2@@Z 12053a15 f   XTemplateSerializer.obj
 0001:00052ad1       ?loadObject@XTemplateSerializer@xercesc_3_1@@SAXPAPAV?$RefVectorOf@VXercesLocationPath@xercesc_3_1@@@2@H_NAAVXSerializeEngine@2@@Z 12053ad1 f   XTemplateSerializer.obj
 0001:00052b7c       ?loadObject@XTemplateSerializer@xercesc_3_1@@SAXPAPAV?$RefVectorOf@VXercesStep@xercesc_3_1@@@2@H_NAAVXSerializeEngine@2@@Z 12053b7c f   XTemplateSerializer.obj
 0001:00052c27       ?storeObject@XTemplateSerializer@xercesc_3_1@@SAXQAV?$RefHashTableOf@VKVStringPair@xercesc_3_1@@UStringHasher@2@@2@AAVXSerializeEngine@2@@Z 12053c27 f   XTemplateSerializer.obj
 0001:00052d42       ?loadObject@XTemplateSerializer@xercesc_3_1@@SAXPAPAV?$RefHashTableOf@VKVStringPair@xercesc_3_1@@UStringHasher@2@@2@H_NAAVXSerializeEngine@2@@Z 12053d42 f   XTemplateSerializer.obj
 0001:00052df8       ?storeObject@XTemplateSerializer@xercesc_3_1@@SAXQAV?$RefHashTableOf@VXMLAttDef@xercesc_3_1@@UStringHasher@2@@2@AAVXSerializeEngine@2@@Z 12053df8 f   XTemplateSerializer.obj
 0001:00052f13       ?loadObject@XTemplateSerializer@xercesc_3_1@@SAXPAPAV?$RefHashTableOf@VXMLAttDef@xercesc_3_1@@UStringHasher@2@@2@H_NAAVXSerializeEngine@2@@Z 12053f13 f   XTemplateSerializer.obj
 0001:00052fda       ?storeObject@XTemplateSerializer@xercesc_3_1@@SAXQAV?$RefHashTableOf@VDTDAttDef@xercesc_3_1@@UStringHasher@2@@2@AAVXSerializeEngine@2@@Z 12053fda f   XTemplateSerializer.obj
 0001:000530f5       ?loadObject@XTemplateSerializer@xercesc_3_1@@SAXPAPAV?$RefHashTableOf@VDTDAttDef@xercesc_3_1@@UStringHasher@2@@2@H_NAAVXSerializeEngine@2@@Z 120540f5 f   XTemplateSerializer.obj
 0001:000531ae       ?storeObject@XTemplateSerializer@xercesc_3_1@@SAXQAV?$RefHashTableOf@VComplexTypeInfo@xercesc_3_1@@UStringHasher@2@@2@AAVXSerializeEngine@2@@Z 120541ae f   XTemplateSerializer.obj
 0001:000532c9       ?loadObject@XTemplateSerializer@xercesc_3_1@@SAXPAPAV?$RefHashTableOf@VComplexTypeInfo@xercesc_3_1@@UStringHasher@2@@2@H_NAAVXSerializeEngine@2@@Z 120542c9 f   XTemplateSerializer.obj
 0001:0005338d       ?storeObject@XTemplateSerializer@xercesc_3_1@@SAXQAV?$RefHashTableOf@VXercesGroupInfo@xercesc_3_1@@UStringHasher@2@@2@AAVXSerializeEngine@2@@Z 1205438d f   XTemplateSerializer.obj
 0001:000534c1       ?loadObject@XTemplateSerializer@xercesc_3_1@@SAXPAPAV?$RefHashTableOf@VXercesGroupInfo@xercesc_3_1@@UStringHasher@2@@2@H_NAAVXSerializeEngine@2@@Z 120544c1 f   XTemplateSerializer.obj
 0001:000535a9       ?storeObject@XTemplateSerializer@xercesc_3_1@@SAXQAV?$RefHashTableOf@VXercesAttGroupInfo@xercesc_3_1@@UStringHasher@2@@2@AAVXSerializeEngine@2@@Z 120545a9 f   XTemplateSerializer.obj
 0001:000536c4       ?loadObject@XTemplateSerializer@xercesc_3_1@@SAXPAPAV?$RefHashTableOf@VXercesAttGroupInfo@xercesc_3_1@@UStringHasher@2@@2@H_NAAVXSerializeEngine@2@@Z 120546c4 f   XTemplateSerializer.obj
 0001:000537a2       ?storeObject@XTemplateSerializer@xercesc_3_1@@SAXQAV?$RefHashTableOf@VXMLRefInfo@xercesc_3_1@@UStringHasher@2@@2@AAVXSerializeEngine@2@@Z 120547a2 f   XTemplateSerializer.obj
 0001:000538ca       ?loadObject@XTemplateSerializer@xercesc_3_1@@SAXPAPAV?$RefHashTableOf@VXMLRefInfo@xercesc_3_1@@UStringHasher@2@@2@H_NAAVXSerializeEngine@2@@Z 120548ca f   XTemplateSerializer.obj
 0001:000539ab       ?storeObject@XTemplateSerializer@xercesc_3_1@@SAXQAV?$RefHashTableOf@VDatatypeValidator@xercesc_3_1@@UStringHasher@2@@2@AAVXSerializeEngine@2@@Z 120549ab f   XTemplateSerializer.obj
 0001:00053ac7       ?loadObject@XTemplateSerializer@xercesc_3_1@@SAXPAPAV?$RefHashTableOf@VDatatypeValidator@xercesc_3_1@@UStringHasher@2@@2@H_NAAVXSerializeEngine@2@@Z 12054ac7 f   XTemplateSerializer.obj
 0001:00053ca8       ?storeObject@XTemplateSerializer@xercesc_3_1@@SAXQAV?$RefHashTableOf@VGrammar@xercesc_3_1@@UStringHasher@2@@2@AAVXSerializeEngine@2@@Z 12054ca8 f   XTemplateSerializer.obj
 0001:00053d84       ?loadObject@XTemplateSerializer@xercesc_3_1@@SAXPAPAV?$RefHashTableOf@VGrammar@xercesc_3_1@@UStringHasher@2@@2@H_NAAVXSerializeEngine@2@@Z 12054d84 f   XTemplateSerializer.obj
