 xerces-c-3-1-4

 Timestamp is 59254cd1 (Wed May 24 11:05:21 2017)

 Preferred load address is 0000000012000000

 Start         Length     Name                   Class
 0001:00000000 000fb29fH .text                   CODE
 0001:000fb2a0 00011438H .text$x                 CODE
 0001:0010c6d8 0000009cH .text$yc                CODE
 0001:0010c774 0000018dH .text$yd                CODE
 0002:00000000 00000390H .idata$5                DATA
 0002:00000390 00000008H .CRT$XCA                DATA
 0002:00000398 00000068H .CRT$XCU                DATA
 0002:00000400 00000008H .CRT$XCZ                DATA
 0002:00000408 00000008H .CRT$XIA                DATA
 0002:00000410 00000008H .CRT$XIAA               DATA
 0002:00000418 00000008H .CRT$XIZ                DATA
 0002:00000420 0004e098H .rdata                  DATA
 0002:0004e4b8 0000009eH .rdata$debug            DATA
 0002:0004e560 0001194cH .rdata$r                DATA
 0002:0005feb0 00000008H .rtc$IAA                DATA
 0002:0005feb8 00000008H .rtc$IZZ                DATA
 0002:0005fec0 00000008H .rtc$TAA                DATA
 0002:0005fec8 00000008H .rtc$TZZ                DATA
 0002:0005fed0 000260f8H .xdata                  DATA
 0002:00085fc8 00000d84H .xdata$x                DATA
 0002:00086d4c 0000003cH .idata$2                DATA
 0002:00086d88 00000014H .idata$3                DATA
 0002:00086da0 00000390H .idata$4                DATA
 0002:00087130 00000716H .idata$6                DATA
 0002:00087850 00085c0cH .edata                  DATA
 0003:00000000 00029b30H .data                   DATA
 0003:00029b30 00000818H .bss                    DATA
 0004:00000000 0000db0cH .pdata                  DATA
 0005:00000000 000009a0H .rsrc$01                DATA
 0005:000009a0 00013140H .rsrc$02                DATA

  Address         Publics by Value              Rva+Base               Lib:Object

 0000:00000000       ___safe_se_handler_count   0000000000000000     <absolute>
 0000:00000000       ___safe_se_handler_table   0000000000000000     <absolute>
 0000:00000000       __ImageBase                0000000012000000     <linker-defined>
 0001:00000000       ??1MemoryManagerImpl@xercesc_3_1@@UEAA@XZ 0000000012001000 f i PlatformUtils.obj
 0001:00000000       ??1MemoryManager@xercesc_3_1@@UEAA@XZ 0000000012001000 f i Base64.obj
 0001:0000000c       ??0MemoryManager@xercesc_3_1@@IEAA@XZ 000000001200100c f i Base64.obj
 0001:0000001c       ?isPad@Base64@xercesc_3_1@@CA_NAEBE@Z 000000001200101c f i Base64.obj
 0001:00000024       ?set1stOctet@Base64@xercesc_3_1@@CAEAEBE0@Z 0000000012001024 f i Base64.obj
 0001:00000034       ?set2ndOctet@Base64@xercesc_3_1@@CAEAEBE0@Z 0000000012001034 f i Base64.obj
 0001:00000044       ?set3rdOctet@Base64@xercesc_3_1@@CAEAEBE0@Z 0000000012001044 f i Base64.obj
 0001:00000050       ?split1stOctet@Base64@xercesc_3_1@@CAXAEBEAEAE1@Z 0000000012001050 f i Base64.obj
 0001:00000064       ?split2ndOctet@Base64@xercesc_3_1@@CAXAEBEAEAE1@Z 0000000012001064 f i Base64.obj
 0001:00000078       ?split3rdOctet@Base64@xercesc_3_1@@CAXAEBEAEAE1@Z 0000000012001078 f i Base64.obj
 0001:00000088       ??4XMemory@xercesc_3_1@@QEAAAEAV01@AEBV01@@Z 0000000012001088 f i Base64.obj
 0001:00000088       ??4XMLChar1_1@xercesc_3_1@@QEAAAEAV01@AEBV01@@Z 0000000012001088 f i Base64.obj
 0001:00000088       ??0XUtil@xercesc_3_1@@AEAA@XZ 0000000012001088 f i SchemaInfo.obj
 0001:00000088       ??4XMLString@xercesc_3_1@@QEAAAEAV01@AEBV01@@Z 0000000012001088 f i Base64.obj
 0001:00000088       ??4XMLPlatformUtils@xercesc_3_1@@QEAAAEAV01@AEBV01@@Z 0000000012001088 f i Base64.obj
 0001:00000088       ??0XMemory@xercesc_3_1@@IEAA@XZ 0000000012001088 f i Base64.obj
 0001:00000088       ??4Base64@xercesc_3_1@@QEAAAEAV01@AEBV01@@Z 0000000012001088 f i Base64.obj
 0001:00000088       ??4DOMImplementationRegistry@xercesc_3_1@@QEAAAEAV01@AEBV01@@Z 0000000012001088 f i AbstractDOMParser.obj
 0001:00000088       ??4XSConstants@xercesc_3_1@@QEAAAEAV01@AEBV01@@Z 0000000012001088 f i XMLAttr.obj
 0001:00000088       ??4RegxUtil@xercesc_3_1@@QEAAAEAV01@AEBV01@@Z 0000000012001088 f i RegularExpression.obj
 0001:00000088       ??4PSVIUni@xercesc_3_1@@QEAAAEAV01@AEBV01@@Z 0000000012001088 f i PSVIUni.obj
 0001:00000088       ??4XMLScannerResolver@xercesc_3_1@@QEAAAEAV01@AEBV01@@Z 0000000012001088 f i XMLScannerResolver.obj
 0001:00000088       ??4XMLUni@xercesc_3_1@@QEAAAEAV01@AEBV01@@Z 0000000012001088 f i Base64.obj
 0001:00000088       ??4XPathSymbols@xercesc_3_1@@QEAAAEAV01@AEBV01@@Z 0000000012001088 f i XercesXPath.obj
 0001:00000088       ??4PSVIDefs@xercesc_3_1@@QEAAAEAV01@AEBV01@@Z 0000000012001088 f i XMLElementDecl.obj
 0001:00000088       ??4XercesNamespaceResolver@xercesc_3_1@@QEAAAEAV01@AEBV01@@Z 0000000012001088 f i XMLGrammarPoolImpl.obj
 0001:00000088       ??4XMLBufferFullHandler@xercesc_3_1@@QEAAAEAV01@AEBV01@@Z 0000000012001088 f i Base64.obj
 0001:00000088       ??4XMLChar1_0@xercesc_3_1@@QEAAAEAV01@AEBV01@@Z 0000000012001088 f i Base64.obj
 0001:00000088       ??4OutOfMemoryException@xercesc_3_1@@QEAAAEAV01@AEBV01@@Z 0000000012001088 f i PlatformUtils.obj
 0001:00000088       ??0OutOfMemoryException@xercesc_3_1@@QEAA@AEBV01@@Z 0000000012001088 f i PlatformUtils.obj
 0001:00000088       ??4SchemaSymbols@xercesc_3_1@@QEAAAEAV01@AEBV01@@Z 0000000012001088 f i XMLAttr.obj
 0001:00000088       ??4XercesElementWildcard@xercesc_3_1@@QEAAAEAV01@AEBV01@@Z 0000000012001088 f i AllContentModel.obj
 0001:00000088       ??4XIncludeDOMDocumentProcessor@xercesc_3_1@@QEAAAEAV01@AEBV01@@Z 0000000012001088 f i XIncludeDOMDocumentProcessor.obj
 0001:00000088       ??4XMLUniCharacter@xercesc_3_1@@QEAAAEAV01@AEBV01@@Z 0000000012001088 f i RangeTokenMap.obj
 0001:00000088       ??0OutOfMemoryException@xercesc_3_1@@QEAA@XZ 0000000012001088 f i PlatformUtils.obj
 0001:00000088       ??4XUtil@xercesc_3_1@@QEAAAEAV01@AEBV01@@Z 0000000012001088 f i SchemaInfo.obj
 0001:00000088       ?getExceptionMemoryManager@MemoryManagerImpl@xercesc_3_1@@UEAAPEAVMemoryManager@2@XZ 0000000012001088 f i MemoryManagerImpl.obj
 0001:0000008c       ??0DOMError@xercesc_3_1@@IEAA@XZ 000000001200108c f i Base64.obj
 0001:0000009c       ??1DOMError@xercesc_3_1@@UEAA@XZ 000000001200109c f i Base64.obj
 0001:000000a8       ??_EDOMError@xercesc_3_1@@UEAAPEAXI@Z 00000000120010a8 f i Base64.obj
 0001:00000114       ??0XMLErrorReporter@xercesc_3_1@@IEAA@XZ 0000000012001114 f i Base64.obj
 0001:00000124       ??_EXMLErrorReporter@xercesc_3_1@@UEAAPEAXI@Z 0000000012001124 f i Base64.obj
 0001:00000190       ?getSrcFile@XMLException@xercesc_3_1@@QEBAPEBDXZ 0000000012001190 f i Base64.obj
 0001:000001a4       ?getErrorType@XMLException@xercesc_3_1@@QEBA?AW4ErrTypes@XMLErrorReporter@2@XZ 00000000120011a4 f i Base64.obj
 0001:000001e0       ??0ArrayIndexOutOfBoundsException@xercesc_3_1@@QEAA@QEBD_KW4Codes@XMLExcepts@1@PEAVMemoryManager@1@@Z 00000000120011e0 f i Base64.obj
 0001:0000022c       ??0ArrayIndexOutOfBoundsException@xercesc_3_1@@QEAA@AEBV01@@Z 000000001200122c f i Base64.obj
 0001:00000250       ??0ArrayIndexOutOfBoundsException@xercesc_3_1@@QEAA@QEBD_KW4Codes@XMLExcepts@1@QEB_W333PEAVMemoryManager@1@@Z 0000000012001250 f i Base64.obj
 0001:000002c4       ??0ArrayIndexOutOfBoundsException@xercesc_3_1@@QEAA@QEBD_KW4Codes@XMLExcepts@1@0000PEAVMemoryManager@1@@Z 00000000120012c4 f i Base64.obj
 0001:00000338       ??1ArrayIndexOutOfBoundsException@xercesc_3_1@@UEAA@XZ 0000000012001338 f i Base64.obj
 0001:00000348       ?duplicate@ArrayIndexOutOfBoundsException@xercesc_3_1@@UEBAPEAVXMLException@2@XZ 0000000012001348 f i Base64.obj
 0001:000003ac       ?getType@ArrayIndexOutOfBoundsException@xercesc_3_1@@UEBAPEB_WXZ 00000000120013ac f i Base64.obj
 0001:000003b4       ??_EArrayIndexOutOfBoundsException@xercesc_3_1@@UEAAPEAXI@Z 00000000120013b4 f i Base64.obj
 0001:00000430       ??0PanicHandler@xercesc_3_1@@IEAA@XZ 0000000012001430 f i Base64.obj
 0001:00000440       ??1DefaultPanicHandler@xercesc_3_1@@UEAA@XZ 0000000012001440 f i DefaultPanicHandler.obj
 0001:00000440       ??1PanicHandler@xercesc_3_1@@UEAA@XZ 0000000012001440 f i Base64.obj
 0001:0000044c       ??_EPanicHandler@xercesc_3_1@@UEAAPEAXI@Z 000000001200144c f i Base64.obj
 0001:000004b8       ??_EXMLDeleter@xercesc_3_1@@UEAAPEAXI@Z 00000000120014b8 f i Base64.obj
 0001:00000524       ??0XMLPlatformUtilsException@xercesc_3_1@@QEAA@QEBD_KW4Codes@XMLExcepts@1@PEAVMemoryManager@1@@Z 0000000012001524 f i Base64.obj
 0001:00000570       ??0XMLPlatformUtilsException@xercesc_3_1@@QEAA@AEBV01@@Z 0000000012001570 f i Base64.obj
 0001:00000594       ??0XMLPlatformUtilsException@xercesc_3_1@@QEAA@QEBD_KW4Codes@XMLExcepts@1@QEB_W333PEAVMemoryManager@1@@Z 0000000012001594 f i Base64.obj
 0001:00000608       ??0XMLPlatformUtilsException@xercesc_3_1@@QEAA@QEBD_KW4Codes@XMLExcepts@1@0000PEAVMemoryManager@1@@Z 0000000012001608 f i Base64.obj
 0001:0000067c       ??1XMLPlatformUtilsException@xercesc_3_1@@UEAA@XZ 000000001200167c f i Base64.obj
 0001:0000068c       ?duplicate@XMLPlatformUtilsException@xercesc_3_1@@UEBAPEAVXMLException@2@XZ 000000001200168c f i Base64.obj
 0001:000006f0       ?getType@XMLPlatformUtilsException@xercesc_3_1@@UEBAPEB_WXZ 00000000120016f0 f i Base64.obj
 0001:000006f8       ??_EXMLPlatformUtilsException@xercesc_3_1@@UEAAPEAXI@Z 00000000120016f8 f i Base64.obj
 0001:00000774       ?alignPointerForNewBlockAllocation@XMLPlatformUtils@xercesc_3_1@@SA_K_K@Z 0000000012001774 f i Base64.obj
 0001:0000078c       ??1XMLDeleter@xercesc_3_1@@UEAA@XZ 000000001200178c f i Base64.obj
 0001:00000798       ??0XMLDeleter@xercesc_3_1@@IEAA@XZ 0000000012001798 f i Base64.obj
 0001:000007a8       ??0XMLBuffer@xercesc_3_1@@QEAA@_KQEAVMemoryManager@1@@Z 00000000120017a8 f i Base64.obj
 0001:000007f8       ??1XMLBuffer@xercesc_3_1@@QEAA@XZ 00000000120017f8 f i Base64.obj
 0001:00000808       ?setFullHandler@XMLBuffer@xercesc_3_1@@QEAAXPEAVXMLBufferFullHandler@2@_K@Z 0000000012001808 f i Base64.obj
 0001:00000838       ?append@XMLBuffer@xercesc_3_1@@QEAAX_W@Z 0000000012001838 f i Base64.obj
 0001:00000878       ?append@XMLBuffer@xercesc_3_1@@QEAAXQEB_W_K@Z 0000000012001878 f i Base64.obj
 0001:000008dc       ?append@XMLBuffer@xercesc_3_1@@QEAAXQEB_W@Z 00000000120018dc f i Base64.obj
 0001:0000094c       ?set@XMLBuffer@xercesc_3_1@@QEAAXQEB_W_K@Z 000000001200194c f i Base64.obj
 0001:000009b0       ?set@XMLBuffer@xercesc_3_1@@QEAAXQEB_W@Z 00000000120019b0 f i Base64.obj
 0001:000009d0       ?getRawBuffer@XMLBuffer@xercesc_3_1@@QEAAPEA_WXZ 00000000120019d0 f i Base64.obj
 0001:000009d0       ?getRawBuffer@XMLBuffer@xercesc_3_1@@QEBAPEB_WXZ 00000000120019d0 f i Base64.obj
 0001:000009e4       ?reset@XMLBuffer@xercesc_3_1@@QEAAXXZ 00000000120019e4 f i Base64.obj
 0001:000009ec       ?isEmpty@XMLBuffer@xercesc_3_1@@QEBA_NXZ 00000000120019ec f i Base64.obj
 0001:000009f8       ?setInUse@XMLBuffer@xercesc_3_1@@QEAAX_N@Z 00000000120019f8 f i Base64.obj
 0001:000009f8       ?hasDefaults@DOMAttrMapImpl@xercesc_3_1@@UEAAX_N@Z 00000000120019f8 f i AbstractDOMParser.obj
 0001:000009fc       ??_FXMLBuffer@xercesc_3_1@@QEAAXXZ 00000000120019fc f i Base64.obj
 0001:00000a50       ??1XMLBufferFullHandler@xercesc_3_1@@UEAA@XZ 0000000012001a50 f i Base64.obj
 0001:00000a5c       ??0XMLBufferFullHandler@xercesc_3_1@@QEAA@XZ 0000000012001a5c f i Base64.obj
 0001:00000a5c       ??0XMLBufferFullHandler@xercesc_3_1@@QEAA@AEBV01@@Z 0000000012001a5c f i Base64.obj
 0001:00000a6c       ??_EXMLBufferFullHandler@xercesc_3_1@@UEAAPEAXI@Z 0000000012001a6c f i Base64.obj
 0001:00000ad8       ?moveChars@XMLString@xercesc_3_1@@SAXQEA_WQEB_W_K@Z 0000000012001ad8 f i Base64.obj
 0001:00000ae4       ?stringLen@XMLString@xercesc_3_1@@SA_KQEB_W@Z 0000000012001ae4 f i Base64.obj
 0001:00000b08       ?replicate@XMLString@xercesc_3_1@@SAPEA_WQEB_WQEAVMemoryManager@2@@Z 0000000012001b08 f i Base64.obj
 0001:00000b70       ?startsWith@XMLString@xercesc_3_1@@SA_NQEB_W0@Z 0000000012001b70 f i Base64.obj
 0001:00000bac       ?startsWithI@XMLString@xercesc_3_1@@SA_NQEB_W0@Z 0000000012001bac f i Base64.obj
 0001:00000bfc       ?endsWith@XMLString@xercesc_3_1@@SA_NQEB_W0@Z 0000000012001bfc f i Base64.obj
 0001:00000c64       ?validateRegion@XMLString@xercesc_3_1@@CA_NQEB_WH0H_K@Z 0000000012001c64 f i Base64.obj
 0001:00000cd4       ?equals@XMLString@xercesc_3_1@@SA_NPEB_W0@Z 0000000012001cd4 f i Base64.obj
 0001:00000d28       ?equalsN@XMLString@xercesc_3_1@@SA_NPEB_W0_K@Z 0000000012001d28 f i Base64.obj
 0001:00000d8c       ?equals@XMLString@xercesc_3_1@@SA_NPEBD0@Z 0000000012001d8c f i Base64.obj
 0001:00000dd8       ?equalsN@XMLString@xercesc_3_1@@SA_NPEBD0_K@Z 0000000012001dd8 f i Base64.obj
 0001:00000e30       ?lastIndexOf@XMLString@xercesc_3_1@@SAHQEB_W_W@Z 0000000012001e30 f i Base64.obj
 0001:00000e84       ?hash@XMLString@xercesc_3_1@@SA_KQEB_W_K@Z 0000000012001e84 f i Base64.obj
 0001:00000ecc       ?hashN@XMLString@xercesc_3_1@@SA_KQEB_W_K1@Z 0000000012001ecc f i Base64.obj
 0001:00000f0c       ?isXMLLetter@XMLChar1_0@xercesc_3_1@@SA_N_W0@Z 0000000012001f0c f i Base64.obj
 0001:00000f40       ?isFirstNameChar@XMLChar1_0@xercesc_3_1@@SA_N_W0@Z 0000000012001f40 f i Base64.obj
 0001:00000f5c       ?isFirstNCNameChar@XMLChar1_0@xercesc_3_1@@SA_N_W0@Z 0000000012001f5c f i Base64.obj
 0001:00000f88       ?isNameChar@XMLChar1_0@xercesc_3_1@@SA_N_W0@Z 0000000012001f88 f i Base64.obj
 0001:00000fa8       ?isNCNameChar@XMLChar1_0@xercesc_3_1@@SA_N_W0@Z 0000000012001fa8 f i Base64.obj
 0001:00000fc4       ?isPlainContentChar@XMLChar1_0@xercesc_3_1@@SA_N_W0@Z 0000000012001fc4 f i Base64.obj
 0001:00001008       ?isSpecialStartTagChar@XMLChar1_0@xercesc_3_1@@SA_N_W0@Z 0000000012002008 f i Base64.obj
 0001:00001028       ?isXMLChar@XMLChar1_0@xercesc_3_1@@SA_N_W0@Z 0000000012002028 f i Base64.obj
 0001:0000106c       ?isWhitespace@XMLChar1_0@xercesc_3_1@@SA_N_W@Z 000000001200206c f i Base64.obj
 0001:00001080       ?isWhitespace@XMLChar1_0@xercesc_3_1@@SA_N_W0@Z 0000000012002080 f i Base64.obj
 0001:0000109c       ?isControlChar@XMLChar1_0@xercesc_3_1@@SA_N_W0@Z 000000001200209c f i Base64.obj
 0001:000010bc       ?isNELRecognized@XMLChar1_0@xercesc_3_1@@SA_NXZ 00000000120020bc f i Base64.obj
 0001:000010bc       ?isNELRecognized@XMLPlatformUtils@xercesc_3_1@@SA_NXZ 00000000120020bc f i PlatformUtils.obj
 0001:000010c4       ?isXMLLetter@XMLChar1_1@xercesc_3_1@@SA_N_W0@Z 00000000120020c4 f i Base64.obj
 0001:000010f0       ?isFirstNameChar@XMLChar1_1@xercesc_3_1@@SA_N_W0@Z 00000000120020f0 f i Base64.obj
 0001:00001134       ?isFirstNCNameChar@XMLChar1_1@xercesc_3_1@@SA_N_W0@Z 0000000012002134 f i Base64.obj
 0001:00001188       ?isNameChar@XMLChar1_1@xercesc_3_1@@SA_N_W0@Z 0000000012002188 f i Base64.obj
 0001:000011cc       ?isNCNameChar@XMLChar1_1@xercesc_3_1@@SA_N_W0@Z 00000000120021cc f i Base64.obj
 0001:00001210       ?isPlainContentChar@XMLChar1_1@xercesc_3_1@@SA_N_W0@Z 0000000012002210 f i Base64.obj
 0001:00001254       ?isSpecialStartTagChar@XMLChar1_1@xercesc_3_1@@SA_N_W0@Z 0000000012002254 f i Base64.obj
 0001:00001274       ?isXMLChar@XMLChar1_1@xercesc_3_1@@SA_N_W0@Z 0000000012002274 f i Base64.obj
 0001:000012b8       ?isWhitespace@XMLChar1_1@xercesc_3_1@@SA_N_W0@Z 00000000120022b8 f i Base64.obj
 0001:000012d4       ?isControlChar@XMLChar1_1@xercesc_3_1@@SA_N_W0@Z 00000000120022d4 f i Base64.obj
 0001:000012f4       ??0TranscodingException@xercesc_3_1@@QEAA@QEBD_KW4Codes@XMLExcepts@1@PEAVMemoryManager@1@@Z 00000000120022f4 f i Base64.obj
 0001:00001340       ??0TranscodingException@xercesc_3_1@@QEAA@AEBV01@@Z 0000000012002340 f i Base64.obj
 0001:00001364       ??0TranscodingException@xercesc_3_1@@QEAA@QEBD_KW4Codes@XMLExcepts@1@QEB_W333PEAVMemoryManager@1@@Z 0000000012002364 f i Base64.obj
 0001:000013d8       ??0TranscodingException@xercesc_3_1@@QEAA@QEBD_KW4Codes@XMLExcepts@1@0000PEAVMemoryManager@1@@Z 00000000120023d8 f i Base64.obj
 0001:0000144c       ??1TranscodingException@xercesc_3_1@@UEAA@XZ 000000001200244c f i Base64.obj
 0001:0000145c       ?duplicate@TranscodingException@xercesc_3_1@@UEBAPEAVXMLException@2@XZ 000000001200245c f i Base64.obj
 0001:000014c0       ?getType@TranscodingException@xercesc_3_1@@UEBAPEB_WXZ 00000000120024c0 f i Base64.obj
 0001:000014c8       ??_ETranscodingException@xercesc_3_1@@UEAAPEAXI@Z 00000000120024c8 f i Base64.obj
 0001:00001544       ?isNameChar@XMLReader@xercesc_3_1@@QEBA_N_W@Z 0000000012002544 f i Base64.obj
 0001:0000155c       ?isNCNameChar@XMLReader@xercesc_3_1@@QEBA_N_W@Z 000000001200255c f i Base64.obj
 0001:00001570       ?isPlainContentChar@XMLReader@xercesc_3_1@@QEBA_N_W@Z 0000000012002570 f i Base64.obj
 0001:00001588       ?isFirstNameChar@XMLReader@xercesc_3_1@@QEBA_N_W@Z 0000000012002588 f i Base64.obj
 0001:0000159c       ?isFirstNCNameChar@XMLReader@xercesc_3_1@@QEBA_N_W@Z 000000001200259c f i Base64.obj
 0001:000015c0       ?isSpecialStartTagChar@XMLReader@xercesc_3_1@@QEBA_N_W@Z 00000000120025c0 f i Base64.obj
 0001:000015d8       ?isXMLChar@XMLReader@xercesc_3_1@@QEBA_N_W@Z 00000000120025d8 f i Base64.obj
 0001:000015f0       ?isXMLLetter@XMLReader@xercesc_3_1@@QEBA_N_W@Z 00000000120025f0 f i Base64.obj
 0001:00001618       ?isWhitespace@XMLReader@xercesc_3_1@@QEBA_N_W@Z 0000000012002618 f i Base64.obj
 0001:0000162c       ?isControlChar@XMLReader@xercesc_3_1@@QEBA_N_W@Z 000000001200262c f i Base64.obj
 0001:00001644       ?charsLeftInBuffer@XMLReader@xercesc_3_1@@QEBA_KXZ 0000000012002644 f i Base64.obj
 0001:00001650       ?getColumnNumber@XMLReader@xercesc_3_1@@QEBA_KXZ 0000000012002650 f i Base64.obj
 0001:00001658       ?getEncodingStr@XMLReader@xercesc_3_1@@QEBAPEB_WXZ 0000000012002658 f i Base64.obj
 0001:00001660       ?getLineNumber@XMLReader@xercesc_3_1@@QEBA_KXZ 0000000012002660 f i Base64.obj
 0001:00001668       ?getNoMoreFlag@XMLReader@xercesc_3_1@@QEBA_NXZ 0000000012002668 f i Base64.obj
 0001:00001670       ?getPublicId@XMLReader@xercesc_3_1@@QEBAPEB_WXZ 0000000012002670 f i Base64.obj
 0001:00001678       ?getReaderNum@XMLReader@xercesc_3_1@@QEBA_KXZ 0000000012002678 f i Base64.obj
 0001:00001680       ?getRefFrom@XMLReader@xercesc_3_1@@QEBA?AW4RefFrom@12@XZ 0000000012002680 f i Base64.obj
 0001:00001688       ?getSource@XMLReader@xercesc_3_1@@QEBA?AW4Sources@12@XZ 0000000012002688 f i Base64.obj
 0001:00001690       ?getSystemId@XMLReader@xercesc_3_1@@QEBAPEB_WXZ 0000000012002690 f i Base64.obj
 0001:00001698       ?getThrowAtEnd@XMLReader@xercesc_3_1@@QEBA_NXZ 0000000012002698 f i Base64.obj
 0001:000016a0       ?getType@XMLReader@xercesc_3_1@@QEBA?AW4Types@12@XZ 00000000120026a0 f i Base64.obj
 0001:000016a8       ?setReaderNum@XMLReader@xercesc_3_1@@QEAAX_K@Z 00000000120026a8 f i Base64.obj
 0001:000016b0       ?setThrowAtEnd@XMLReader@xercesc_3_1@@QEAAX_N@Z 00000000120026b0 f i Base64.obj
 0001:000016b8       ?setXMLVersion@XMLReader@xercesc_3_1@@QEAAXW4XMLVersion@12@@Z 00000000120026b8 f i Base64.obj
 0001:000016f0       ?movePlainContentChars@XMLReader@xercesc_3_1@@QEAAXAEAVXMLBuffer@2@@Z 00000000120026f0 f i Base64.obj
 0001:0000179c       ?getNextCharIfNot@XMLReader@xercesc_3_1@@QEAA_N_WAEA_W@Z 000000001200279c f i Base64.obj
 0001:0000181c       ?getNextChar@XMLReader@xercesc_3_1@@QEAA_NAEA_W@Z 000000001200281c f i Base64.obj
 0001:0000188c       ?peekNextChar@XMLReader@xercesc_3_1@@QEAA_NAEA_W@Z 000000001200288c f i Base64.obj
 0001:00001910       ?encode@Base64@xercesc_3_1@@SAPEAEQEBE_KPEA_KQEAVMemoryManager@2@@Z 0000000012002910 f   Base64.obj
 0001:00001b48       ?getDataLength@Base64@xercesc_3_1@@SAHQEB_WQEAVMemoryManager@2@W4Conformance@12@@Z 0000000012002b48 f   Base64.obj
 0001:00001b98       ?decode@Base64@xercesc_3_1@@SAPEAEQEBEPEA_KQEAVMemoryManager@2@W4Conformance@12@@Z 0000000012002b98 f   Base64.obj
 0001:00001bf4       ?decodeToXMLByte@Base64@xercesc_3_1@@SAPEAEQEB_WPEA_KQEAVMemoryManager@2@W4Conformance@12@@Z 0000000012002bf4 f   Base64.obj
 0001:00001ce8       ?getCanonicalRepresentation@Base64@xercesc_3_1@@SAPEA_WQEB_WQEAVMemoryManager@2@W4Conformance@12@@Z 0000000012002ce8 f   Base64.obj
 0001:00001e7c       ?decode@Base64@xercesc_3_1@@CAPEAEQEBEPEA_KAEAPEAEQEAVMemoryManager@2@W4Conformance@12@@Z 0000000012002e7c f   Base64.obj
 0001:00002248       ?isData@Base64@xercesc_3_1@@CA_NAEBE@Z 0000000012003248 f   Base64.obj
 0001:0000225c       ??1?$ArrayJanitor@E@xercesc_3_1@@QEAA@XZ 000000001200325c f i Base64.obj
 0001:0000229c       ??_EBinFileInputStream@xercesc_3_1@@UEAAPEAXI@Z 000000001200329c f i BinFileInputStream.obj
 0001:00002310       ??0BinFileInputStream@xercesc_3_1@@QEAA@QEB_WQEAVMemoryManager@1@@Z 0000000012003310 f   BinFileInputStream.obj
 0001:0000235c       ??0BinFileInputStream@xercesc_3_1@@QEAA@QEBDQEAVMemoryManager@1@@Z 000000001200335c f   BinFileInputStream.obj
 0001:000023a8       ??0BinFileInputStream@xercesc_3_1@@QEAA@QEAXQEAVMemoryManager@1@@Z 00000000120033a8 f   BinFileInputStream.obj
 0001:000023c0       ??1BinFileInputStream@xercesc_3_1@@UEAA@XZ 00000000120033c0 f   BinFileInputStream.obj
 0001:0000240c       ?getSize@BinFileInputStream@xercesc_3_1@@QEBA_KXZ 000000001200340c f   BinFileInputStream.obj
 0001:0000240c       ?getSize@BinFileOutputStream@xercesc_3_1@@QEBA_KXZ 000000001200340c f   BinFileOutputStream.obj
 0001:0000241c       ?reset@BinFileInputStream@xercesc_3_1@@QEAAXXZ 000000001200341c f   BinFileInputStream.obj
 0001:0000241c       ?reset@BinFileOutputStream@xercesc_3_1@@QEAAXXZ 000000001200341c f   BinFileOutputStream.obj
 0001:0000242c       ?curPos@BinFileInputStream@xercesc_3_1@@UEBA_KXZ 000000001200342c f   BinFileInputStream.obj
 0001:0000242c       ?curPos@BinFileOutputStream@xercesc_3_1@@UEBA_KXZ 000000001200342c f   BinFileOutputStream.obj
 0001:0000243c       ?readBytes@BinFileInputStream@xercesc_3_1@@UEAA_KQEAE_K@Z 000000001200343c f   BinFileInputStream.obj
 0001:00002454       ??_EBinInputStream@xercesc_3_1@@UEAAPEAXI@Z 0000000012003454 f i BinInputStream.obj
 0001:000024c8       ??1BinInputStream@xercesc_3_1@@UEAA@XZ 00000000120034c8 f   BinInputStream.obj
 0001:000024d4       ??0BinInputStream@xercesc_3_1@@IEAA@XZ 00000000120034d4 f   BinInputStream.obj
 0001:000024e4       ??_EBinMemInputStream@xercesc_3_1@@UEAAPEAXI@Z 00000000120034e4 f i BinMemInputStream.obj
 0001:00002558       ?reset@BinMemInputStream@xercesc_3_1@@QEAAXXZ 0000000012003558 f i BinMemInputStream.obj
 0001:00002560       ?getId@XMLAttDef@xercesc_3_1@@QEBA_KXZ 0000000012003560 f i XMLAttDef.obj
 0001:00002560       ?getName@XMLNotationDecl@xercesc_3_1@@QEBAPEB_WXZ 0000000012003560 f i XMLDTDDescription.obj
 0001:00002560       ?getUserInfo@XMLUri@xercesc_3_1@@QEBAPEB_WXZ 0000000012003560 f i XMLString.obj
 0001:00002560       ?getCurrentSchemaURL@SchemaInfo@xercesc_3_1@@QEBAPEA_WXZ 0000000012003560 f i IGXMLScanner.obj
 0001:00002560       ?getKey@KVStringPair@xercesc_3_1@@QEBAPEB_WXZ 0000000012003560 f i KVStringPair.obj
 0001:00002560       ?getBaseURI@XMLResourceIdentifier@xercesc_3_1@@QEBAPEB_WXZ 0000000012003560 f i DGXMLScanner.obj
 0001:00002560       ?getEncoding@DOMLSInputImpl@xercesc_3_1@@UEBAPEB_WXZ 0000000012003560 f i DOMImplementationImpl.obj
 0001:00002560       ?getSize@BinMemInputStream@xercesc_3_1@@QEBA_KXZ 0000000012003560 f i BinMemInputStream.obj
 0001:00002560       ?getTargetNamespace@XMLSchemaDescriptionImpl@xercesc_3_1@@UEBAPEB_WXZ 0000000012003560 f i XMLSchemaDescriptionImpl.obj
 0001:00002560       ?getDocTypeHandler@DTDScanner@xercesc_3_1@@QEBAPEBVDocTypeHandler@2@XZ 0000000012003560 f i DGXMLScanner.obj
 0001:00002560       ?getHost@XMLURL@xercesc_3_1@@QEBAPEB_WXZ 0000000012003560 f i PlatformUtils.obj
 0001:00002560       ?getByteOffset@DOMLocatorImpl@xercesc_3_1@@UEBA_KXZ 0000000012003560 f i DOMLSParserImpl.obj
 0001:00002560       ?getNodeName@DOMNotationImpl@xercesc_3_1@@UEBAPEB_WXZ 0000000012003560 f i DOMNotationImpl.obj
 0001:00002560       ?getSchemaType@DOMConfigurationImpl@xercesc_3_1@@QEBAPEB_WXZ 0000000012003560 f i DOMConfigurationImpl.obj
 0001:00002560       ?getSystemId@DOMLSOutputImpl@xercesc_3_1@@UEBAPEB_WXZ 0000000012003560 f i DOMImplementationImpl.obj
 0001:00002560       ?getElementDecl@ContentSpecNode@xercesc_3_1@@QEAAPEAVXMLElementDecl@2@XZ 0000000012003560 f i XMLGrammarPoolImpl.obj
 0001:00002560       ?getLeafCount@ContentLeafNameTypeVector@xercesc_3_1@@QEBA_KXZ 0000000012003560 f i ContentLeafNameTypeVector.obj
 0001:00002560       ?getValue@XMLEntityDecl@xercesc_3_1@@QEBAPEB_WXZ 0000000012003560 f i XMLDTDDescription.obj
 0001:00002560       ?getKey@XMLNotationDecl@xercesc_3_1@@QEBAPEB_WXZ 0000000012003560 f i XMLDTDDescription.obj
 0001:00002560       ?getPublicId@InputSource@xercesc_3_1@@UEBAPEB_WXZ 0000000012003560 f i LocalFileInputSource.obj
 0001:00002560       ?getMemoryManager@XMLTranscoder@xercesc_3_1@@QEBAPEAVMemoryManager@2@XZ 0000000012003560 f i PlatformUtils.obj
 0001:00002560       ?getNextOp@Op@xercesc_3_1@@QEBAPEBV12@XZ 0000000012003560 f i Op.obj
 0001:00002560       ?getSrcLine@XMLException@xercesc_3_1@@QEBA_KXZ 0000000012003560 f i Base64.obj
 0001:00002560       ?getSystemId@XSDLocator@xercesc_3_1@@UEBAPEB_WXZ 0000000012003560 f i IGXMLScanner2.obj
 0001:00002560       ?getLen@MemBufFormatTarget@xercesc_3_1@@QEBA_KXZ 0000000012003560 f i MemBufFormatTarget.obj
 0001:00002560       ?getReaderMgr@XMLValidator@xercesc_3_1@@IEBAPEBVReaderMgr@2@XZ 0000000012003560 f i XMLValidator.obj
 0001:00002560       ?getSelector@IdentityConstraint@xercesc_3_1@@QEBAPEAVIC_Selector@2@XZ 0000000012003560 f i XMLElementDecl.obj
 0001:00002560       ?getLocationPaths@XercesXPath@xercesc_3_1@@QEBAPEAV?$RefVectorOf@VXercesLocationPath@xercesc_3_1@@@2@XZ 0000000012003560 f i XMLGrammarPoolImpl.obj
 0001:00002560       ?getLocation@DOMErrorImpl@xercesc_3_1@@UEBAPEAVDOMLocator@2@XZ 0000000012003560 f i DOMLSParserImpl.obj
 0001:00002560       ?getNewLine@DOMLSSerializerImpl@xercesc_3_1@@UEBAPEB_WXZ 0000000012003560 f i DOMLSSerializerImpl.obj
 0001:00002560       ?getContentSpec@XercesGroupInfo@xercesc_3_1@@QEBAPEAVContentSpecNode@2@XZ 0000000012003560 f i XMLGrammarPoolImpl.obj
 0001:00002560       ?getElementDecl@ContentSpecNode@xercesc_3_1@@QEBAPEBVXMLElementDecl@2@XZ 0000000012003560 f i XMLGrammarPoolImpl.obj
 0001:00002560       ?getAttName@XMLAttr@xercesc_3_1@@QEBAPEAVQName@2@XZ 0000000012003560 f i XMLAttr.obj
 0001:00002560       ?getOffset@RegxParser@xercesc_3_1@@QEBA_KXZ 0000000012003560 f i ParserForXMLSchema.obj
 0001:00002560       ?getCurrentNode@DOMTreeWalkerImpl@xercesc_3_1@@UEAAPEAVDOMNode@2@XZ 0000000012003560 f i DOMTreeWalkerImpl.obj
 0001:00002560       ?getSchemaNormalizedValue@PSVIItem@xercesc_3_1@@QEAAPEB_WXZ 0000000012003560 f i PSVIAttribute.obj
 0001:00002560       ?getTokenFactory@RangeTokenMap@xercesc_3_1@@QEBAPEAVTokenFactory@2@XZ 0000000012003560 f i ASCIIRangeFactory.obj
 0001:00002560       ?curPos@BinMemOutputStream@xercesc_3_1@@UEBA_KXZ 0000000012003560 f i BinMemOutputStream.obj
 0001:00002560       ?getRootName@XMLDTDDescriptionImpl@xercesc_3_1@@UEBAPEB_WXZ 0000000012003560 f i XMLDTDDescriptionImpl.obj
 0001:00002560       ?getEntityDeclPool@ValidationContextImpl@xercesc_3_1@@UEBAPEBV?$NameIdPool@VDTDEntityDecl@xercesc_3_1@@@2@XZ 0000000012003560 f i ValidationContextImpl.obj
 0001:00002560       ?getDocTypeHandler@DTDScanner@xercesc_3_1@@QEAAPEAVDocTypeHandler@2@XZ 0000000012003560 f i DGXMLScanner.obj
 0001:00002560       ?getKey@KVStringPair@xercesc_3_1@@QEAAPEA_WXZ 0000000012003560 f i KVStringPair.obj
 0001:00002560       ?getReaderMgr@XMLValidator@xercesc_3_1@@IEAAPEAVReaderMgr@2@XZ 0000000012003560 f i XMLValidator.obj
 0001:00002560       ?getColumnNumber@SAXParseException@xercesc_3_1@@QEBA_KXZ 0000000012003560 f i SAXParseException.obj
 0001:00002568       ??0BinMemInputStream@xercesc_3_1@@QEAA@QEBE_KW4BufOpts@01@QEAVMemoryManager@1@@Z 0000000012003568 f   BinMemInputStream.obj
 0001:000025fc       ??1BinMemInputStream@xercesc_3_1@@UEAA@XZ 00000000120035fc f   BinMemInputStream.obj
 0001:00002648       ?readBytes@BinMemInputStream@xercesc_3_1@@UEAA_KQEAE_K@Z 0000000012003648 f   BinMemInputStream.obj
 0001:00002698       ??0BitSet@xercesc_3_1@@QEAA@_KQEAVMemoryManager@1@@Z 0000000012003698 f   BitSet.obj
 0001:000026bc       ??0BitSet@xercesc_3_1@@QEAA@AEBV01@@Z 00000000120036bc f   BitSet.obj
 0001:00002724       ??1BitSet@xercesc_3_1@@QEAA@XZ 0000000012003724 f   BitSet.obj
 0001:00002734       ?equals@BitSet@xercesc_3_1@@QEBA_NAEBV12@@Z 0000000012003734 f   BitSet.obj
 0001:00002778       ?get@BitSet@xercesc_3_1@@QEBA_N_K@Z 0000000012003778 f   BitSet.obj
 0001:000027a8       ?size@BitSet@xercesc_3_1@@QEBA_KXZ 00000000120037a8 f   BitSet.obj
 0001:000027b4       ?allAreCleared@BitSet@xercesc_3_1@@QEBA_NXZ 00000000120037b4 f   BitSet.obj
 0001:000027dc       ?allAreSet@BitSet@xercesc_3_1@@QEBA_NXZ 00000000120037dc f   BitSet.obj
 0001:00002804       ?clearAll@BitSet@xercesc_3_1@@QEAAXXZ 0000000012003804 f   BitSet.obj
 0001:00002820       ?clear@BitSet@xercesc_3_1@@QEAAX_K@Z 0000000012003820 f   BitSet.obj
 0001:00002864       ?set@BitSet@xercesc_3_1@@QEAAX_K@Z 0000000012003864 f   BitSet.obj
 0001:000028a4       ?andWith@BitSet@xercesc_3_1@@QEAAXAEBV12@@Z 00000000120038a4 f   BitSet.obj
 0001:000028f4       ?orWith@BitSet@xercesc_3_1@@QEAAXAEBV12@@Z 00000000120038f4 f   BitSet.obj
 0001:00002944       ?xorWith@BitSet@xercesc_3_1@@QEAAXAEBV12@@Z 0000000012003944 f   BitSet.obj
 0001:00002994       ?hash@BitSet@xercesc_3_1@@QEBA_K_K@Z 0000000012003994 f   BitSet.obj
 0001:000029c4       ?ensureCapacity@BitSet@xercesc_3_1@@AEAAX_K@Z 00000000120039c4 f   BitSet.obj
 0001:00002a70       ??0DefaultPanicHandler@xercesc_3_1@@QEAA@XZ 0000000012003a70 f i DefaultPanicHandler.obj
 0001:00002a80       ??_EDefaultPanicHandler@xercesc_3_1@@UEAAPEAXI@Z 0000000012003a80 f i DefaultPanicHandler.obj
 0001:00002af4       ?panic@DefaultPanicHandler@xercesc_3_1@@UEAAXW4PanicReasons@PanicHandler@2@@Z 0000000012003af4 f   DefaultPanicHandler.obj
 0001:00002b28       ??0IllegalArgumentException@xercesc_3_1@@QEAA@QEBD_KW4Codes@XMLExcepts@1@PEAVMemoryManager@1@@Z 0000000012003b28 f i EncodingValidator.obj
 0001:00002b74       ??0IllegalArgumentException@xercesc_3_1@@QEAA@AEBV01@@Z 0000000012003b74 f i EncodingValidator.obj
 0001:00002b98       ??0IllegalArgumentException@xercesc_3_1@@QEAA@QEBD_KW4Codes@XMLExcepts@1@QEB_W333PEAVMemoryManager@1@@Z 0000000012003b98 f i EncodingValidator.obj
 0001:00002c0c       ??0IllegalArgumentException@xercesc_3_1@@QEAA@QEBD_KW4Codes@XMLExcepts@1@0000PEAVMemoryManager@1@@Z 0000000012003c0c f i EncodingValidator.obj
 0001:00002c80       ??1IllegalArgumentException@xercesc_3_1@@UEAA@XZ 0000000012003c80 f i EncodingValidator.obj
 0001:00002c90       ?duplicate@IllegalArgumentException@xercesc_3_1@@UEBAPEAVXMLException@2@XZ 0000000012003c90 f i EncodingValidator.obj
 0001:00002cf4       ?getType@IllegalArgumentException@xercesc_3_1@@UEBAPEB_WXZ 0000000012003cf4 f i EncodingValidator.obj
 0001:00002cfc       ??_EIllegalArgumentException@xercesc_3_1@@UEAAPEAXI@Z 0000000012003cfc f i EncodingValidator.obj
 0001:00002d78       ??0NoSuchElementException@xercesc_3_1@@QEAA@QEBD_KW4Codes@XMLExcepts@1@PEAVMemoryManager@1@@Z 0000000012003d78 f i EncodingValidator.obj
 0001:00002dc4       ??0NoSuchElementException@xercesc_3_1@@QEAA@AEBV01@@Z 0000000012003dc4 f i EncodingValidator.obj
 0001:00002de8       ??0NoSuchElementException@xercesc_3_1@@QEAA@QEBD_KW4Codes@XMLExcepts@1@QEB_W333PEAVMemoryManager@1@@Z 0000000012003de8 f i EncodingValidator.obj
 0001:00002e5c       ??0NoSuchElementException@xercesc_3_1@@QEAA@QEBD_KW4Codes@XMLExcepts@1@0000PEAVMemoryManager@1@@Z 0000000012003e5c f i EncodingValidator.obj
 0001:00002ed0       ??1NoSuchElementException@xercesc_3_1@@UEAA@XZ 0000000012003ed0 f i EncodingValidator.obj
 0001:00002ee0       ?duplicate@NoSuchElementException@xercesc_3_1@@UEBAPEAVXMLException@2@XZ 0000000012003ee0 f i EncodingValidator.obj
 0001:00002f44       ?getType@NoSuchElementException@xercesc_3_1@@UEBAPEB_WXZ 0000000012003f44 f i EncodingValidator.obj
 0001:00002f4c       ??_ENoSuchElementException@xercesc_3_1@@UEAAPEAXI@Z 0000000012003f4c f i EncodingValidator.obj
 0001:00002fc8       ??0RuntimeException@xercesc_3_1@@QEAA@QEBD_KW4Codes@XMLExcepts@1@PEAVMemoryManager@1@@Z 0000000012003fc8 f i EncodingValidator.obj
 0001:00003014       ??0RuntimeException@xercesc_3_1@@QEAA@AEBV01@@Z 0000000012004014 f i EncodingValidator.obj
 0001:00003038       ??0RuntimeException@xercesc_3_1@@QEAA@QEBD_KW4Codes@XMLExcepts@1@QEB_W333PEAVMemoryManager@1@@Z 0000000012004038 f i EncodingValidator.obj
 0001:000030ac       ??0RuntimeException@xercesc_3_1@@QEAA@QEBD_KW4Codes@XMLExcepts@1@0000PEAVMemoryManager@1@@Z 00000000120040ac f i EncodingValidator.obj
 0001:00003120       ??1RuntimeException@xercesc_3_1@@UEAA@XZ 0000000012004120 f i EncodingValidator.obj
 0001:00003130       ?duplicate@RuntimeException@xercesc_3_1@@UEBAPEAVXMLException@2@XZ 0000000012004130 f i EncodingValidator.obj
 0001:00003194       ?getType@RuntimeException@xercesc_3_1@@UEBAPEB_WXZ 0000000012004194 f i EncodingValidator.obj
 0001:0000319c       ??_ERuntimeException@xercesc_3_1@@UEAAPEAXI@Z 000000001200419c f i EncodingValidator.obj
 0001:00003218       ??0NullPointerException@xercesc_3_1@@QEAA@QEBD_KW4Codes@XMLExcepts@1@PEAVMemoryManager@1@@Z 0000000012004218 f i EncodingValidator.obj
 0001:00003264       ??0NullPointerException@xercesc_3_1@@QEAA@AEBV01@@Z 0000000012004264 f i EncodingValidator.obj
 0001:00003288       ??0NullPointerException@xercesc_3_1@@QEAA@QEBD_KW4Codes@XMLExcepts@1@QEB_W333PEAVMemoryManager@1@@Z 0000000012004288 f i EncodingValidator.obj
 0001:000032fc       ??0NullPointerException@xercesc_3_1@@QEAA@QEBD_KW4Codes@XMLExcepts@1@0000PEAVMemoryManager@1@@Z 00000000120042fc f i EncodingValidator.obj
 0001:00003370       ??1NullPointerException@xercesc_3_1@@UEAA@XZ 0000000012004370 f i EncodingValidator.obj
 0001:00003380       ?duplicate@NullPointerException@xercesc_3_1@@UEBAPEAVXMLException@2@XZ 0000000012004380 f i EncodingValidator.obj
 0001:000033e4       ?getType@NullPointerException@xercesc_3_1@@UEBAPEB_WXZ 00000000120043e4 f i EncodingValidator.obj
 0001:000033ec       ??_ENullPointerException@xercesc_3_1@@UEAAPEAXI@Z 00000000120043ec f i EncodingValidator.obj
 0001:00003468       ?initializeEncodingValidator@XMLInitializer@xercesc_3_1@@CAXXZ 0000000012004468 f   EncodingValidator.obj
 0001:000034ac       ?terminateEncodingValidator@XMLInitializer@xercesc_3_1@@CAXXZ 00000000120044ac f   EncodingValidator.obj
 0001:000034e0       ??0EncodingValidator@xercesc_3_1@@AEAA@XZ 00000000120044e0 f   EncodingValidator.obj
 0001:000034fc       ??1EncodingValidator@xercesc_3_1@@AEAA@XZ 00000000120044fc f   EncodingValidator.obj
 0001:00003598       ?isValidEncoding@EncodingValidator@xercesc_3_1@@QEAA_NQEB_W@Z 0000000012004598 f   EncodingValidator.obj
 0001:0000365c       ?initializeRegistry@EncodingValidator@xercesc_3_1@@AEAAXXZ 000000001200465c f   EncodingValidator.obj
 0001:00003914       ?instance@EncodingValidator@xercesc_3_1@@SAPEAV12@XZ 0000000012004914 f   EncodingValidator.obj
 0001:0000391c       ?swapBytes@BitOps@xercesc_3_1@@SA_WG@Z 000000001200491c f i HeaderDummy.obj
 0001:0000392c       ?swapBytes@BitOps@xercesc_3_1@@SAII@Z 000000001200492c f i HeaderDummy.obj
 0001:00003950       ??0EmptyStackException@xercesc_3_1@@QEAA@QEBD_KW4Codes@XMLExcepts@1@PEAVMemoryManager@1@@Z 0000000012004950 f i HeaderDummy.obj
 0001:0000399c       ??0EmptyStackException@xercesc_3_1@@QEAA@AEBV01@@Z 000000001200499c f i HeaderDummy.obj
 0001:000039c0       ??0EmptyStackException@xercesc_3_1@@QEAA@QEBD_KW4Codes@XMLExcepts@1@QEB_W333PEAVMemoryManager@1@@Z 00000000120049c0 f i HeaderDummy.obj
 0001:00003a34       ??0EmptyStackException@xercesc_3_1@@QEAA@QEBD_KW4Codes@XMLExcepts@1@0000PEAVMemoryManager@1@@Z 0000000012004a34 f i HeaderDummy.obj
 0001:00003aa8       ??1EmptyStackException@xercesc_3_1@@UEAA@XZ 0000000012004aa8 f i HeaderDummy.obj
 0001:00003ab8       ?duplicate@EmptyStackException@xercesc_3_1@@UEBAPEAVXMLException@2@XZ 0000000012004ab8 f i HeaderDummy.obj
 0001:00003b1c       ?getType@EmptyStackException@xercesc_3_1@@UEBAPEB_WXZ 0000000012004b1c f i HeaderDummy.obj
 0001:00003b24       ??_EEmptyStackException@xercesc_3_1@@UEAAPEAXI@Z 0000000012004b24 f i HeaderDummy.obj
 0001:00003ba0       ??0InvalidCastException@xercesc_3_1@@QEAA@QEBD_KW4Codes@XMLExcepts@1@PEAVMemoryManager@1@@Z 0000000012004ba0 f i HeaderDummy.obj
 0001:00003bec       ??0InvalidCastException@xercesc_3_1@@QEAA@AEBV01@@Z 0000000012004bec f i HeaderDummy.obj
 0001:00003c10       ??0InvalidCastException@xercesc_3_1@@QEAA@QEBD_KW4Codes@XMLExcepts@1@QEB_W333PEAVMemoryManager@1@@Z 0000000012004c10 f i HeaderDummy.obj
 0001:00003c84       ??0InvalidCastException@xercesc_3_1@@QEAA@QEBD_KW4Codes@XMLExcepts@1@0000PEAVMemoryManager@1@@Z 0000000012004c84 f i HeaderDummy.obj
 0001:00003cf8       ??1InvalidCastException@xercesc_3_1@@UEAA@XZ 0000000012004cf8 f i HeaderDummy.obj
 0001:00003d08       ?duplicate@InvalidCastException@xercesc_3_1@@UEBAPEAVXMLException@2@XZ 0000000012004d08 f i HeaderDummy.obj
 0001:00003d6c       ?getType@InvalidCastException@xercesc_3_1@@UEBAPEB_WXZ 0000000012004d6c f i HeaderDummy.obj
 0001:00003d74       ??_EInvalidCastException@xercesc_3_1@@UEAAPEAXI@Z 0000000012004d74 f i HeaderDummy.obj
 0001:00003df0       ??0IOException@xercesc_3_1@@QEAA@QEBD_KW4Codes@XMLExcepts@1@PEAVMemoryManager@1@@Z 0000000012004df0 f i HeaderDummy.obj
 0001:00003e3c       ??0IOException@xercesc_3_1@@QEAA@AEBV01@@Z 0000000012004e3c f i HeaderDummy.obj
 0001:00003e60       ??0IOException@xercesc_3_1@@QEAA@QEBD_KW4Codes@XMLExcepts@1@QEB_W333PEAVMemoryManager@1@@Z 0000000012004e60 f i HeaderDummy.obj
 0001:00003ed4       ??0IOException@xercesc_3_1@@QEAA@QEBD_KW4Codes@XMLExcepts@1@0000PEAVMemoryManager@1@@Z 0000000012004ed4 f i HeaderDummy.obj
 0001:00003f48       ??1IOException@xercesc_3_1@@UEAA@XZ 0000000012004f48 f i HeaderDummy.obj
 0001:00003f58       ?duplicate@IOException@xercesc_3_1@@UEBAPEAVXMLException@2@XZ 0000000012004f58 f i HeaderDummy.obj
 0001:00003fbc       ?getType@IOException@xercesc_3_1@@UEBAPEB_WXZ 0000000012004fbc f i HeaderDummy.obj
 0001:00003fc4       ??_EIOException@xercesc_3_1@@UEAAPEAXI@Z 0000000012004fc4 f i HeaderDummy.obj
 0001:00004040       ??0UnexpectedEOFException@xercesc_3_1@@QEAA@QEBD_KW4Codes@XMLExcepts@1@PEAVMemoryManager@1@@Z 0000000012005040 f i HeaderDummy.obj
 0001:0000408c       ??0UnexpectedEOFException@xercesc_3_1@@QEAA@AEBV01@@Z 000000001200508c f i HeaderDummy.obj
 0001:000040b0       ??0UnexpectedEOFException@xercesc_3_1@@QEAA@QEBD_KW4Codes@XMLExcepts@1@QEB_W333PEAVMemoryManager@1@@Z 00000000120050b0 f i HeaderDummy.obj
 0001:00004124       ??0UnexpectedEOFException@xercesc_3_1@@QEAA@QEBD_KW4Codes@XMLExcepts@1@0000PEAVMemoryManager@1@@Z 0000000012005124 f i HeaderDummy.obj
 0001:00004198       ??1UnexpectedEOFException@xercesc_3_1@@UEAA@XZ 0000000012005198 f i HeaderDummy.obj
 0001:000041a8       ?duplicate@UnexpectedEOFException@xercesc_3_1@@UEBAPEAVXMLException@2@XZ 00000000120051a8 f i HeaderDummy.obj
 0001:0000420c       ?getType@UnexpectedEOFException@xercesc_3_1@@UEBAPEB_WXZ 000000001200520c f i HeaderDummy.obj
 0001:00004214       ??_EUnexpectedEOFException@xercesc_3_1@@UEAAPEAXI@Z 0000000012005214 f i HeaderDummy.obj
 0001:00004290       ??0UnsupportedEncodingException@xercesc_3_1@@QEAA@QEBD_KW4Codes@XMLExcepts@1@PEAVMemoryManager@1@@Z 0000000012005290 f i HeaderDummy.obj
 0001:000042dc       ??0UnsupportedEncodingException@xercesc_3_1@@QEAA@AEBV01@@Z 00000000120052dc f i HeaderDummy.obj
 0001:00004300       ??0UnsupportedEncodingException@xercesc_3_1@@QEAA@QEBD_KW4Codes@XMLExcepts@1@QEB_W333PEAVMemoryManager@1@@Z 0000000012005300 f i HeaderDummy.obj
 0001:00004374       ??0UnsupportedEncodingException@xercesc_3_1@@QEAA@QEBD_KW4Codes@XMLExcepts@1@0000PEAVMemoryManager@1@@Z 0000000012005374 f i HeaderDummy.obj
 0001:000043e8       ??1UnsupportedEncodingException@xercesc_3_1@@UEAA@XZ 00000000120053e8 f i HeaderDummy.obj
 0001:000043f8       ?duplicate@UnsupportedEncodingException@xercesc_3_1@@UEBAPEAVXMLException@2@XZ 00000000120053f8 f i HeaderDummy.obj
 0001:0000445c       ?getType@UnsupportedEncodingException@xercesc_3_1@@UEBAPEB_WXZ 000000001200545c f i HeaderDummy.obj
 0001:00004464       ??_EUnsupportedEncodingException@xercesc_3_1@@UEAAPEAXI@Z 0000000012005464 f i HeaderDummy.obj
 0001:000044e0       ??0UTFDataFormatException@xercesc_3_1@@QEAA@QEBD_KW4Codes@XMLExcepts@1@PEAVMemoryManager@1@@Z 00000000120054e0 f i HeaderDummy.obj
 0001:0000452c       ??0UTFDataFormatException@xercesc_3_1@@QEAA@AEBV01@@Z 000000001200552c f i HeaderDummy.obj
 0001:00004550       ??0UTFDataFormatException@xercesc_3_1@@QEAA@QEBD_KW4Codes@XMLExcepts@1@QEB_W333PEAVMemoryManager@1@@Z 0000000012005550 f i HeaderDummy.obj
 0001:000045c4       ??0UTFDataFormatException@xercesc_3_1@@QEAA@QEBD_KW4Codes@XMLExcepts@1@0000PEAVMemoryManager@1@@Z 00000000120055c4 f i HeaderDummy.obj
 0001:00004638       ??1UTFDataFormatException@xercesc_3_1@@UEAA@XZ 0000000012005638 f i HeaderDummy.obj
 0001:00004648       ?duplicate@UTFDataFormatException@xercesc_3_1@@UEBAPEAVXMLException@2@XZ 0000000012005648 f i HeaderDummy.obj
 0001:000046ac       ?getType@UTFDataFormatException@xercesc_3_1@@UEBAPEB_WXZ 00000000120056ac f i HeaderDummy.obj
 0001:000046b4       ??_EUTFDataFormatException@xercesc_3_1@@UEAAPEAXI@Z 00000000120056b4 f i HeaderDummy.obj
 0001:00004730       ?getDataLength@HexBin@xercesc_3_1@@SAHQEB_W@Z 0000000012005730 f   HexBin.obj
 0001:00004778       ?isArrayByteHex@HexBin@xercesc_3_1@@SA_NQEB_W@Z 0000000012005778 f   HexBin.obj
 0001:000047d8       ?getCanonicalRepresentation@HexBin@xercesc_3_1@@SAPEA_WQEB_WQEAVMemoryManager@2@@Z 00000000120057d8 f   HexBin.obj
 0001:00004860       ?decodeToXMLByte@HexBin@xercesc_3_1@@SAPEAEQEB_WQEAVMemoryManager@2@@Z 0000000012005860 f   HexBin.obj
 0001:00004970       ?isHex@HexBin@xercesc_3_1@@CA_NAEB_W@Z 0000000012005970 f   HexBin.obj
 0001:00004994       ??0XSerializationException@xercesc_3_1@@QEAA@QEBD_KW4Codes@XMLExcepts@1@PEAVMemoryManager@1@@Z 0000000012005994 f i KVStringPair.obj
 0001:000049e0       ??0XSerializationException@xercesc_3_1@@QEAA@AEBV01@@Z 00000000120059e0 f i KVStringPair.obj
 0001:00004a04       ??0XSerializationException@xercesc_3_1@@QEAA@QEBD_KW4Codes@XMLExcepts@1@QEB_W333PEAVMemoryManager@1@@Z 0000000012005a04 f i KVStringPair.obj
 0001:00004a78       ??0XSerializationException@xercesc_3_1@@QEAA@QEBD_KW4Codes@XMLExcepts@1@0000PEAVMemoryManager@1@@Z 0000000012005a78 f i KVStringPair.obj
 0001:00004aec       ??1XSerializationException@xercesc_3_1@@UEAA@XZ 0000000012005aec f i KVStringPair.obj
 0001:00004afc       ?duplicate@XSerializationException@xercesc_3_1@@UEBAPEAVXMLException@2@XZ 0000000012005afc f i KVStringPair.obj
 0001:00004b60       ?getType@XSerializationException@xercesc_3_1@@UEBAPEB_WXZ 0000000012005b60 f i KVStringPair.obj
 0001:00004b68       ??_EXSerializationException@xercesc_3_1@@UEAAPEAXI@Z 0000000012005b68 f i KVStringPair.obj
 0001:00004be4       ?isStoring@XSerializeEngine@xercesc_3_1@@QEBA_NXZ 0000000012005be4 f i KVStringPair.obj
 0001:00004bf0       ?isLoading@XSerializeEngine@xercesc_3_1@@QEBA_NXZ 0000000012005bf0 f i KVStringPair.obj
 0001:00004bf8       ?ensureStoring@XSerializeEngine@xercesc_3_1@@AEBAXXZ 0000000012005bf8 f i KVStringPair.obj
 0001:00004c0c       ?ensureLoading@XSerializeEngine@xercesc_3_1@@AEBAXXZ 0000000012005c0c f i KVStringPair.obj
 0001:00004c20       ?Assert@XSerializeEngine@xercesc_3_1@@AEBAX_NW4Codes@XMLExcepts@2@@Z 0000000012005c20 f i KVStringPair.obj
 0001:00004c90       ?readString@XSerializeEngine@xercesc_3_1@@QEAAXAEAPEA_WAEA_K@Z 0000000012005c90 f i KVStringPair.obj
 0001:00004ca8       ?readString@XSerializeEngine@xercesc_3_1@@QEAAXAEAPEA_W@Z 0000000012005ca8 f i KVStringPair.obj
 0001:00004cc8       ?readString@XSerializeEngine@xercesc_3_1@@QEAAXAEAPEAEAEA_K@Z 0000000012005cc8 f i KVStringPair.obj
 0001:00004ce0       ?readString@XSerializeEngine@xercesc_3_1@@QEAAXAEAPEAE@Z 0000000012005ce0 f i KVStringPair.obj
 0001:00004d00       ?getBufCur@XSerializeEngine@xercesc_3_1@@QEBA_KXZ 0000000012005d00 f i KVStringPair.obj
 0001:00004d0c       ?getBufCurAccumulated@XSerializeEngine@xercesc_3_1@@QEBA_KXZ 0000000012005d0c f i KVStringPair.obj
 0001:00004d28       ?getOrdered@DatatypeValidator@xercesc_3_1@@QEBA?AW4ORDERING@XSSimpleTypeDefinition@2@XZ 0000000012005d28 f i XMLAttr.obj
 0001:00004d28       ?getNoParen@RegxParser@xercesc_3_1@@QEBAHXZ 0000000012005d28 f i ParserForXMLSchema.obj
 0001:00004d28       ?getContentType@ComplexTypeInfo@xercesc_3_1@@QEBAHXZ 0000000012005d28 f i XMLElementDecl.obj
 0001:00004d28       ?getURI@QName@xercesc_3_1@@QEBAIXZ 0000000012005d28 f i QName.obj
 0001:00004d28       ?getBufCount@XSerializeEngine@xercesc_3_1@@QEBAKXZ 0000000012005d28 f i KVStringPair.obj
 0001:00004d28       ?getData@CharOp@xercesc_3_1@@UEBAHXZ 0000000012005d28 f i Op.obj
 0001:00004d2c       ??0XSerializable@xercesc_3_1@@IEAA@AEBV01@@Z 0000000012005d2c f i KVStringPair.obj
 0001:00004d2c       ??0XSerializable@xercesc_3_1@@IEAA@XZ 0000000012005d2c f i KVStringPair.obj
 0001:00004d3c       ??_EXSerializable@xercesc_3_1@@UEAAPEAXI@Z 0000000012005d3c f i KVStringPair.obj
 0001:00004da8       ??_FKVStringPair@xercesc_3_1@@QEAAXXZ 0000000012005da8 f i KVStringPair.obj
 0001:00004dd0       ??_EKVStringPair@xercesc_3_1@@UEAAPEAXI@Z 0000000012005dd0 f i KVStringPair.obj
 0001:00004e44       ?setKey@KVStringPair@xercesc_3_1@@QEAAXQEB_W@Z 0000000012005e44 f i KVStringPair.obj
 0001:00004e74       ?setValue@KVStringPair@xercesc_3_1@@QEAAXQEB_W@Z 0000000012005e74 f i KVStringPair.obj
 0001:00004ea4       ?setKey@KVStringPair@xercesc_3_1@@QEAAXQEB_W_K@Z 0000000012005ea4 f i KVStringPair.obj
 0001:00004f10       ?setValue@KVStringPair@xercesc_3_1@@QEAAXQEB_W_K@Z 0000000012005f10 f i KVStringPair.obj
 0001:00004f7c       ?set@KVStringPair@xercesc_3_1@@QEAAXQEB_W0@Z 0000000012005f7c f i KVStringPair.obj
 0001:00004ff8       ?set@KVStringPair@xercesc_3_1@@QEAAXQEB_W_K01@Z 0000000012005ff8 f i KVStringPair.obj
 0001:00005028       ??0KVStringPair@xercesc_3_1@@QEAA@QEAVMemoryManager@1@@Z 0000000012006028 f   KVStringPair.obj
 0001:0000504c       ??0KVStringPair@xercesc_3_1@@QEAA@QEB_W0QEAVMemoryManager@1@@Z 000000001200604c f   KVStringPair.obj
 0001:00005094       ??0KVStringPair@xercesc_3_1@@QEAA@QEB_W0_KQEAVMemoryManager@1@@Z 0000000012006094 f   KVStringPair.obj
 0001:0000512c       ??0KVStringPair@xercesc_3_1@@QEAA@QEB_W_K01QEAVMemoryManager@1@@Z 000000001200612c f   KVStringPair.obj
 0001:00005194       ??0KVStringPair@xercesc_3_1@@QEAA@AEBV01@@Z 0000000012006194 f   KVStringPair.obj
 0001:000051e8       ??1KVStringPair@xercesc_3_1@@UEAA@XZ 00000000120061e8 f   KVStringPair.obj
 0001:00005238       ?createObject@KVStringPair@xercesc_3_1@@SAPEAVXSerializable@2@PEAVMemoryManager@2@@Z 0000000012006238 f   KVStringPair.obj
 0001:00005280       ?getProtoType@KVStringPair@xercesc_3_1@@UEBAPEAVXProtoType@2@XZ 0000000012006280 f   KVStringPair.obj
 0001:00005288       ?serialize@KVStringPair@xercesc_3_1@@UEAAXAEAVXSerializeEngine@2@@Z 0000000012006288 f   KVStringPair.obj
 0001:0000530c       ??_FXMLMutex@xercesc_3_1@@QEAAXXZ 000000001200630c f i Mutexes.obj
 0001:00005334       ??0XMLMutex@xercesc_3_1@@QEAA@QEAVMemoryManager@1@@Z 0000000012006334 f   Mutexes.obj
 0001:0000535c       ??1XMLMutex@xercesc_3_1@@QEAA@XZ 000000001200635c f   Mutexes.obj
 0001:00005380       ?lock@XMLMutex@xercesc_3_1@@QEAAXXZ 0000000012006380 f   Mutexes.obj
 0001:00005388       ?unlock@XMLMutex@xercesc_3_1@@QEAAXXZ 0000000012006388 f   Mutexes.obj
 0001:00005390       ??0XMLMutexLock@xercesc_3_1@@QEAA@QEAVXMLMutex@1@@Z 0000000012006390 f   Mutexes.obj
 0001:000053b0       ??1XMLMutexLock@xercesc_3_1@@QEAA@XZ 00000000120063b0 f   Mutexes.obj
 0001:000053bc       ?getPanicReasonString@PanicHandler@xercesc_3_1@@SAPEBDW4PanicReasons@12@@Z 00000000120063bc f   PanicHandler.obj
 0001:00005428       ?getCode@OutOfMemoryException@xercesc_3_1@@QEBA?AW4Codes@XMLExcepts@2@XZ 0000000012006428 f i PlatformUtils.obj
 0001:00005430       ?getMessage@OutOfMemoryException@xercesc_3_1@@QEBAPEB_WXZ 0000000012006430 f i PlatformUtils.obj
 0001:00005430       ?getType@OutOfMemoryException@xercesc_3_1@@QEBAPEB_WXZ 0000000012006430 f i PlatformUtils.obj
 0001:00005438       ?getSrcFile@OutOfMemoryException@xercesc_3_1@@QEBAPEBDXZ 0000000012006438 f i PlatformUtils.obj
 0001:00005440       ??0MemoryManagerImpl@xercesc_3_1@@QEAA@XZ 0000000012006440 f i PlatformUtils.obj
 0001:00005450       ??_EMemoryManagerImpl@xercesc_3_1@@UEAAPEAXI@Z 0000000012006450 f i PlatformUtils.obj
 0001:00005450       ??_EMemoryManager@xercesc_3_1@@UEAAPEAXI@Z 0000000012006450 f i Base64.obj
 0001:000054bc       ??_FXMLURL@xercesc_3_1@@QEAAXXZ 00000000120064bc f i PlatformUtils.obj
 0001:00005500       ??9XMLURL@xercesc_3_1@@QEBA_NAEBV01@@Z 0000000012006500 f i PlatformUtils.obj
 0001:00005514       ?getURLText@XMLURL@xercesc_3_1@@QEBAPEB_WXZ 0000000012006514 f i PlatformUtils.obj
 0001:00005534       ??0MalformedURLException@xercesc_3_1@@QEAA@QEBD_KW4Codes@XMLExcepts@1@PEAVMemoryManager@1@@Z 0000000012006534 f i PlatformUtils.obj
 0001:00005580       ??0MalformedURLException@xercesc_3_1@@QEAA@AEBV01@@Z 0000000012006580 f i PlatformUtils.obj
 0001:000055a4       ??0MalformedURLException@xercesc_3_1@@QEAA@QEBD_KW4Codes@XMLExcepts@1@QEB_W333PEAVMemoryManager@1@@Z 00000000120065a4 f i PlatformUtils.obj
 0001:00005618       ??0MalformedURLException@xercesc_3_1@@QEAA@QEBD_KW4Codes@XMLExcepts@1@0000PEAVMemoryManager@1@@Z 0000000012006618 f i PlatformUtils.obj
 0001:0000568c       ??1MalformedURLException@xercesc_3_1@@UEAA@XZ 000000001200668c f i PlatformUtils.obj
 0001:0000569c       ?duplicate@MalformedURLException@xercesc_3_1@@UEBAPEAVXMLException@2@XZ 000000001200669c f i PlatformUtils.obj
 0001:00005700       ?getType@MalformedURLException@xercesc_3_1@@UEBAPEB_WXZ 0000000012006700 f i PlatformUtils.obj
 0001:00005708       ??_EMalformedURLException@xercesc_3_1@@UEAAPEAXI@Z 0000000012006708 f i PlatformUtils.obj
 0001:00005784       ??4XMLNetHTTPInfo@xercesc_3_1@@QEAAAEAV01@AEBV01@@Z 0000000012006784 f i PlatformUtils.obj
 0001:000057a4       ??0XMLNetHTTPInfo@xercesc_3_1@@QEAA@XZ 00000000120067a4 f i PlatformUtils.obj
 0001:000057bc       ??1XMLNetAccessor@xercesc_3_1@@UEAA@XZ 00000000120067bc f i PlatformUtils.obj
 0001:000057c8       ??0XMLNetAccessor@xercesc_3_1@@IEAA@XZ 00000000120067c8 f i PlatformUtils.obj
 0001:000057d8       ??_EXMLNetAccessor@xercesc_3_1@@UEAAPEAXI@Z 00000000120067d8 f i PlatformUtils.obj
 0001:0000584c       ??0NetAccessorException@xercesc_3_1@@QEAA@QEBD_KW4Codes@XMLExcepts@1@PEAVMemoryManager@1@@Z 000000001200684c f i PlatformUtils.obj
 0001:00005898       ??0NetAccessorException@xercesc_3_1@@QEAA@AEBV01@@Z 0000000012006898 f i PlatformUtils.obj
 0001:000058bc       ??0NetAccessorException@xercesc_3_1@@QEAA@QEBD_KW4Codes@XMLExcepts@1@QEB_W333PEAVMemoryManager@1@@Z 00000000120068bc f i PlatformUtils.obj
 0001:00005930       ??0NetAccessorException@xercesc_3_1@@QEAA@QEBD_KW4Codes@XMLExcepts@1@0000PEAVMemoryManager@1@@Z 0000000012006930 f i PlatformUtils.obj
 0001:000059a4       ??1NetAccessorException@xercesc_3_1@@UEAA@XZ 00000000120069a4 f i PlatformUtils.obj
 0001:000059b4       ?duplicate@NetAccessorException@xercesc_3_1@@UEBAPEAVXMLException@2@XZ 00000000120069b4 f i PlatformUtils.obj
 0001:00005a18       ?getType@NetAccessorException@xercesc_3_1@@UEBAPEB_WXZ 0000000012006a18 f i PlatformUtils.obj
 0001:00005a20       ??_ENetAccessorException@xercesc_3_1@@UEAAPEAXI@Z 0000000012006a20 f i PlatformUtils.obj
 0001:00005a9c       ?getId@WinSockNetAccessor@xercesc_3_1@@UEBAPEB_WXZ 0000000012006a9c f i PlatformUtils.obj
 0001:00005aa4       ??_EXMLMsgLoader@xercesc_3_1@@UEAAPEAXI@Z 0000000012006aa4 f i PlatformUtils.obj
 0001:00005b18       ??1XMLMsgLoader@xercesc_3_1@@UEAA@XZ 0000000012006b18 f i PlatformUtils.obj
 0001:00005b24       ??0XMLMsgLoader@xercesc_3_1@@IEAA@XZ 0000000012006b24 f i PlatformUtils.obj
 0001:00005b34       ?adopt@TranscodeFromStr@xercesc_3_1@@QEAAPEA_WXZ 0000000012006b34 f i PlatformUtils.obj
 0001:00005b34       ?adopt@TranscodeToStr@xercesc_3_1@@QEAAPEAEXZ 0000000012006b34 f i PlatformUtils.obj
 0001:00005b3c       ?Initialize@XMLPlatformUtils@xercesc_3_1@@SAXQEBD0QEAVPanicHandler@2@QEAVMemoryManager@2@@Z 0000000012006b3c f   PlatformUtils.obj
 0001:00005d9c       ?Initialize@XMLPlatformUtils@xercesc_3_1@@SAX_K00QEBD1QEAVPanicHandler@2@QEAVMemoryManager@2@@Z 0000000012006d9c f   PlatformUtils.obj
 0001:00005dfc       ?Terminate@XMLPlatformUtils@xercesc_3_1@@SAXXZ 0000000012006dfc f   PlatformUtils.obj
 0001:00005f68       ?panic@XMLPlatformUtils@xercesc_3_1@@SAXW4PanicReasons@PanicHandler@2@@Z 0000000012006f68 f   PlatformUtils.obj
 0001:00005f84       ?makeNetAccessor@XMLPlatformUtils@xercesc_3_1@@CAPEAVXMLNetAccessor@2@XZ 0000000012006f84 f   PlatformUtils.obj
 0001:00005fa8       ?loadAMsgSet@XMLPlatformUtils@xercesc_3_1@@CAPEAVXMLMsgLoader@2@QEB_W@Z 0000000012006fa8 f   PlatformUtils.obj
 0001:00006000       ?makeTransService@XMLPlatformUtils@xercesc_3_1@@CAPEAVXMLTransService@2@XZ 0000000012007000 f   PlatformUtils.obj
 0001:00006038       ?makeFileMgr@XMLPlatformUtils@xercesc_3_1@@SAPEAVXMLFileMgr@2@QEAVMemoryManager@2@@Z 0000000012007038 f   PlatformUtils.obj
 0001:000060b4       ?openFile@XMLPlatformUtils@xercesc_3_1@@SAPEAXQEBDQEAVMemoryManager@2@@Z 00000000120070b4 f   PlatformUtils.obj
 0001:0000612c       ?openFile@XMLPlatformUtils@xercesc_3_1@@SAPEAXQEB_WQEAVMemoryManager@2@@Z 000000001200712c f   PlatformUtils.obj
 0001:000061a4       ?openFileToWrite@XMLPlatformUtils@xercesc_3_1@@SAPEAXQEBDQEAVMemoryManager@2@@Z 00000000120071a4 f   PlatformUtils.obj
 0001:0000621c       ?openFileToWrite@XMLPlatformUtils@xercesc_3_1@@SAPEAXQEB_WQEAVMemoryManager@2@@Z 000000001200721c f   PlatformUtils.obj
 0001:00006294       ?openStdInHandle@XMLPlatformUtils@xercesc_3_1@@SAPEAXQEAVMemoryManager@2@@Z 0000000012007294 f   PlatformUtils.obj
 0001:00006304       ?closeFile@XMLPlatformUtils@xercesc_3_1@@SAXPEAXQEAVMemoryManager@2@@Z 0000000012007304 f   PlatformUtils.obj
 0001:0000637c       ?resetFile@XMLPlatformUtils@xercesc_3_1@@SAXPEAXQEAVMemoryManager@2@@Z 000000001200737c f   PlatformUtils.obj
 0001:000063f4       ?curFilePos@XMLPlatformUtils@xercesc_3_1@@SA_KPEAXQEAVMemoryManager@2@@Z 00000000120073f4 f   PlatformUtils.obj
 0001:0000646c       ?fileSize@XMLPlatformUtils@xercesc_3_1@@SA_KPEAXQEAVMemoryManager@2@@Z 000000001200746c f   PlatformUtils.obj
 0001:000064e4       ?readFileBuffer@XMLPlatformUtils@xercesc_3_1@@SA_KPEAX_KQEAEQEAVMemoryManager@2@@Z 00000000120074e4 f   PlatformUtils.obj
 0001:00006560       ?writeBufferToFile@XMLPlatformUtils@xercesc_3_1@@SAXQEAX_KQEBEQEAVMemoryManager@2@@Z 0000000012007560 f   PlatformUtils.obj
 0001:000065dc       ?getFullPath@XMLPlatformUtils@xercesc_3_1@@SAPEA_WQEB_WQEAVMemoryManager@2@@Z 00000000120075dc f   PlatformUtils.obj
 0001:00006654       ?getCurrentDirectory@XMLPlatformUtils@xercesc_3_1@@SAPEA_WQEAVMemoryManager@2@@Z 0000000012007654 f   PlatformUtils.obj
 0001:000066c4       ?isRelative@XMLPlatformUtils@xercesc_3_1@@SA_NQEB_WQEAVMemoryManager@2@@Z 00000000120076c4 f   PlatformUtils.obj
 0001:0000673c       ?isAnySlash@XMLPlatformUtils@xercesc_3_1@@SA_N_W@Z 000000001200773c f i PlatformUtils.obj
 0001:0000675c       ?getCurrentMillis@XMLPlatformUtils@xercesc_3_1@@SAKXZ 000000001200775c f   PlatformUtils.obj
 0001:000067a0       ?makeMutexMgr@XMLPlatformUtils@xercesc_3_1@@SAPEAVXMLMutexMgr@2@QEAVMemoryManager@2@@Z 00000000120077a0 f   PlatformUtils.obj
 0001:000067d4       ?makeMutex@XMLPlatformUtils@xercesc_3_1@@SAPEAXQEAVMemoryManager@2@@Z 00000000120077d4 f   PlatformUtils.obj
 0001:00006820       ?closeMutex@XMLPlatformUtils@xercesc_3_1@@SAXQEAXQEAVMemoryManager@2@@Z 0000000012007820 f   PlatformUtils.obj
 0001:00006878       ?lockMutex@XMLPlatformUtils@xercesc_3_1@@SAXQEAX@Z 0000000012007878 f   PlatformUtils.obj
 0001:000068c4       ?unlockMutex@XMLPlatformUtils@xercesc_3_1@@SAXQEAX@Z 00000000120078c4 f   PlatformUtils.obj
 0001:00006910       ?loadMsgSet@XMLPlatformUtils@xercesc_3_1@@SAPEAVXMLMsgLoader@2@QEB_W@Z 0000000012007910 f   PlatformUtils.obj
 0001:00006918       ?recognizeNEL@XMLPlatformUtils@xercesc_3_1@@SAX_NQEAVMemoryManager@2@@Z 0000000012007918 f   PlatformUtils.obj
 0001:00006998       ?strictIANAEncoding@XMLPlatformUtils@xercesc_3_1@@SAX_N@Z 0000000012007998 f   PlatformUtils.obj
 0001:000069b4       ?isStrictIANAEncoding@XMLPlatformUtils@xercesc_3_1@@SA_NXZ 00000000120079b4 f   PlatformUtils.obj
 0001:000069c8       ?weavePaths@XMLPlatformUtils@xercesc_3_1@@SAPEA_WQEB_W0QEAVMemoryManager@2@@Z 00000000120079c8 f   PlatformUtils.obj
 0001:00006b4c       ?removeDotSlash@XMLPlatformUtils@xercesc_3_1@@SAXQEA_WQEAVMemoryManager@2@@Z 0000000012007b4c f   PlatformUtils.obj
 0001:00006ca0       ?removeDotDotSlash@XMLPlatformUtils@xercesc_3_1@@SAXQEA_WQEAVMemoryManager@2@@Z 0000000012007ca0 f   PlatformUtils.obj
 0001:00006e6c       ?searchSlashDotDotSlash@XMLPlatformUtils@xercesc_3_1@@CAHQEA_W@Z 0000000012007e6c f   PlatformUtils.obj
 0001:00006ef8       ??_FQName@xercesc_3_1@@QEAAXXZ 0000000012007ef8 f i QName.obj
 0001:00006f2c       ??_EQName@xercesc_3_1@@UEAAPEAXI@Z 0000000012007f2c f i QName.obj
 0001:00006fa0       ?setPrefix@QName@xercesc_3_1@@QEAAXPEB_W@Z 0000000012007fa0 f i QName.obj
 0001:00006fd0       ?setLocalPart@QName@xercesc_3_1@@QEAAXPEB_W@Z 0000000012007fd0 f i QName.obj
 0001:00007000       ??0QName@xercesc_3_1@@QEAA@QEAVMemoryManager@1@@Z 0000000012008000 f   QName.obj
 0001:00007030       ??0QName@xercesc_3_1@@QEAA@QEB_W0IQEAVMemoryManager@1@@Z 0000000012008030 f   QName.obj
 0001:000070ac       ??0QName@xercesc_3_1@@QEAA@QEB_WIQEAVMemoryManager@1@@Z 00000000120080ac f   QName.obj
 0001:00007120       ??1QName@xercesc_3_1@@UEAA@XZ 0000000012008120 f   QName.obj
 0001:00007158       ??0QName@xercesc_3_1@@QEAA@AEBV01@@Z 0000000012008158 f   QName.obj
 0001:00007270       ?getRawName@QName@xercesc_3_1@@QEAAPEA_WXZ 0000000012008270 f   QName.obj
 0001:00007270       ?getRawName@QName@xercesc_3_1@@QEBAPEB_WXZ 0000000012008270 f   QName.obj
 0001:00007374       ?setName@QName@xercesc_3_1@@QEAAXQEB_W0I@Z 0000000012008374 f   QName.obj
 0001:00007410       ?setName@QName@xercesc_3_1@@QEAAXQEB_WI@Z 0000000012008410 f   QName.obj
 0001:0000751c       ?setNPrefix@QName@xercesc_3_1@@QEAAXPEB_W_K@Z 000000001200851c f   QName.obj
 0001:000075a8       ?setNLocalPart@QName@xercesc_3_1@@QEAAXPEB_W_K@Z 00000000120085a8 f   QName.obj
 0001:00007634       ?setValues@QName@xercesc_3_1@@QEAAXAEBV12@@Z 0000000012008634 f   QName.obj
 0001:000076c0       ??8QName@xercesc_3_1@@QEBA_NAEBV01@@Z 00000000120086c0 f   QName.obj
 0001:000077d8       ?cleanUp@QName@xercesc_3_1@@QEAAXXZ 00000000120087d8 f   QName.obj
 0001:00007820       ?createObject@QName@xercesc_3_1@@SAPEAVXSerializable@2@PEAVMemoryManager@2@@Z 0000000012008820 f   QName.obj
 0001:00007874       ?getProtoType@QName@xercesc_3_1@@UEBAPEAVXProtoType@2@XZ 0000000012008874 f   QName.obj
 0001:0000787c       ?serialize@QName@xercesc_3_1@@UEAAXAEAVXSerializeEngine@2@@Z 000000001200887c f   QName.obj
 0001:00007928       ??_FXMLStringPool@xercesc_3_1@@QEAAXXZ 0000000012008928 f i StringPool.obj
 0001:0000793c       ??_EXMLStringPool@xercesc_3_1@@UEAAPEAXI@Z 000000001200893c f i StringPool.obj
 0001:000079b0       ?addOrFind@XMLStringPool@xercesc_3_1@@UEAAIQEB_W@Z 00000000120089b0 f i StringPool.obj
 0001:000079f8       ?getId@XMLStringPool@xercesc_3_1@@UEBAIQEB_W@Z 00000000120089f8 f i StringPool.obj
 0001:00007a20       ?exists@XMLStringPool@xercesc_3_1@@UEBA_NQEB_W@Z 0000000012008a20 f i StringPool.obj
 0001:00007ae8       ?exists@XMLStringPool@xercesc_3_1@@UEBA_NI@Z 0000000012008ae8 f i StringPool.obj
 0001:00007afc       ?getValueForId@XMLStringPool@xercesc_3_1@@UEBAPEB_WI@Z 0000000012008afc f i StringPool.obj
 0001:00007b74       ?getStringCount@XMLStringPool@xercesc_3_1@@UEBAIXZ 0000000012008b74 f i StringPool.obj
 0001:00007b7c       ??0XMLStringPool@xercesc_3_1@@QEAA@IQEAVMemoryManager@1@@Z 0000000012008b7c f   StringPool.obj
 0001:00007c28       ??1XMLStringPool@xercesc_3_1@@UEAA@XZ 0000000012008c28 f   StringPool.obj
 0001:00007cec       ?flushAll@XMLStringPool@xercesc_3_1@@UEAAXXZ 0000000012008cec f   StringPool.obj
 0001:00007d60       ?addNewEntry@XMLStringPool@xercesc_3_1@@AEAAIQEB_W@Z 0000000012008d60 f   StringPool.obj
 0001:00007f00       ?createObject@XMLStringPool@xercesc_3_1@@SAPEAVXSerializable@2@PEAVMemoryManager@2@@Z 0000000012008f00 f   StringPool.obj
 0001:00007f44       ?getProtoType@XMLStringPool@xercesc_3_1@@UEBAPEAVXProtoType@2@XZ 0000000012008f44 f   StringPool.obj
 0001:00007f4c       ?serialize@XMLStringPool@xercesc_3_1@@UEAAXAEAVXSerializeEngine@2@@Z 0000000012008f4c f   StringPool.obj
 0001:00007ff8       ??0XMLStringPool@xercesc_3_1@@QEAA@QEAVMemoryManager@1@@Z 0000000012008ff8 f   StringPool.obj
 0001:000080ac       ??_EXMLSynchronizedStringPool@xercesc_3_1@@UEAAPEAXI@Z 00000000120090ac f i SynchronizedStringPool.obj
 0001:00008120       ??0XMLSynchronizedStringPool@xercesc_3_1@@QEAA@PEBVXMLStringPool@1@IQEAVMemoryManager@1@@Z 0000000012009120 f   SynchronizedStringPool.obj
 0001:0000818c       ??1XMLSynchronizedStringPool@xercesc_3_1@@UEAA@XZ 000000001200918c f   SynchronizedStringPool.obj
 0001:000081c4       ?addOrFind@XMLSynchronizedStringPool@xercesc_3_1@@UEAAIQEB_W@Z 00000000120091c4 f   SynchronizedStringPool.obj
 0001:00008254       ?exists@XMLSynchronizedStringPool@xercesc_3_1@@UEBA_NQEB_W@Z 0000000012009254 f   SynchronizedStringPool.obj
 0001:000082a4       ?exists@XMLSynchronizedStringPool@xercesc_3_1@@UEBA_NI@Z 00000000120092a4 f   SynchronizedStringPool.obj
 0001:00008308       ?flushAll@XMLSynchronizedStringPool@xercesc_3_1@@UEAAXXZ 0000000012009308 f   SynchronizedStringPool.obj
 0001:00008310       ?getId@XMLSynchronizedStringPool@xercesc_3_1@@UEBAIQEB_W@Z 0000000012009310 f   SynchronizedStringPool.obj
 0001:00008398       ?getValueForId@XMLSynchronizedStringPool@xercesc_3_1@@UEBAPEB_WI@Z 0000000012009398 f   SynchronizedStringPool.obj
 0001:00008420       ?getStringCount@XMLSynchronizedStringPool@xercesc_3_1@@UEBAIXZ 0000000012009420 f   SynchronizedStringPool.obj
 0001:00008464       ??_EXMLTransService@xercesc_3_1@@UEAAPEAXI@Z 0000000012009464 f i TransService.obj
 0001:000084d8       ??_EXMLChTranscoder@xercesc_3_1@@UEAAPEAXI@Z 00000000120094d8 f i XMLChTranscoder.obj
 0001:000084d8       ??_EXMLTranscoder@xercesc_3_1@@UEAAPEAXI@Z 00000000120094d8 f i TransService.obj
 0001:000084d8       ??_EXMLASCIITranscoder@xercesc_3_1@@UEAAPEAXI@Z 00000000120094d8 f i XMLASCIITranscoder.obj
 0001:000084d8       ??_EXML88591Transcoder@xercesc_3_1@@UEAAPEAXI@Z 00000000120094d8 f i XML88591Transcoder.obj
 0001:000084d8       ??_EXMLUTF8Transcoder@xercesc_3_1@@UEAAPEAXI@Z 00000000120094d8 f i XMLUTF8Transcoder.obj
 0001:0000855c       ??_EXMLLCPTranscoder@xercesc_3_1@@UEAAPEAXI@Z 000000001200955c f i TransService.obj
 0001:000085d0       ?checkTrailingBytes@XMLUTF8Transcoder@xercesc_3_1@@AEBAXEII@Z 00000000120095d0 f i TransService.obj
 0001:0000866c       ??0ENameMap@xercesc_3_1@@IEAA@QEB_W@Z 000000001200966c f i TransService.obj
 0001:000086f0       ?initializeTransService@XMLInitializer@xercesc_3_1@@KAXXZ 00000000120096f0 f   TransService.obj
 0001:000087f4       ?terminateTransService@XMLInitializer@xercesc_3_1@@KAXXZ 00000000120097f4 f   TransService.obj
 0001:000088d8       ??0XMLTransService@xercesc_3_1@@IEAA@XZ 00000000120098d8 f   TransService.obj
 0001:000088e8       ??1XMLTransService@xercesc_3_1@@UEAA@XZ 00000000120098e8 f   TransService.obj
 0001:000088f4       ?addEncoding@XMLTransService@xercesc_3_1@@SAXQEB_WQEAVENameMap@2@@Z 00000000120098f4 f   TransService.obj
 0001:000088fc       ?makeNewTranscoderFor@XMLTransService@xercesc_3_1@@QEAAPEAVXMLTranscoder@2@QEBDAEAW4Codes@12@_KQEAVMemoryManager@2@@Z 00000000120098fc f   TransService.obj
 0001:00008980       ?makeNewTranscoderFor@XMLTransService@xercesc_3_1@@QEAAPEAVXMLTranscoder@2@QEB_WAEAW4Codes@12@_KQEAVMemoryManager@2@@Z 0000000012009980 f   TransService.obj
 0001:00008a8c       ?makeNewTranscoderFor@XMLTransService@xercesc_3_1@@QEAAPEAVXMLTranscoder@2@W4Encodings@XMLRecognizer@2@AEAW4Codes@12@_KQEAVMemoryManager@2@@Z 0000000012009a8c f   TransService.obj
 0001:00008ba4       ?initTransService@XMLTransService@xercesc_3_1@@MEAAXXZ 0000000012009ba4 f   TransService.obj
 0001:000098d0       ?strictIANAEncoding@XMLTransService@xercesc_3_1@@AEAAX_N@Z 000000001200a8d0 f   TransService.obj
 0001:000098d8       ?isStrictIANAEncoding@XMLTransService@xercesc_3_1@@AEAA_NXZ 000000001200a8d8 f   TransService.obj
 0001:000098e0       ??0XMLTranscoder@xercesc_3_1@@IEAA@QEB_W_KQEAVMemoryManager@1@@Z 000000001200a8e0 f   TransService.obj
 0001:0000996c       ??0XMLLCPTranscoder@xercesc_3_1@@IEAA@XZ 000000001200a96c f   TransService.obj
 0001:0000997c       ??1Win32LCPTranscoder@xercesc_3_1@@UEAA@XZ 000000001200a97c f   Win32TransService.obj
 0001:0000997c       ??1XMLLCPTranscoder@xercesc_3_1@@UEAA@XZ 000000001200a97c f   TransService.obj
 0001:00009988       ??0TranscodeToStr@xercesc_3_1@@QEAA@PEB_WPEBDPEAVMemoryManager@1@@Z 000000001200a988 f   TransService.obj
 0001:00009a30       ??0TranscodeToStr@xercesc_3_1@@QEAA@PEB_W_KPEBDPEAVMemoryManager@1@@Z 000000001200aa30 f   TransService.obj
 0001:00009ad0       ??0TranscodeToStr@xercesc_3_1@@QEAA@PEB_WPEAVXMLTranscoder@1@PEAVMemoryManager@1@@Z 000000001200aad0 f   TransService.obj
 0001:00009b20       ??0TranscodeToStr@xercesc_3_1@@QEAA@PEB_W_KPEAVXMLTranscoder@1@PEAVMemoryManager@1@@Z 000000001200ab20 f   TransService.obj
 0001:00009b4c       ?transcode@TranscodeToStr@xercesc_3_1@@AEAAXPEB_W_KPEAVXMLTranscoder@2@@Z 000000001200ab4c f   TransService.obj
 0001:00009d70       ??0TranscodeFromStr@xercesc_3_1@@QEAA@PEBE_KPEBDPEAVMemoryManager@1@@Z 000000001200ad70 f   TransService.obj
 0001:00009e10       ??0TranscodeFromStr@xercesc_3_1@@QEAA@PEBE_KPEAVXMLTranscoder@1@PEAVMemoryManager@1@@Z 000000001200ae10 f   TransService.obj
 0001:00009e3c       ??1TranscodeFromStr@xercesc_3_1@@QEAA@XZ 000000001200ae3c f   TransService.obj
 0001:00009e3c       ??1TranscodeToStr@xercesc_3_1@@QEAA@XZ 000000001200ae3c f   TransService.obj
 0001:00009e58       ?transcode@TranscodeFromStr@xercesc_3_1@@AEAAXPEBE_KPEAVXMLTranscoder@2@@Z 000000001200ae58 f   TransService.obj
 0001:0000a0e0       ?put@?$RefHashTableOf@VENameMap@xercesc_3_1@@UStringHasher@2@@xercesc_3_1@@QEAAXPEAXQEAVENameMap@2@@Z 000000001200b0e0 f i TransService.obj
 0001:0000a1ac       ??1?$BaseRefVectorOf@VENameMap@xercesc_3_1@@@xercesc_3_1@@UEAA@XZ 000000001200b1ac f i TransService.obj
 0001:0000a1b8       ?reset@?$ArrayJanitor@_W@xercesc_3_1@@QEAAXPEA_WQEAVMemoryManager@2@@Z 000000001200b1b8 f i TransService.obj
 0001:0000a1b8       ?reset@?$ArrayJanitor@E@xercesc_3_1@@QEAAXPEAEQEAVMemoryManager@2@@Z 000000001200b1b8 f i TransService.obj
 0001:0000a204       ?makeNew@?$ENameMapFor@VXMLChTranscoder@xercesc_3_1@@@xercesc_3_1@@UEBAPEAVXMLTranscoder@2@_KQEAVMemoryManager@2@@Z 000000001200b204 f i TransService.obj
 0001:0000a274       ?makeNew@?$ENameMapFor@VXMLASCIITranscoder@xercesc_3_1@@@xercesc_3_1@@UEBAPEAVXMLTranscoder@2@_KQEAVMemoryManager@2@@Z 000000001200b274 f i TransService.obj
 0001:0000a2e4       ?makeNew@?$ENameMapFor@VXMLUTF8Transcoder@xercesc_3_1@@@xercesc_3_1@@UEBAPEAVXMLTranscoder@2@_KQEAVMemoryManager@2@@Z 000000001200b2e4 f i TransService.obj
 0001:0000a354       ?makeNew@?$ENameMapFor@VXML88591Transcoder@xercesc_3_1@@@xercesc_3_1@@UEBAPEAVXMLTranscoder@2@_KQEAVMemoryManager@2@@Z 000000001200b354 f i TransService.obj
 0001:0000a3c4       ??0?$EEndianNameMapFor@VXMLUTF16Transcoder@xercesc_3_1@@@xercesc_3_1@@QEAA@QEB_W_N@Z 000000001200b3c4 f i TransService.obj
 0001:0000a3f8       ?makeNew@?$EEndianNameMapFor@VXMLUTF16Transcoder@xercesc_3_1@@@xercesc_3_1@@UEBAPEAVXMLTranscoder@2@_KQEAVMemoryManager@2@@Z 000000001200b3f8 f i TransService.obj
 0001:0000a468       ??0?$EEndianNameMapFor@VXMLUCS4Transcoder@xercesc_3_1@@@xercesc_3_1@@QEAA@QEB_W_N@Z 000000001200b468 f i TransService.obj
 0001:0000a49c       ?makeNew@?$EEndianNameMapFor@VXMLUCS4Transcoder@xercesc_3_1@@@xercesc_3_1@@UEBAPEAVXMLTranscoder@2@_KQEAVMemoryManager@2@@Z 000000001200b49c f i TransService.obj
 0001:0000a50c       ?makeNew@?$ENameMapFor@VXMLEBCDICTranscoder@xercesc_3_1@@@xercesc_3_1@@UEBAPEAVXMLTranscoder@2@_KQEAVMemoryManager@2@@Z 000000001200b50c f i TransService.obj
 0001:0000a574       ?makeNew@?$ENameMapFor@VXMLIBM1047Transcoder@xercesc_3_1@@@xercesc_3_1@@UEBAPEAVXMLTranscoder@2@_KQEAVMemoryManager@2@@Z 000000001200b574 f i TransService.obj
 0001:0000a5dc       ?makeNew@?$ENameMapFor@VXMLIBM1140Transcoder@xercesc_3_1@@@xercesc_3_1@@UEBAPEAVXMLTranscoder@2@_KQEAVMemoryManager@2@@Z 000000001200b5dc f i TransService.obj
 0001:0000a644       ?makeNew@?$ENameMapFor@VXMLWin1252Transcoder@xercesc_3_1@@@xercesc_3_1@@UEBAPEAVXMLTranscoder@2@_KQEAVMemoryManager@2@@Z 000000001200b644 f i TransService.obj
 0001:0000a6ac       ??_E?$BaseRefVectorOf@VENameMap@xercesc_3_1@@@xercesc_3_1@@UEAAPEAXI@Z 000000001200b6ac f i  CIL library: CIL module
 0001:0000a6ac       ??_G?$BaseRefVectorOf@VENameMap@xercesc_3_1@@@xercesc_3_1@@UEAAPEAXI@Z 000000001200b6ac f i TransService.obj
 0001:0000a6dc       ??_E?$RefVectorOf@VENameMap@xercesc_3_1@@@xercesc_3_1@@UEAAPEAXI@Z 000000001200b6dc f i  CIL library: CIL module
 0001:0000a6dc       ??_G?$RefVectorOf@VENameMap@xercesc_3_1@@@xercesc_3_1@@UEAAPEAXI@Z 000000001200b6dc f i TransService.obj
 0001:0000a778       ??_E?$ENameMapFor@VXMLUTF8Transcoder@xercesc_3_1@@@xercesc_3_1@@UEAAPEAXI@Z 000000001200b778 f i  CIL library: CIL module
 0001:0000a778       ??_G?$ENameMapFor@VXMLUTF8Transcoder@xercesc_3_1@@@xercesc_3_1@@UEAAPEAXI@Z 000000001200b778 f i TransService.obj
 0001:0000a778       ??_E?$ENameMapFor@VXML88591Transcoder@xercesc_3_1@@@xercesc_3_1@@UEAAPEAXI@Z 000000001200b778 f i  CIL library: CIL module
 0001:0000a778       ??_E?$EEndianNameMapFor@VXMLUTF16Transcoder@xercesc_3_1@@@xercesc_3_1@@UEAAPEAXI@Z 000000001200b778 f i  CIL library: CIL module
 0001:0000a778       ??_E?$ENameMapFor@VXMLIBM1047Transcoder@xercesc_3_1@@@xercesc_3_1@@UEAAPEAXI@Z 000000001200b778 f i  CIL library: CIL module
 0001:0000a778       ??_E?$ENameMapFor@VXMLIBM1140Transcoder@xercesc_3_1@@@xercesc_3_1@@UEAAPEAXI@Z 000000001200b778 f i  CIL library: CIL module
 0001:0000a778       ??_G?$ENameMapFor@VXMLEBCDICTranscoder@xercesc_3_1@@@xercesc_3_1@@UEAAPEAXI@Z 000000001200b778 f i TransService.obj
 0001:0000a778       ??_E?$EEndianNameMapFor@VXMLUCS4Transcoder@xercesc_3_1@@@xercesc_3_1@@UEAAPEAXI@Z 000000001200b778 f i  CIL library: CIL module
 0001:0000a778       ??_G?$ENameMapFor@VXMLIBM1047Transcoder@xercesc_3_1@@@xercesc_3_1@@UEAAPEAXI@Z 000000001200b778 f i TransService.obj
 0001:0000a778       ??_EENameMap@xercesc_3_1@@UEAAPEAXI@Z 000000001200b778 f i  CIL library: CIL module
 0001:0000a778       ??_G?$ENameMapFor@VXMLWin1252Transcoder@xercesc_3_1@@@xercesc_3_1@@UEAAPEAXI@Z 000000001200b778 f i TransService.obj
 0001:0000a778       ??_G?$ENameMapFor@VXMLChTranscoder@xercesc_3_1@@@xercesc_3_1@@UEAAPEAXI@Z 000000001200b778 f i TransService.obj
 0001:0000a778       ??_GENameMap@xercesc_3_1@@UEAAPEAXI@Z 000000001200b778 f i TransService.obj
 0001:0000a778       ??_G?$EEndianNameMapFor@VXMLUTF16Transcoder@xercesc_3_1@@@xercesc_3_1@@UEAAPEAXI@Z 000000001200b778 f i TransService.obj
 0001:0000a778       ??_E?$ENameMapFor@VXMLChTranscoder@xercesc_3_1@@@xercesc_3_1@@UEAAPEAXI@Z 000000001200b778 f i  CIL library: CIL module
 0001:0000a778       ??_G?$ENameMapFor@VXML88591Transcoder@xercesc_3_1@@@xercesc_3_1@@UEAAPEAXI@Z 000000001200b778 f i TransService.obj
 0001:0000a778       ??_E?$ENameMapFor@VXMLEBCDICTranscoder@xercesc_3_1@@@xercesc_3_1@@UEAAPEAXI@Z 000000001200b778 f i  CIL library: CIL module
 0001:0000a778       ??_G?$EEndianNameMapFor@VXMLUCS4Transcoder@xercesc_3_1@@@xercesc_3_1@@UEAAPEAXI@Z 000000001200b778 f i TransService.obj
 0001:0000a778       ??_E?$ENameMapFor@VXMLWin1252Transcoder@xercesc_3_1@@@xercesc_3_1@@UEAAPEAXI@Z 000000001200b778 f i  CIL library: CIL module
 0001:0000a778       ??_E?$ENameMapFor@VXMLASCIITranscoder@xercesc_3_1@@@xercesc_3_1@@UEAAPEAXI@Z 000000001200b778 f i  CIL library: CIL module
 0001:0000a778       ??_G?$ENameMapFor@VXMLASCIITranscoder@xercesc_3_1@@@xercesc_3_1@@UEAAPEAXI@Z 000000001200b778 f i TransService.obj
 0001:0000a778       ??_G?$ENameMapFor@VXMLIBM1140Transcoder@xercesc_3_1@@@xercesc_3_1@@UEAAPEAXI@Z 000000001200b778 f i TransService.obj
 0001:0000a7c4       ??2XMemory@xercesc_3_1@@SAPEAX_K@Z 000000001200b7c4 f   XMemory.obj
 0001:0000a7f0       ??2XMemory@xercesc_3_1@@SAPEAX_KPEBDH@Z 000000001200b7f0 f   XMemory.obj
 0001:0000a7f8       ??2XMemory@xercesc_3_1@@SAPEAX_KPEAVMemoryManager@1@@Z 000000001200b7f8 f   XMemory.obj
 0001:0000a81c       ??2XMemory@xercesc_3_1@@SAPEAX_KPEAX@Z 000000001200b81c f   XMemory.obj
 0001:0000a820       ??3XMemory@xercesc_3_1@@SAXPEAXPEBDH@Z 000000001200b820 f   XMemory.obj
 0001:0000a820       ??3XMemory@xercesc_3_1@@SAXPEAXPEAVMemoryManager@1@@Z 000000001200b820 f   XMemory.obj
 0001:0000a820       ??3XMemory@xercesc_3_1@@SAXPEAX@Z 000000001200b820 f   XMemory.obj
 0001:0000a83c       ?transcodeFrom@XML256TableTranscoder@xercesc_3_1@@UEAA_KQEBE_KQEA_W1AEA_KQEAE@Z 000000001200b83c f   XML256TableTranscoder.obj
 0001:0000a8a4       ?transcodeTo@XML256TableTranscoder@xercesc_3_1@@UEAA_KQEB_W_KQEAE1AEA_KW4UnRepOpts@XMLTranscoder@2@@Z 000000001200b8a4 f   XML256TableTranscoder.obj
 0001:0000a9dc       ?canTranscodeTo@XML256TableTranscoder@xercesc_3_1@@UEAA_NI@Z 000000001200b9dc f   XML256TableTranscoder.obj
 0001:0000a9f0       ??0XML256TableTranscoder@xercesc_3_1@@IEAA@QEB_W_K0QEBUTransRec@XMLTransService@1@1QEAVMemoryManager@1@@Z 000000001200b9f0 f   XML256TableTranscoder.obj
 0001:0000aa38       ?xlatOneTo@XML256TableTranscoder@xercesc_3_1@@IEBAE_W@Z 000000001200ba38 f   XML256TableTranscoder.obj
 0001:0000aa84       ??0XML88591Transcoder@xercesc_3_1@@QEAA@QEB_W_KQEAVMemoryManager@1@@Z 000000001200ba84 f   XML88591Transcoder.obj
 0001:0000aaa8       ?transcodeFrom@XML88591Transcoder@xercesc_3_1@@UEAA_KQEBE_KQEA_W1AEA_KQEAE@Z 000000001200baa8 f   XML88591Transcoder.obj
 0001:0000aaf8       ?transcodeTo@XML88591Transcoder@xercesc_3_1@@UEAA_KQEB_W_KQEAE1AEA_KW4UnRepOpts@XMLTranscoder@2@@Z 000000001200baf8 f   XML88591Transcoder.obj
 0001:0000ac1c       ?canTranscodeTo@XML88591Transcoder@xercesc_3_1@@UEAA_NI@Z 000000001200bc1c f   XML88591Transcoder.obj
 0001:0000ac28       ??_FXMLAbstractDoubleFloat@xercesc_3_1@@QEAAXXZ 000000001200bc28 f i XMLAbstractDoubleFloat.obj
 0001:0000ac5c       ??_EXMLAbstractDoubleFloat@xercesc_3_1@@UEAAPEAXI@Z 000000001200bc5c f i XMLAbstractDoubleFloat.obj
 0001:0000acd0       ?isSpecialValue@XMLAbstractDoubleFloat@xercesc_3_1@@AEBA_NXZ 000000001200bcd0 f i XMLAbstractDoubleFloat.obj
 0001:0000acd8       ?isDataOverflowed@XMLAbstractDoubleFloat@xercesc_3_1@@QEBA_NXZ 000000001200bcd8 f i XMLAbstractDoubleFloat.obj
 0001:0000acdc       ?getValue@XMLAbstractDoubleFloat@xercesc_3_1@@QEBANXZ 000000001200bcdc f i XMLAbstractDoubleFloat.obj
 0001:0000ace4       ??_FXMLBigDecimal@xercesc_3_1@@QEAAXXZ 000000001200bce4 f i XMLAbstractDoubleFloat.obj
 0001:0000ad10       ??0NumberFormatException@xercesc_3_1@@QEAA@QEBD_KW4Codes@XMLExcepts@1@PEAVMemoryManager@1@@Z 000000001200bd10 f i XMLAbstractDoubleFloat.obj
 0001:0000ad5c       ??0NumberFormatException@xercesc_3_1@@QEAA@AEBV01@@Z 000000001200bd5c f i XMLAbstractDoubleFloat.obj
 0001:0000ad80       ??0NumberFormatException@xercesc_3_1@@QEAA@QEBD_KW4Codes@XMLExcepts@1@QEB_W333PEAVMemoryManager@1@@Z 000000001200bd80 f i XMLAbstractDoubleFloat.obj
 0001:0000adf4       ??0NumberFormatException@xercesc_3_1@@QEAA@QEBD_KW4Codes@XMLExcepts@1@0000PEAVMemoryManager@1@@Z 000000001200bdf4 f i XMLAbstractDoubleFloat.obj
 0001:0000ae68       ??1NumberFormatException@xercesc_3_1@@UEAA@XZ 000000001200be68 f i XMLAbstractDoubleFloat.obj
 0001:0000ae78       ?duplicate@NumberFormatException@xercesc_3_1@@UEBAPEAVXMLException@2@XZ 000000001200be78 f i XMLAbstractDoubleFloat.obj
 0001:0000aedc       ?getType@NumberFormatException@xercesc_3_1@@UEBAPEB_WXZ 000000001200bedc f i XMLAbstractDoubleFloat.obj
 0001:0000aee4       ??_ENumberFormatException@xercesc_3_1@@UEAAPEAXI@Z 000000001200bee4 f i XMLAbstractDoubleFloat.obj
 0001:0000af60       ??0XMLAbstractDoubleFloat@xercesc_3_1@@IEAA@QEAVMemoryManager@1@@Z 000000001200bf60 f   XMLAbstractDoubleFloat.obj
 0001:0000af90       ??1XMLAbstractDoubleFloat@xercesc_3_1@@UEAA@XZ 000000001200bf90 f   XMLAbstractDoubleFloat.obj
 0001:0000afe0       ?init@XMLAbstractDoubleFloat@xercesc_3_1@@IEAAXQEB_W@Z 000000001200bfe0 f   XMLAbstractDoubleFloat.obj
 0001:0000b3d8       ?getFormattedString@XMLAbstractDoubleFloat@xercesc_3_1@@UEBAPEB_WXZ 000000001200c3d8 f   XMLAbstractDoubleFloat.obj
 0001:0000b404       ?formatString@XMLAbstractDoubleFloat@xercesc_3_1@@AEAAXXZ 000000001200c404 f   XMLAbstractDoubleFloat.obj
 0001:0000b538       ?compareValues@XMLAbstractDoubleFloat@xercesc_3_1@@KAHQEBV12@0QEAVMemoryManager@2@@Z 000000001200c538 f   XMLAbstractDoubleFloat.obj
 0001:0000b5d4       ?compareSpecial@XMLAbstractDoubleFloat@xercesc_3_1@@CAHQEBV12@QEAVMemoryManager@2@@Z 000000001200c5d4 f   XMLAbstractDoubleFloat.obj
 0001:0000b6b4       ?normalizeZero@XMLAbstractDoubleFloat@xercesc_3_1@@AEAAXQEA_W@Z 000000001200c6b4 f   XMLAbstractDoubleFloat.obj
 0001:0000b940       ?normalizeDecimalPoint@XMLAbstractDoubleFloat@xercesc_3_1@@SAXQEAD@Z 000000001200c940 f   XMLAbstractDoubleFloat.obj
 0001:0000b97c       ?convert@XMLAbstractDoubleFloat@xercesc_3_1@@IEAAXQEAD@Z 000000001200c97c f   XMLAbstractDoubleFloat.obj
 0001:0000ba74       ?getCanonicalRepresentation@XMLAbstractDoubleFloat@xercesc_3_1@@SAPEA_WQEB_WQEAVMemoryManager@2@@Z 000000001200ca74 f   XMLAbstractDoubleFloat.obj
 0001:0000be68       ?getProtoType@XMLAbstractDoubleFloat@xercesc_3_1@@UEBAPEAVXProtoType@2@XZ 000000001200ce68 f   XMLAbstractDoubleFloat.obj
 0001:0000be70       ?serialize@XMLAbstractDoubleFloat@xercesc_3_1@@UEAAXAEAVXSerializeEngine@2@@Z 000000001200ce70 f   XMLAbstractDoubleFloat.obj
 0001:0000bf54       ??1?$ArrayJanitor@PEAU?$RefHashTableBucketElem@_W@xercesc_3_1@@@xercesc_3_1@@QEAA@XZ 000000001200cf54 f i DOMLSSerializerImpl.obj
 0001:0000bf54       ??1?$ArrayJanitor@PEAUHash2KeysSetBucketElem@xercesc_3_1@@@xercesc_3_1@@QEAA@XZ 000000001200cf54 f i DGXMLScanner.obj
 0001:0000bf54       ??1?$ArrayJanitor@PEAU?$RefHashTableBucketElem@VDOMElement@xercesc_3_1@@@xercesc_3_1@@@xercesc_3_1@@QEAA@XZ 000000001200cf54 f i SchemaInfo.obj
 0001:0000bf54       ??1?$ArrayJanitor@PEAU?$RefHashTableBucketElem@VRangeFactory@xercesc_3_1@@@xercesc_3_1@@@xercesc_3_1@@QEAA@XZ 000000001200cf54 f i RangeTokenMap.obj
 0001:0000bf54       ??1?$ArrayJanitor@_N@xercesc_3_1@@QEAA@XZ 000000001200cf54 f i AllContentModel.obj
 0001:0000bf54       ??1?$ArrayJanitor@PEAU?$RefHashTableBucketElem@VGrammar@xercesc_3_1@@@xercesc_3_1@@@xercesc_3_1@@QEAA@XZ 000000001200cf54 f i XMLGrammarPoolImpl.obj
 0001:0000bf54       ??1?$ArrayJanitor@PEAU?$RefHashTableBucketElem@VXSObject@xercesc_3_1@@@xercesc_3_1@@@xercesc_3_1@@QEAA@XZ 000000001200cf54 f i XSModel.obj
 0001:0000bf54       ??1?$ArrayJanitor@PEAU?$RefHash2KeysTableBucketElem@V?$KeyRefPair@XVDOMUserDataHandler@xercesc_3_1@@@xercesc_3_1@@@xercesc_3_1@@@xercesc_3_1@@QEAA@XZ 000000001200cf54 f i DOMDocumentImpl.obj
 0001:0000bf54       ??1?$ArrayJanitor@PEAU?$RefHashTableBucketElem@VDTDElementDecl@xercesc_3_1@@@xercesc_3_1@@@xercesc_3_1@@QEAA@XZ 000000001200cf54 f i XMLGrammarPoolImpl.obj
 0001:0000bf54       ??1?$ArrayJanitor@PEAU?$RefHashTableBucketElem@VXMLElementDecl@xercesc_3_1@@@xercesc_3_1@@@xercesc_3_1@@QEAA@XZ 000000001200cf54 f i WFXMLScanner.obj
 0001:0000bf54       ??1?$ArrayJanitor@PEAU?$RefHash2KeysTableBucketElem@VXSIDCDefinition@xercesc_3_1@@@xercesc_3_1@@@xercesc_3_1@@QEAA@XZ 000000001200cf54 f i XSObjectFactory.obj
 0001:0000bf54       ??1?$ArrayJanitor@PEAU?$RefHashTableBucketElem@VXSNamespaceItem@xercesc_3_1@@@xercesc_3_1@@@xercesc_3_1@@QEAA@XZ 000000001200cf54 f i XSModel.obj
 0001:0000bf54       ??1?$ArrayJanitor@PEAU?$RefHash2KeysTableBucketElem@VSchemaInfo@xercesc_3_1@@@xercesc_3_1@@@xercesc_3_1@@QEAA@XZ 000000001200cf54 f i TraverseSchema.obj
 0001:0000bf54       ??1?$ArrayJanitor@PEAU?$RefHashTableBucketElem@VXMLAttDef@xercesc_3_1@@@xercesc_3_1@@@xercesc_3_1@@QEAA@XZ 000000001200cf54 f i XTemplateSerializer.obj
 0001:0000bf54       ??1?$ArrayJanitor@PEAU?$RefHashTableBucketElem@VXSAnnotation@xercesc_3_1@@@xercesc_3_1@@@xercesc_3_1@@QEAA@XZ 000000001200cf54 f i XTemplateSerializer.obj
 0001:0000bf54       ??1?$ArrayJanitor@PEAU?$RefHashTableBucketElem@I@xercesc_3_1@@@xercesc_3_1@@QEAA@XZ 000000001200cf54 f i DGXMLScanner.obj
 0001:0000bf54       ??1?$ArrayJanitor@PEAU?$RefHashTableBucketElem@VFieldValueMap@xercesc_3_1@@@xercesc_3_1@@@xercesc_3_1@@QEAA@XZ 000000001200cf54 f i ValueStore.obj
 0001:0000bf54       ??1?$ArrayJanitor@PEAU?$RefHash2KeysTableBucketElem@VSchemaAttDef@xercesc_3_1@@@xercesc_3_1@@@xercesc_3_1@@QEAA@XZ 000000001200cf54 f i XTemplateSerializer.obj
 0001:0000bf54       ??1?$ArrayJanitor@PEAU?$RefHash2KeysTableBucketElem@V?$ValueVectorOf@PEAVSchemaElementDecl@xercesc_3_1@@@xercesc_3_1@@@xercesc_3_1@@@xercesc_3_1@@QEAA@XZ 000000001200cf54 f i XTemplateSerializer.obj
 0001:0000bf54       ??1?$ArrayJanitor@PEAU?$RefHashTableBucketElem@V?$ValueVectorOf@PEAVSchemaElementDecl@xercesc_3_1@@@xercesc_3_1@@@xercesc_3_1@@@xercesc_3_1@@QEAA@XZ 000000001200cf54 f i TraverseSchema.obj
 0001:0000bf54       ??1?$ArrayJanitor@PEAU?$RefHashTableBucketElem@VValueStore@xercesc_3_1@@@xercesc_3_1@@@xercesc_3_1@@QEAA@XZ 000000001200cf54 f i ValueStoreCache.obj
 0001:0000bf54       ??1?$ArrayJanitor@PEAU?$RefHashTableBucketElem@VKVStringPair@xercesc_3_1@@@xercesc_3_1@@@xercesc_3_1@@QEAA@XZ 000000001200cf54 f i XTemplateSerializer.obj
 0001:0000bf54       ??1?$ArrayJanitor@PEAU?$RefHashTableBucketElem@VSchemaInfo@xercesc_3_1@@@xercesc_3_1@@@xercesc_3_1@@QEAA@XZ 000000001200cf54 f i TraverseSchema.obj
 0001:0000bf54       ??1?$ArrayJanitor@PEAU?$RefHashTableBucketElem@VDatatypeValidator@xercesc_3_1@@@xercesc_3_1@@@xercesc_3_1@@QEAA@XZ 000000001200cf54 f i XTemplateSerializer.obj
 0001:0000bf54       ??1?$ArrayJanitor@PEAU?$RefHash2KeysTableBucketElem@VXMLAttr@xercesc_3_1@@@xercesc_3_1@@@xercesc_3_1@@QEAA@XZ 000000001200cf54 f i DGXMLScanner.obj
 0001:0000bf54       ??1?$ArrayJanitor@PEAU?$RefHashTableBucketElem@VXMLNotationDecl@xercesc_3_1@@@xercesc_3_1@@@xercesc_3_1@@QEAA@XZ 000000001200cf54 f i XMLGrammarPoolImpl.obj
 0001:0000bf54       ??1?$ArrayJanitor@PEAU?$ValueHashTableBucketElem@I@xercesc_3_1@@@xercesc_3_1@@QEAA@XZ 000000001200cf54 f i DOMLSParserImpl.obj
 0001:0000bf54       ??1?$ArrayJanitor@PEAU?$ValueHashTableBucketElem@W4FilterAction@DOMLSParserFilter@xercesc_3_1@@@xercesc_3_1@@@xercesc_3_1@@QEAA@XZ 000000001200cf54 f i DOMLSParserImpl.obj
 0001:0000bf54       ??1?$ArrayJanitor@PEAU?$RefHash2KeysTableBucketElem@VIdentityConstraint@xercesc_3_1@@@xercesc_3_1@@@xercesc_3_1@@QEAA@XZ 000000001200cf54 f i TraverseSchema.obj
 0001:0000bf54       ??1?$ArrayJanitor@PEAU?$RefHashTableBucketElem@VXMLCanRepGroup@xercesc_3_1@@@xercesc_3_1@@@xercesc_3_1@@QEAA@XZ 000000001200cf54 f i DatatypeValidatorFactory.obj
 0001:0000bf54       ??1?$ArrayJanitor@D@xercesc_3_1@@QEAA@XZ 000000001200cf54 f i XMLAbstractDoubleFloat.obj
 0001:0000bf54       ??1?$ArrayJanitor@H@xercesc_3_1@@QEAA@XZ 000000001200cf54 f i XMLRangeFactory.obj
 0001:0000bf54       ??1?$ArrayJanitor@PEAU?$RefHash2KeysTableBucketElem@_W@xercesc_3_1@@@xercesc_3_1@@QEAA@XZ 000000001200cf54 f i TraverseSchema.obj
 0001:0000bf54       ??1?$ArrayJanitor@_W@xercesc_3_1@@QEAA@XZ 000000001200cf54 f i PlatformUtils.obj
 0001:0000bf54       ??1?$ArrayJanitor@PEAU?$ValueHashTableBucketElem@G@xercesc_3_1@@@xercesc_3_1@@QEAA@XZ 000000001200cf54 f i GeneralAttributeCheck.obj
 0001:0000bf54       ??1?$ArrayJanitor@PEAU?$RefHashTableBucketElem@VXSerializedObjectId@xercesc_3_1@@@xercesc_3_1@@@xercesc_3_1@@QEAA@XZ 000000001200cf54 f i XSerializeEngine.obj
 0001:0000bf54       ??1?$ArrayJanitor@PEAU?$RefHashTableBucketElem@VDTDEntityDecl@xercesc_3_1@@@xercesc_3_1@@@xercesc_3_1@@QEAA@XZ 000000001200cf54 f i XMLGrammarPoolImpl.obj
 0001:0000bf54       ??1?$ArrayJanitor@PEAU?$RefHashTableBucketElem@VDTDAttDef@xercesc_3_1@@@xercesc_3_1@@@xercesc_3_1@@QEAA@XZ 000000001200cf54 f i XTemplateSerializer.obj
 0001:0000bf54       ??1?$ArrayJanitor@PEAU?$ValueHashTableBucketElem@_N@xercesc_3_1@@@xercesc_3_1@@QEAA@XZ 000000001200cf54 f i EncodingValidator.obj
 0001:0000bf54       ??1?$ArrayJanitor@PEAU?$RefHashTableBucketElem@VRangeTokenElemMap@xercesc_3_1@@@xercesc_3_1@@@xercesc_3_1@@QEAA@XZ 000000001200cf54 f i RangeTokenMap.obj
 0001:0000bf54       ??1?$ArrayJanitor@PEAU?$ValueHashTableBucketElem@W4DataType@XSValue@xercesc_3_1@@@xercesc_3_1@@@xercesc_3_1@@QEAA@XZ 000000001200cf54 f i XSValue.obj
 0001:0000bf54       ??1?$ArrayJanitor@PEAU?$RefHashTableBucketElem@VComplexTypeInfo@xercesc_3_1@@@xercesc_3_1@@@xercesc_3_1@@QEAA@XZ 000000001200cf54 f i XTemplateSerializer.obj
 0001:0000bf54       ??1?$ArrayJanitor@PEAU?$RefHashTableBucketElem@VXMLInteger@xercesc_3_1@@@xercesc_3_1@@@xercesc_3_1@@QEAA@XZ 000000001200cf54 f i DFAContentModel.obj
 0001:0000bf54       ??1?$ArrayJanitor@PEAU?$RefHashTableBucketElem@V?$ValueVectorOf@PEAVDOMElement@xercesc_3_1@@@xercesc_3_1@@@xercesc_3_1@@@xercesc_3_1@@QEAA@XZ 000000001200cf54 f i TraverseSchema.obj
 0001:0000bf54       ??1?$ArrayJanitor@PEAU?$RefHashTableBucketElem@VXMLRefInfo@xercesc_3_1@@@xercesc_3_1@@@xercesc_3_1@@QEAA@XZ 000000001200cf54 f i ValidationContextImpl.obj
 0001:0000bf54       ??1?$ArrayJanitor@PEAU?$RefHashTableBucketElem@VCPMapEntry@xercesc_3_1@@@xercesc_3_1@@@xercesc_3_1@@QEAA@XZ 000000001200cf54 f i Win32TransService.obj
 0001:0000bf54       ??1?$ArrayJanitor@PEAU?$RefHashTableBucketElem@VXercesGroupInfo@xercesc_3_1@@@xercesc_3_1@@@xercesc_3_1@@QEAA@XZ 000000001200cf54 f i XTemplateSerializer.obj
 0001:0000bf54       ??1?$ArrayJanitor@PEAU?$ValueHashTableBucketElem@_W@xercesc_3_1@@@xercesc_3_1@@QEAA@XZ 000000001200cf54 f i SGXMLScanner.obj
 0001:0000bf54       ??1?$ArrayJanitor@PEAU?$RefHashTableBucketElem@VENameMap@xercesc_3_1@@@xercesc_3_1@@@xercesc_3_1@@QEAA@XZ 000000001200cf54 f i TransService.obj
 0001:0000bf54       ??1?$ArrayJanitor@PEAU?$RefHash2KeysTableBucketElem@VValueStore@xercesc_3_1@@@xercesc_3_1@@@xercesc_3_1@@QEAA@XZ 000000001200cf54 f i ValueStoreCache.obj
 0001:0000bf54       ??1?$ArrayJanitor@PEAU?$RefHashTableBucketElem@UPoolElem@XMLStringPool@xercesc_3_1@@@xercesc_3_1@@@xercesc_3_1@@QEAA@XZ 000000001200cf54 f i StringPool.obj
 0001:0000bf54       ??1?$ArrayJanitor@PEAU?$RefHashTableBucketElem@VXercesAttGroupInfo@xercesc_3_1@@@xercesc_3_1@@@xercesc_3_1@@QEAA@XZ 000000001200cf54 f i XTemplateSerializer.obj
 0001:0000bf54       ??1?$ArrayJanitor@PEAU?$RefHash2KeysTableBucketElem@VXSObject@xercesc_3_1@@@xercesc_3_1@@@xercesc_3_1@@QEAA@XZ 000000001200cf54 f i XSModel.obj
 0001:0000bf94       ??0XMLASCIITranscoder@xercesc_3_1@@QEAA@QEB_W_KQEAVMemoryManager@1@@Z 000000001200cf94 f   XMLASCIITranscoder.obj
 0001:0000bfb8       ?transcodeFrom@XMLASCIITranscoder@xercesc_3_1@@UEAA_KQEBE_KQEA_W1AEA_KQEAE@Z 000000001200cfb8 f   XMLASCIITranscoder.obj
 0001:0000c0f0       ?transcodeTo@XMLASCIITranscoder@xercesc_3_1@@UEAA_KQEB_W_KQEAE1AEA_KW4UnRepOpts@XMLTranscoder@2@@Z 000000001200d0f0 f   XMLASCIITranscoder.obj
 0001:0000c21c       ?canTranscodeTo@XMLASCIITranscoder@xercesc_3_1@@UEAA_NI@Z 000000001200d21c f   XMLASCIITranscoder.obj
 0001:0000c228       ??_EXMLBigDecimal@xercesc_3_1@@UEAAPEAXI@Z 000000001200d228 f i XMLBigDecimal.obj
 0001:0000c29c       ?getTotalDigit@XMLBigInteger@xercesc_3_1@@QEBAIXZ 000000001200d29c f i XMLBigDecimal.obj
 0001:0000c2cc       ??8XMLBigInteger@xercesc_3_1@@QEBA_NAEBV01@@Z 000000001200d2cc f i XMLBigDecimal.obj
 0001:0000c2e4       ?setCategoryId@RangeTokenElemMap@xercesc_3_1@@QEAAXI@Z 000000001200d2e4 f i ASCIIRangeFactory.obj
 0001:0000c2e4       ?setSign@XMLBigInteger@xercesc_3_1@@AEAAXH@Z 000000001200d2e4 f i XMLBigDecimal.obj
 0001:0000c2e4       ?setEscapeFlags@XMLFormatter@xercesc_3_1@@QEAAXW4EscapeFlags@12@@Z 000000001200d2e4 f i LocalFileFormatTarget.obj
 0001:0000c2e8       ??0XMLBigDecimal@xercesc_3_1@@QEAA@QEB_WQEAVMemoryManager@1@@Z 000000001200d2e8 f   XMLBigDecimal.obj
 0001:0000c448       ??1XMLBigDecimal@xercesc_3_1@@UEAA@XZ 000000001200d448 f   XMLBigDecimal.obj
 0001:0000c48c       ?cleanUp@XMLBigDecimal@xercesc_3_1@@AEAAXXZ 000000001200d48c f   XMLBigDecimal.obj
 0001:0000c4a8       ?setDecimalValue@XMLBigDecimal@xercesc_3_1@@QEAAXQEB_W@Z 000000001200d4a8 f   XMLBigDecimal.obj
 0001:0000c594       ?getCanonicalRepresentation@XMLBigDecimal@xercesc_3_1@@SAPEA_WQEB_WQEAVMemoryManager@2@@Z 000000001200d594 f   XMLBigDecimal.obj
 0001:0000c74c       ?parseDecimal@XMLBigDecimal@xercesc_3_1@@SAXQEB_WQEA_WAEAH22QEAVMemoryManager@2@@Z 000000001200d74c f   XMLBigDecimal.obj
 0001:0000ca18       ?parseDecimal@XMLBigDecimal@xercesc_3_1@@SAXQEB_WQEAVMemoryManager@2@@Z 000000001200da18 f   XMLBigDecimal.obj
 0001:0000cc54       ?compareValues@XMLBigDecimal@xercesc_3_1@@SAHQEBV12@0QEAVMemoryManager@2@@Z 000000001200dc54 f   XMLBigDecimal.obj
 0001:0000ccc0       ?toCompare@XMLBigDecimal@xercesc_3_1@@QEBAHAEBV12@@Z 000000001200dcc0 f   XMLBigDecimal.obj
 0001:0000cd48       ?createObject@XMLBigDecimal@xercesc_3_1@@SAPEAVXSerializable@2@PEAVMemoryManager@2@@Z 000000001200dd48 f   XMLBigDecimal.obj
 0001:0000cd94       ?getProtoType@XMLBigDecimal@xercesc_3_1@@UEBAPEAVXProtoType@2@XZ 000000001200dd94 f   XMLBigDecimal.obj
 0001:0000cd9c       ??0XMLBigDecimal@xercesc_3_1@@QEAA@QEAVMemoryManager@1@@Z 000000001200dd9c f   XMLBigDecimal.obj
 0001:0000cdc4       ?serialize@XMLBigDecimal@xercesc_3_1@@UEAAXAEAVXSerializeEngine@2@@Z 000000001200ddc4 f   XMLBigDecimal.obj
 0001:0000cfbc       ?getCanonicalRepresentation@XMLBigInteger@xercesc_3_1@@SAPEA_WQEB_WQEAVMemoryManager@2@_N@Z 000000001200dfbc f   XMLBigInteger.obj
 0001:0000d0ec       ?parseBigInteger@XMLBigInteger@xercesc_3_1@@SAXQEB_WQEA_WAEAHQEAVMemoryManager@2@@Z 000000001200e0ec f   XMLBigInteger.obj
 0001:0000d33c       ??0XMLBigInteger@xercesc_3_1@@QEAA@QEB_WQEAVMemoryManager@1@@Z 000000001200e33c f   XMLBigInteger.obj
 0001:0000d4ec       ??1XMLBigInteger@xercesc_3_1@@QEAA@XZ 000000001200e4ec f   XMLBigInteger.obj
 0001:0000d51c       ??0XMLBigInteger@xercesc_3_1@@QEAA@AEBV01@@Z 000000001200e51c f   XMLBigInteger.obj
 0001:0000d5f4       ?compareValues@XMLBigInteger@xercesc_3_1@@SAHQEBV12@0QEAVMemoryManager@2@@Z 000000001200e5f4 f   XMLBigInteger.obj
 0001:0000d724       ?compareValues@XMLBigInteger@xercesc_3_1@@SAHQEB_WAEBH01QEAVMemoryManager@2@@Z 000000001200e724 f   XMLBigInteger.obj
 0001:0000d834       ?multiply@XMLBigInteger@xercesc_3_1@@QEAAXI@Z 000000001200e834 f   XMLBigInteger.obj
 0001:0000d910       ?divide@XMLBigInteger@xercesc_3_1@@QEAAXI@Z 000000001200e910 f   XMLBigInteger.obj
 0001:0000d9ac       ?intValue@XMLBigInteger@xercesc_3_1@@QEBAHXZ 000000001200e9ac f   XMLBigInteger.obj
 0001:0000d9d4       ?isAllSpaces@XMLChar1_0@xercesc_3_1@@SA_NQEB_W_K@Z 000000001200e9d4 f   XMLChar.obj
 0001:0000da08       ?containsWhiteSpace@XMLChar1_0@xercesc_3_1@@SA_NQEB_W_K@Z 000000001200ea08 f   XMLChar.obj
 0001:0000da3c       ?isValidNCName@XMLChar1_0@xercesc_3_1@@SA_NQEB_W_K@Z 000000001200ea3c f   XMLChar.obj
 0001:0000da7c       ?isValidNmtoken@XMLChar1_0@xercesc_3_1@@SA_NQEB_W_K@Z 000000001200ea7c f   XMLChar.obj
 0001:0000dab0       ?isValidName@XMLChar1_0@xercesc_3_1@@SA_NQEB_W_K@Z 000000001200eab0 f   XMLChar.obj
 0001:0000daec       ?isValidName@XMLChar1_0@xercesc_3_1@@SA_NQEB_W@Z 000000001200eaec f   XMLChar.obj
 0001:0000db1c       ?isValidQName@XMLChar1_0@xercesc_3_1@@SA_NQEB_W_K@Z 000000001200eb1c f   XMLChar.obj
 0001:0000dba0       ?isPublicIdChar@XMLChar1_0@xercesc_3_1@@SA_N_W0@Z 000000001200eba0 f   XMLChar.obj
 0001:0000dba0       ?isPublicIdChar@XMLChar1_1@xercesc_3_1@@SA_N_W0@Z 000000001200eba0 f   XMLChar.obj
 0001:0000dbf4       ?enableNELWS@XMLChar1_0@xercesc_3_1@@SAXXZ 000000001200ebf4 f   XMLChar.obj
 0001:0000dc18       ?isAllSpaces@XMLChar1_1@xercesc_3_1@@SA_NQEB_W_K@Z 000000001200ec18 f   XMLChar.obj
 0001:0000dc4c       ?containsWhiteSpace@XMLChar1_1@xercesc_3_1@@SA_NQEB_W_K@Z 000000001200ec4c f   XMLChar.obj
 0001:0000dc80       ?isValidNCName@XMLChar1_1@xercesc_3_1@@SA_NQEB_W_K@Z 000000001200ec80 f   XMLChar.obj
 0001:0000dd50       ?isValidNmtoken@XMLChar1_1@xercesc_3_1@@SA_NQEB_W_K@Z 000000001200ed50 f   XMLChar.obj
 0001:0000ddc4       ?isValidName@XMLChar1_1@xercesc_3_1@@SA_NQEB_W_K@Z 000000001200edc4 f   XMLChar.obj
 0001:0000dea0       ?isValidName@XMLChar1_1@xercesc_3_1@@SA_NQEB_W@Z 000000001200eea0 f   XMLChar.obj
 0001:0000df5c       ?isValidQName@XMLChar1_1@xercesc_3_1@@SA_NQEB_W_K@Z 000000001200ef5c f   XMLChar.obj
 0001:0000dfc0       ??0XMLChTranscoder@xercesc_3_1@@QEAA@QEB_W_KQEAVMemoryManager@1@@Z 000000001200efc0 f   XMLChTranscoder.obj
 0001:0000dfe4       ?transcodeFrom@XMLChTranscoder@xercesc_3_1@@UEAA_KQEBE_KQEA_W1AEA_KQEAE@Z 000000001200efe4 f   XMLChTranscoder.obj
 0001:0000e038       ?transcodeTo@XMLChTranscoder@xercesc_3_1@@UEAA_KQEB_W_KQEAE1AEA_KW4UnRepOpts@XMLTranscoder@2@@Z 000000001200f038 f   XMLChTranscoder.obj
 0001:0000e07c       ??0SchemaDateTimeException@xercesc_3_1@@QEAA@QEBD_KW4Codes@XMLExcepts@1@PEAVMemoryManager@1@@Z 000000001200f07c f i XMLDateTime.obj
 0001:0000e0c8       ??0SchemaDateTimeException@xercesc_3_1@@QEAA@AEBV01@@Z 000000001200f0c8 f i XMLDateTime.obj
 0001:0000e0ec       ??0SchemaDateTimeException@xercesc_3_1@@QEAA@QEBD_KW4Codes@XMLExcepts@1@QEB_W333PEAVMemoryManager@1@@Z 000000001200f0ec f i XMLDateTime.obj
 0001:0000e160       ??0SchemaDateTimeException@xercesc_3_1@@QEAA@QEBD_KW4Codes@XMLExcepts@1@0000PEAVMemoryManager@1@@Z 000000001200f160 f i XMLDateTime.obj
 0001:0000e1d4       ??1SchemaDateTimeException@xercesc_3_1@@UEAA@XZ 000000001200f1d4 f i XMLDateTime.obj
 0001:0000e1e4       ?duplicate@SchemaDateTimeException@xercesc_3_1@@UEBAPEAVXMLException@2@XZ 000000001200f1e4 f i XMLDateTime.obj
 0001:0000e248       ?getType@SchemaDateTimeException@xercesc_3_1@@UEBAPEB_WXZ 000000001200f248 f i XMLDateTime.obj
 0001:0000e250       ??_ESchemaDateTimeException@xercesc_3_1@@UEAAPEAXI@Z 000000001200f250 f i XMLDateTime.obj
 0001:0000e2cc       ??_FXMLDateTime@xercesc_3_1@@QEAAXXZ 000000001200f2cc f i XMLDateTime.obj
 0001:0000e2d8       ??_EXMLDateTime@xercesc_3_1@@UEAAPEAXI@Z 000000001200f2d8 f i XMLDateTime.obj
 0001:0000e34c       ?setBuffer@XMLDateTime@xercesc_3_1@@QEAAXQEB_W@Z 000000001200f34c f i XMLDateTime.obj
 0001:0000e450       ?reset@XMLDateTime@xercesc_3_1@@AEAAXXZ 000000001200f450 f i XMLDateTime.obj
 0001:0000e484       ?copy@XMLDateTime@xercesc_3_1@@AEAAXAEBV12@@Z 000000001200f484 f i XMLDateTime.obj
 0001:0000e530       ?initParser@XMLDateTime@xercesc_3_1@@AEAA_NXZ 000000001200f530 f i XMLDateTime.obj
 0001:0000e54c       ?isNormalized@XMLDateTime@xercesc_3_1@@AEBA_NXZ 000000001200f54c f i XMLDateTime.obj
 0001:0000e554       ?getRetVal@XMLDateTime@xercesc_3_1@@CAHHH@Z 000000001200f554 f i XMLDateTime.obj
 0001:0000e5fc       ?compare@XMLDateTime@xercesc_3_1@@SAHQEBV12@0_N@Z 000000001200f5fc f   XMLDateTime.obj
 0001:0000e81c       ?addDuration@XMLDateTime@xercesc_3_1@@CAXPEAV12@QEBV12@H@Z 000000001200f81c f   XMLDateTime.obj
 0001:0000e9f8       ?compareResult@XMLDateTime@xercesc_3_1@@CAHHH_N@Z 000000001200f9f8 f   XMLDateTime.obj
 0001:0000ea20       ?compare@XMLDateTime@xercesc_3_1@@SAHQEBV12@0@Z 000000001200fa20 f   XMLDateTime.obj
 0001:0000eac8       ?compareResult@XMLDateTime@xercesc_3_1@@CAHQEBV12@0_NH@Z 000000001200fac8 f   XMLDateTime.obj
 0001:0000eb70       ?compareOrder@XMLDateTime@xercesc_3_1@@SAHQEBV12@0@Z 000000001200fb70 f   XMLDateTime.obj
 0001:0000ec74       ??1XMLDateTime@xercesc_3_1@@UEAA@XZ 000000001200fc74 f   XMLDateTime.obj
 0001:0000ecb8       ??0XMLDateTime@xercesc_3_1@@QEAA@QEAVMemoryManager@1@@Z 000000001200fcb8 f   XMLDateTime.obj
 0001:0000ed08       ??0XMLDateTime@xercesc_3_1@@QEAA@QEB_WQEAVMemoryManager@1@@Z 000000001200fd08 f   XMLDateTime.obj
 0001:0000ed54       ??0XMLDateTime@xercesc_3_1@@QEAA@AEBV01@@Z 000000001200fd54 f   XMLDateTime.obj
 0001:0000ed98       ??4XMLDateTime@xercesc_3_1@@QEAAAEAV01@AEBV01@@Z 000000001200fd98 f   XMLDateTime.obj
 0001:0000edb4       ?getFormattedString@XMLDateTime@xercesc_3_1@@UEBAPEB_WXZ 000000001200fdb4 f   XMLDateTime.obj
 0001:0000edbc       ?parseDateTime@XMLDateTime@xercesc_3_1@@QEAAXXZ 000000001200fdbc f   XMLDateTime.obj
 0001:0000ef04       ?parseDate@XMLDateTime@xercesc_3_1@@QEAAXXZ 000000001200ff04 f   XMLDateTime.obj
 0001:0000efd0       ?parseTime@XMLDateTime@xercesc_3_1@@QEAAXXZ 000000001200ffd0 f   XMLDateTime.obj
 0001:0000f0ac       ?parseDay@XMLDateTime@xercesc_3_1@@QEAAXXZ 00000000120100ac f   XMLDateTime.obj
 0001:0000f2a0       ?parseMonth@XMLDateTime@xercesc_3_1@@QEAAXXZ 00000000120102a0 f   XMLDateTime.obj
 0001:0000f4b8       ?parseYear@XMLDateTime@xercesc_3_1@@QEAAXXZ 00000000120104b8 f   XMLDateTime.obj
 0001:0000f5c4       ?parseMonthDay@XMLDateTime@xercesc_3_1@@QEAAXXZ 00000000120105c4 f   XMLDateTime.obj
 0001:0000f7c8       ?parseYearMonth@XMLDateTime@xercesc_3_1@@QEAAXXZ 00000000120107c8 f   XMLDateTime.obj
 0001:0000f898       ?parseDuration@XMLDateTime@xercesc_3_1@@QEAAXXZ 0000000012010898 f   XMLDateTime.obj
 0001:0000ff04       ?getDate@XMLDateTime@xercesc_3_1@@AEAAXXZ 0000000012010f04 f   XMLDateTime.obj
 0001:00010028       ?getTime@XMLDateTime@xercesc_3_1@@AEAAXXZ 0000000012011028 f   XMLDateTime.obj
 0001:000102d0       ?getYearMonth@XMLDateTime@xercesc_3_1@@AEAAXXZ 00000000120112d0 f   XMLDateTime.obj
 0001:00010490       ?parseTimeZone@XMLDateTime@xercesc_3_1@@AEAAXXZ 0000000012011490 f   XMLDateTime.obj
 0001:00010540       ?getTimeZone@XMLDateTime@xercesc_3_1@@AEAAX_K@Z 0000000012011540 f   XMLDateTime.obj
 0001:00010678       ?normalize@XMLDateTime@xercesc_3_1@@AEAAXXZ 0000000012011678 f   XMLDateTime.obj
 0001:000107f0       ?validateDateTime@XMLDateTime@xercesc_3_1@@AEBAXXZ 00000000120117f0 f   XMLDateTime.obj
 0001:00010c08       ?indexOf@XMLDateTime@xercesc_3_1@@AEBAH_K0_W@Z 0000000012011c08 f   XMLDateTime.obj
 0001:00010c30       ?findUTCSign@XMLDateTime@xercesc_3_1@@AEAAH_K@Z 0000000012011c30 f   XMLDateTime.obj
 0001:00010c80       ?parseInt@XMLDateTime@xercesc_3_1@@AEBAH_K0@Z 0000000012011c80 f   XMLDateTime.obj
 0001:00010d1c       ?parseMiliSecond@XMLDateTime@xercesc_3_1@@AEBAN_K0@Z 0000000012011d1c f   XMLDateTime.obj
 0001:00010de8       ?parseIntYear@XMLDateTime@xercesc_3_1@@AEBAH_K@Z 0000000012011de8 f   XMLDateTime.obj
 0001:00010ef8       ?getDateTimeCanonicalRepresentation@XMLDateTime@xercesc_3_1@@QEBAPEA_WQEAVMemoryManager@2@@Z 0000000012011ef8 f   XMLDateTime.obj
 0001:000110ec       ?getDateCanonicalRepresentation@XMLDateTime@xercesc_3_1@@QEBAPEA_WQEAVMemoryManager@2@@Z 00000000120120ec f   XMLDateTime.obj
 0001:0001143c       ?getTimeCanonicalRepresentation@XMLDateTime@xercesc_3_1@@QEBAPEA_WQEAVMemoryManager@2@@Z 000000001201243c f   XMLDateTime.obj
 0001:00011570       ?fillString@XMLDateTime@xercesc_3_1@@AEBAXAEAPEA_WH_K@Z 0000000012012570 f   XMLDateTime.obj
 0001:00011624       ?fillYearString@XMLDateTime@xercesc_3_1@@AEBAHAEAPEA_WH@Z 0000000012012624 f   XMLDateTime.obj
 0001:00011708       ?searchMiliSeconds@XMLDateTime@xercesc_3_1@@AEBAXAEAPEA_W0@Z 0000000012012708 f   XMLDateTime.obj
 0001:00011770       ?createObject@XMLDateTime@xercesc_3_1@@SAPEAVXSerializable@2@PEAVMemoryManager@2@@Z 0000000012012770 f   XMLDateTime.obj
 0001:000117a0       ?getProtoType@XMLDateTime@xercesc_3_1@@UEBAPEAVXProtoType@2@XZ 00000000120127a0 f   XMLDateTime.obj
 0001:000117a8       ?serialize@XMLDateTime@xercesc_3_1@@UEAAXAEAVXSerializeEngine@2@@Z 00000000120127a8 f   XMLDateTime.obj
 0001:000118ac       ??_FXMLDouble@xercesc_3_1@@QEAAXXZ 00000000120128ac f i XMLDouble.obj
 0001:000118e0       ??_EXMLDouble@xercesc_3_1@@UEAAPEAXI@Z 00000000120128e0 f i XMLDouble.obj
 0001:0001195c       ?compareValues@XMLDouble@xercesc_3_1@@SAHQEBV12@0@Z 000000001201295c f i XMLDouble.obj
 0001:0001195c       ?compareValues@XMLFloat@xercesc_3_1@@SAHQEBV12@0@Z 000000001201295c f i XMLFloat.obj
 0001:00011968       ??0XMLDouble@xercesc_3_1@@QEAA@QEB_WQEAVMemoryManager@1@@Z 0000000012012968 f   XMLDouble.obj
 0001:000119b8       ??1XMLDouble@xercesc_3_1@@UEAA@XZ 00000000120129b8 f   XMLDouble.obj
 0001:000119c8       ?checkBoundary@XMLDouble@xercesc_3_1@@MEAAXQEAD@Z 00000000120129c8 f   XMLDouble.obj
 0001:000119d0       ?createObject@XMLDouble@xercesc_3_1@@SAPEAVXSerializable@2@PEAVMemoryManager@2@@Z 00000000120129d0 f   XMLDouble.obj
 0001:00011a24       ?getProtoType@XMLDouble@xercesc_3_1@@UEBAPEAVXProtoType@2@XZ 0000000012012a24 f   XMLDouble.obj
 0001:00011a2c       ??0XMLDouble@xercesc_3_1@@QEAA@QEAVMemoryManager@1@@Z 0000000012012a2c f   XMLDouble.obj
 0001:00011a5c       ?serialize@XMLFloat@xercesc_3_1@@UEAAXAEAVXSerializeEngine@2@@Z 0000000012012a5c f   XMLFloat.obj
 0001:00011a5c       ?serialize@XMLDouble@xercesc_3_1@@UEAAXAEAVXSerializeEngine@2@@Z 0000000012012a5c f   XMLDouble.obj
 0001:00011a64       ?xlatThisOne@XMLEBCDICTranscoder@xercesc_3_1@@SA_WE@Z 0000000012012a64 f   XMLEBCDICTranscoder.obj
 0001:00011a74       ??0XMLEBCDICTranscoder@xercesc_3_1@@QEAA@QEB_W_KQEAVMemoryManager@1@@Z 0000000012012a74 f   XMLEBCDICTranscoder.obj
 0001:00011ab8       ??_EXMLException@xercesc_3_1@@UEAAPEAXI@Z 0000000012012ab8 f i XMLException.obj
 0001:00011b2c       ?initializeXMLException@XMLInitializer@xercesc_3_1@@CAXXZ 0000000012012b2c f   XMLException.obj
 0001:00011b6c       ?terminateXMLException@XMLInitializer@xercesc_3_1@@CAXXZ 0000000012012b6c f   XMLException.obj
 0001:00011b94       ??1XMLException@xercesc_3_1@@UEAA@XZ 0000000012012b94 f   XMLException.obj
 0001:00011bcc       ?setPosition@XMLException@xercesc_3_1@@QEAAXQEBD_K@Z 0000000012012bcc f   XMLException.obj
 0001:00011c0c       ??0XMLException@xercesc_3_1@@QEAA@XZ 0000000012012c0c f   XMLException.obj
 0001:00011c4c       ??0XMLException@xercesc_3_1@@QEAA@QEBD_KQEAVMemoryManager@1@@Z 0000000012012c4c f   XMLException.obj
 0001:00011cb8       ??0XMLException@xercesc_3_1@@QEAA@AEBV01@@Z 0000000012012cb8 f   XMLException.obj
 0001:00011d74       ??4XMLException@xercesc_3_1@@QEAAAEAV01@AEBV01@@Z 0000000012012d74 f   XMLException.obj
 0001:00011e4c       ?loadExceptText@XMLException@xercesc_3_1@@IEAAXW4Codes@XMLExcepts@2@@Z 0000000012012e4c f   XMLException.obj
 0001:00011f2c       ?loadExceptText@XMLException@xercesc_3_1@@IEAAXW4Codes@XMLExcepts@2@QEB_W111@Z 0000000012012f2c f   XMLException.obj
 0001:0001202c       ?loadExceptText@XMLException@xercesc_3_1@@IEAAXW4Codes@XMLExcepts@2@QEBD111@Z 000000001201302c f   XMLException.obj
 0001:0001212c       ??_FXMLFloat@xercesc_3_1@@QEAAXXZ 000000001201312c f i XMLFloat.obj
 0001:00012160       ??_EXMLFloat@xercesc_3_1@@UEAAPEAXI@Z 0000000012013160 f i XMLFloat.obj
 0001:000121dc       ??0XMLFloat@xercesc_3_1@@QEAA@QEB_WQEAVMemoryManager@1@@Z 00000000120131dc f   XMLFloat.obj
 0001:0001222c       ??1XMLFloat@xercesc_3_1@@UEAA@XZ 000000001201322c f   XMLFloat.obj
 0001:0001223c       ?checkBoundary@XMLFloat@xercesc_3_1@@MEAAXQEAD@Z 000000001201323c f   XMLFloat.obj
 0001:00012374       ?createObject@XMLFloat@xercesc_3_1@@SAPEAVXSerializable@2@PEAVMemoryManager@2@@Z 0000000012013374 f   XMLFloat.obj
 0001:000123c8       ?getProtoType@XMLFloat@xercesc_3_1@@UEBAPEAVXProtoType@2@XZ 00000000120133c8 f   XMLFloat.obj
 0001:000123d0       ??0XMLFloat@xercesc_3_1@@QEAA@QEAVMemoryManager@1@@Z 00000000120133d0 f   XMLFloat.obj
 0001:00012400       ?xlatThisOne@XMLIBM1047Transcoder@xercesc_3_1@@SA_WE@Z 0000000012013400 f   XMLIBM1047Transcoder.obj
 0001:00012410       ??0XMLIBM1047Transcoder@xercesc_3_1@@QEAA@QEB_W_KQEAVMemoryManager@1@@Z 0000000012013410 f   XMLIBM1047Transcoder.obj
 0001:00012454       ?xlatThisOne@XMLIBM1140Transcoder@xercesc_3_1@@SA_WE@Z 0000000012013454 f   XMLIBM1140Transcoder.obj
 0001:00012464       ??0XMLIBM1140Transcoder@xercesc_3_1@@QEAA@QEB_W_KQEAVMemoryManager@1@@Z 0000000012013464 f   XMLIBM1140Transcoder.obj
 0001:000124a8       ?initializeStaticData@XMLInitializer@xercesc_3_1@@KAXXZ 00000000120134a8 f   XMLInitializer.obj
 0001:00012518       ?terminateStaticData@XMLInitializer@xercesc_3_1@@KAXXZ 0000000012013518 f   XMLInitializer.obj
 0001:00012578       ?setLocale@XMLMsgLoader@xercesc_3_1@@SAXQEBD@Z 0000000012013578 f   XMLMsgLoader.obj
 0001:000125e8       ?getLocale@XMLMsgLoader@xercesc_3_1@@SAPEBDXZ 00000000120135e8 f   XMLMsgLoader.obj
 0001:000125f0       ?setNLSHome@XMLMsgLoader@xercesc_3_1@@SAXQEBD@Z 00000000120135f0 f   XMLMsgLoader.obj
 0001:0001263c       ?getNLSHome@XMLMsgLoader@xercesc_3_1@@SAPEBDXZ 000000001201363c f   XMLMsgLoader.obj
 0001:00012644       ??_EGrammar@xercesc_3_1@@UEAAPEAXI@Z 0000000012013644 f i XMLDTDDescription.obj
 0001:00012644       ??_EXMLNumber@xercesc_3_1@@UEAAPEAXI@Z 0000000012013644 f i XMLNumber.obj
 0001:000126b8       ??0XMLNumber@xercesc_3_1@@IEAA@AEBV01@@Z 00000000120136b8 f   XMLNumber.obj
 0001:000126b8       ??0XMLNumber@xercesc_3_1@@IEAA@XZ 00000000120136b8 f   XMLNumber.obj
 0001:000126c8       ?getProtoType@XMLNumber@xercesc_3_1@@UEBAPEAVXProtoType@2@XZ 00000000120136c8 f   XMLNumber.obj
 0001:000126d0       ?loadNumber@XMLNumber@xercesc_3_1@@SAPEAV12@W4NumberType@12@AEAVXSerializeEngine@2@@Z 00000000120136d0 f   XMLNumber.obj
 0001:00012710       ??_FXMLUri@xercesc_3_1@@QEAAXXZ 0000000012013710 f i XMLString.obj
 0001:0001274c       ?getUriText@XMLUri@xercesc_3_1@@QEBAPEB_WXZ 000000001201374c f i XMLString.obj
 0001:0001276c       ?isReservedOrUnreservedCharacter@XMLUri@xercesc_3_1@@CA_N_W@Z 000000001201376c f i XMLString.obj
 0001:000127a0       ?isReservedCharacter@XMLUri@xercesc_3_1@@CA_N_W@Z 00000000120137a0 f i XMLString.obj
 0001:000127c0       ?isPathCharacter@XMLUri@xercesc_3_1@@CA_N_W@Z 00000000120137c0 f i XMLString.obj
 0001:000127e0       ?isUnreservedCharacter@XMLUri@xercesc_3_1@@CA_N_W@Z 00000000120137e0 f i XMLString.obj
 0001:00012814       ?sizeToText@XMLString@xercesc_3_1@@SAX_KQEAD0IQEAVMemoryManager@2@@Z 0000000012013814 f   XMLString.obj
 0001:00012a04       ?binToText@XMLString@xercesc_3_1@@SAXKQEAD_KIQEAVMemoryManager@2@@Z 0000000012013a04 f   XMLString.obj
 0001:00012bf0       ?binToText@XMLString@xercesc_3_1@@SAXIQEAD_KIQEAVMemoryManager@2@@Z 0000000012013bf0 f   XMLString.obj
 0001:00012c08       ?binToText@XMLString@xercesc_3_1@@SAXHQEAD_KIQEAVMemoryManager@2@@Z 0000000012013c08 f   XMLString.obj
 0001:00012c08       ?binToText@XMLString@xercesc_3_1@@SAXJQEAD_KIQEAVMemoryManager@2@@Z 0000000012013c08 f   XMLString.obj
 0001:00012c34       ?catString@XMLString@xercesc_3_1@@SAXQEADQEBD@Z 0000000012013c34 f   XMLString.obj
 0001:00012c3c       ?compareIString@XMLString@xercesc_3_1@@SAHQEBD0@Z 0000000012013c3c f   XMLString.obj
 0001:00012c44       ?compareNString@XMLString@xercesc_3_1@@SAHQEBD0_K@Z 0000000012013c44 f   XMLString.obj
 0001:00012c54       ?compareNIString@XMLString@xercesc_3_1@@SAHQEBD0_K@Z 0000000012013c54 f   XMLString.obj
 0001:00012c64       ?compareString@XMLString@xercesc_3_1@@SAHQEBD0@Z 0000000012013c64 f   XMLString.obj
 0001:00012c6c       ?copyString@XMLString@xercesc_3_1@@SAXQEADQEBD@Z 0000000012013c6c f   XMLString.obj
 0001:00012c74       ?cut@XMLString@xercesc_3_1@@SAXQEA_W_K@Z 0000000012013c74 f   XMLString.obj
 0001:00012c94       ?hash@XMLString@xercesc_3_1@@SA_KQEBD_K@Z 0000000012013c94 f   XMLString.obj
 0001:00012cd4       ?indexOf@XMLString@xercesc_3_1@@SAHQEBDD@Z 0000000012013cd4 f   XMLString.obj
 0001:00012d10       ?indexOf@XMLString@xercesc_3_1@@SAHQEBDD_KQEAVMemoryManager@2@@Z 0000000012013d10 f   XMLString.obj
 0001:00012dc0       ?lastIndexOf@XMLString@xercesc_3_1@@SAHQEBDD@Z 0000000012013dc0 f   XMLString.obj
 0001:00012df8       ?lastIndexOf@XMLString@xercesc_3_1@@SAHQEBDD_KQEAVMemoryManager@2@@Z 0000000012013df8 f   XMLString.obj
 0001:00012eac       ?replaceTokens@XMLString@xercesc_3_1@@SA_KQEA_W_KQEB_W222QEAVMemoryManager@2@@Z 0000000012013eac f   XMLString.obj
 0001:00013028       ?replicate@XMLString@xercesc_3_1@@SAPEADQEBDQEAVMemoryManager@2@@Z 0000000012014028 f   XMLString.obj
 0001:00013084       ?startsWith@XMLString@xercesc_3_1@@SA_NQEBD0@Z 0000000012014084 f   XMLString.obj
 0001:000130bc       ?startsWithI@XMLString@xercesc_3_1@@SA_NQEBD0@Z 00000000120140bc f   XMLString.obj
 0001:000130f4       ?stringLen@XMLString@xercesc_3_1@@SA_KQEBD@Z 00000000120140f4 f   XMLString.obj
 0001:000130fc       ?transcode@XMLString@xercesc_3_1@@SAPEADQEB_WQEAVMemoryManager@2@@Z 00000000120140fc f   XMLString.obj
 0001:00013114       ?transcode@XMLString@xercesc_3_1@@SA_NQEB_WQEAD_KQEAVMemoryManager@2@@Z 0000000012014114 f   XMLString.obj
 0001:0001313c       ?transcode@XMLString@xercesc_3_1@@SAPEA_WQEBDQEAVMemoryManager@2@@Z 000000001201413c f   XMLString.obj
 0001:00013154       ?transcode@XMLString@xercesc_3_1@@SA_NQEBDQEA_W_KQEAVMemoryManager@2@@Z 0000000012014154 f   XMLString.obj
 0001:0001317c       ?trim@XMLString@xercesc_3_1@@SAXQEAD@Z 000000001201417c f   XMLString.obj
 0001:00013218       ?subString@XMLString@xercesc_3_1@@SAXQEADQEBD_K2QEAVMemoryManager@2@@Z 0000000012014218 f   XMLString.obj
 0001:00013338       ?isValidNOTATION@XMLString@xercesc_3_1@@SA_NQEB_WQEAVMemoryManager@2@@Z 0000000012014338 f   XMLString.obj
 0001:00013490       ?isValidEncName@XMLString@xercesc_3_1@@SA_NQEB_W@Z 0000000012014490 f   XMLString.obj
 0001:000134fc       ?isAlpha@XMLString@xercesc_3_1@@SA_N_W@Z 00000000120144fc f   XMLString.obj
 0001:00013518       ?isDigit@XMLString@xercesc_3_1@@SA_N_W@Z 0000000012014518 f   XMLString.obj
 0001:00013524       ?isAlphaNum@XMLString@xercesc_3_1@@SA_N_W@Z 0000000012014524 f   XMLString.obj
 0001:0001354c       ?isHex@XMLString@xercesc_3_1@@SA_N_W@Z 000000001201454c f   XMLString.obj
 0001:00013578       ?sizeToText@XMLString@xercesc_3_1@@SAX_KQEA_W0IQEAVMemoryManager@2@@Z 0000000012014578 f   XMLString.obj
 0001:0001378c       ?binToText@XMLString@xercesc_3_1@@SAXKQEA_W_KIQEAVMemoryManager@2@@Z 000000001201478c f   XMLString.obj
 0001:0001399c       ?binToText@XMLString@xercesc_3_1@@SAXIQEA_W_KIQEAVMemoryManager@2@@Z 000000001201499c f   XMLString.obj
 0001:000139b4       ?binToText@XMLString@xercesc_3_1@@SAXJQEA_W_KIQEAVMemoryManager@2@@Z 00000000120149b4 f   XMLString.obj
 0001:000139e8       ?binToText@XMLString@xercesc_3_1@@SAXHQEA_W_KIQEAVMemoryManager@2@@Z 00000000120149e8 f   XMLString.obj
 0001:00013a00       ?catString@XMLString@xercesc_3_1@@SAXQEA_WQEB_W@Z 0000000012014a00 f   XMLString.obj
 0001:00013a44       ?compareIString@XMLString@xercesc_3_1@@SAHQEB_W0@Z 0000000012014a44 f   XMLString.obj
 0001:00013a5c       ?compareIStringASCII@XMLString@xercesc_3_1@@SAHQEB_W0@Z 0000000012014a5c f   XMLString.obj
 0001:00013af4       ?compareNString@XMLString@xercesc_3_1@@SAHQEB_W0_K@Z 0000000012014af4 f   XMLString.obj
 0001:00013b34       ?compareNIString@XMLString@xercesc_3_1@@SAHQEB_W0_K@Z 0000000012014b34 f   XMLString.obj
 0001:00013b50       ?compareString@XMLString@xercesc_3_1@@SAHQEB_W0@Z 0000000012014b50 f   XMLString.obj
 0001:00013bc8       ?regionMatches@XMLString@xercesc_3_1@@SA_NQEB_WH0H_K@Z 0000000012014bc8 f   XMLString.obj
 0001:00013c64       ?regionIMatches@XMLString@xercesc_3_1@@SA_NQEB_WH0H_K@Z 0000000012014c64 f   XMLString.obj
 0001:00013d08       ?copyString@XMLString@xercesc_3_1@@SAXQEA_WQEB_W@Z 0000000012014d08 f   XMLString.obj
 0001:00013d30       ?copyNString@XMLString@xercesc_3_1@@SA_NQEA_WQEB_W_K@Z 0000000012014d30 f   XMLString.obj
 0001:00013da0       ?findAny@XMLString@xercesc_3_1@@SAPEA_WQEA_WQEB_W@Z 0000000012014da0 f   XMLString.obj
 0001:00013da0       ?findAny@XMLString@xercesc_3_1@@SAPEB_WQEB_W0@Z 0000000012014da0 f   XMLString.obj
 0001:00013dd8       ?patternMatch@XMLString@xercesc_3_1@@SAHQEB_W0@Z 0000000012014dd8 f   XMLString.obj
 0001:00013e58       ?indexOf@XMLString@xercesc_3_1@@SAHQEB_W_W@Z 0000000012014e58 f   XMLString.obj
 0001:00013e8c       ?indexOf@XMLString@xercesc_3_1@@SAHQEB_W_W_KQEAVMemoryManager@2@@Z 0000000012014e8c f   XMLString.obj
 0001:00013f38       ?lastIndexOf@XMLString@xercesc_3_1@@SAH_WQEB_W_K@Z 0000000012014f38 f   XMLString.obj
 0001:00013f60       ?lastIndexOf@XMLString@xercesc_3_1@@SAHQEB_W_W_KQEAVMemoryManager@2@@Z 0000000012014f60 f   XMLString.obj
 0001:00014004       ?makeUName@XMLString@xercesc_3_1@@SAPEA_WQEB_W0@Z 0000000012015004 f   XMLString.obj
 0001:00014138       ?textToBin@XMLString@xercesc_3_1@@SA_NQEB_WAEAIQEAVMemoryManager@2@@Z 0000000012015138 f   XMLString.obj
 0001:000142a4       ?parseInt@XMLString@xercesc_3_1@@SAHQEB_WQEAVMemoryManager@2@@Z 00000000120152a4 f   XMLString.obj
 0001:000144f8       ?trim@XMLString@xercesc_3_1@@SAXQEA_W@Z 00000000120154f8 f   XMLString.obj
 0001:000145a0       ?upperCase@XMLString@xercesc_3_1@@SAXQEA_W@Z 00000000120155a0 f   XMLString.obj
 0001:000145b4       ?upperCaseASCII@XMLString@xercesc_3_1@@SAXQEA_W@Z 00000000120155b4 f   XMLString.obj
 0001:000145e0       ?lowerCase@XMLString@xercesc_3_1@@SAXQEA_W@Z 00000000120155e0 f   XMLString.obj
 0001:000145f4       ?lowerCaseASCII@XMLString@xercesc_3_1@@SAXQEA_W@Z 00000000120155f4 f   XMLString.obj
 0001:00014620       ?subString@XMLString@xercesc_3_1@@SAXQEA_WQEB_W_K2QEAVMemoryManager@2@@Z 0000000012015620 f   XMLString.obj
 0001:00014668       ?subString@XMLString@xercesc_3_1@@SAXQEA_WQEB_W_K22QEAVMemoryManager@2@@Z 0000000012015668 f   XMLString.obj
 0001:0001476c       ?tokenizeString@XMLString@xercesc_3_1@@SAPEAV?$BaseRefVectorOf@_W@2@QEB_WQEAVMemoryManager@2@@Z 000000001201576c f   XMLString.obj
 0001:00014904       ?isInList@XMLString@xercesc_3_1@@SA_NQEB_W0@Z 0000000012015904 f   XMLString.obj
 0001:0001499c       ?isWSReplaced@XMLString@xercesc_3_1@@SA_NQEB_W@Z 000000001201599c f   XMLString.obj
 0001:000149c8       ?replaceWS@XMLString@xercesc_3_1@@SAXPEA_WQEAVMemoryManager@2@@Z 00000000120159c8 f   XMLString.obj
 0001:000149f8       ?isWSCollapsed@XMLString@xercesc_3_1@@SA_NQEB_W@Z 00000000120159f8 f   XMLString.obj
 0001:00014a6c       ?collapseWS@XMLString@xercesc_3_1@@SAXPEA_WQEAVMemoryManager@2@@Z 0000000012015a6c f   XMLString.obj
 0001:00014b5c       ?removeWS@XMLString@xercesc_3_1@@SAXPEA_WQEAVMemoryManager@2@@Z 0000000012015b5c f   XMLString.obj
 0001:00014ba0       ?removeChar@XMLString@xercesc_3_1@@SAXQEB_WAEB_WAEAVXMLBuffer@2@@Z 0000000012015ba0 f   XMLString.obj
 0001:00014c24       ?fixURI@XMLString@xercesc_3_1@@SAXQEB_WQEA_W@Z 0000000012015c24 f   XMLString.obj
 0001:00014da0       ?release@XMLString@xercesc_3_1@@SAXPEAPEA_WQEAVMemoryManager@2@@Z 0000000012015da0 f   XMLString.obj
 0001:00014da0       ?release@XMLString@xercesc_3_1@@SAXPEAPEADQEAVMemoryManager@2@@Z 0000000012015da0 f   XMLString.obj
 0001:00014dc4       ?initString@XMLString@xercesc_3_1@@CAXQEAVXMLLCPTranscoder@2@QEAVMemoryManager@2@@Z 0000000012015dc4 f   XMLString.obj
 0001:00014dd4       ?termString@XMLString@xercesc_3_1@@CAXXZ 0000000012015dd4 f   XMLString.obj
 0001:00014e04       ??1?$BaseRefVectorOf@_W@xercesc_3_1@@UEAA@XZ 0000000012015e04 f i XMLString.obj
 0001:00014e10       ?setElementAt@?$BaseRefVectorOf@_W@xercesc_3_1@@UEAAXQEA_W_K@Z 0000000012015e10 f i XMLString.obj
 0001:00014eb0       ?removeAllElements@?$BaseRefVectorOf@_W@xercesc_3_1@@UEAAXXZ 0000000012015eb0 f i XMLString.obj
 0001:00014efc       ?removeElementAt@?$BaseRefVectorOf@_W@xercesc_3_1@@UEAAX_K@Z 0000000012015efc f i XMLString.obj
 0001:00014fcc       ?removeLastElement@?$BaseRefVectorOf@_W@xercesc_3_1@@UEAAXXZ 0000000012015fcc f i XMLString.obj
 0001:00014ffc       ?cleanup@?$BaseRefVectorOf@_W@xercesc_3_1@@UEAAXXZ 0000000012015ffc f i XMLString.obj
 0001:00015048       ?setElementAt@?$RefArrayVectorOf@_W@xercesc_3_1@@UEAAXQEA_W_K@Z 0000000012016048 f i XMLString.obj
 0001:000150ec       ?removeAllElements@?$RefArrayVectorOf@_W@xercesc_3_1@@UEAAXXZ 00000000120160ec f i XMLString.obj
 0001:0001513c       ?removeElementAt@?$RefArrayVectorOf@_W@xercesc_3_1@@UEAAX_K@Z 000000001201613c f i XMLString.obj
 0001:00015210       ?removeLastElement@?$RefArrayVectorOf@_W@xercesc_3_1@@UEAAXXZ 0000000012016210 f i XMLString.obj
 0001:00015248       ?cleanup@?$RefArrayVectorOf@_W@xercesc_3_1@@UEAAXXZ 0000000012016248 f i XMLString.obj
 0001:00015298       ??_G?$BaseRefVectorOf@_W@xercesc_3_1@@UEAAPEAXI@Z 0000000012016298 f i XMLString.obj
 0001:00015298       ??_E?$BaseRefVectorOf@_W@xercesc_3_1@@UEAAPEAXI@Z 0000000012016298 f i  CIL library: CIL module
 0001:000152c8       ??_E?$RefArrayVectorOf@_W@xercesc_3_1@@UEAAPEAXI@Z 00000000120162c8 f i  CIL library: CIL module
 0001:000152c8       ??_G?$RefArrayVectorOf@_W@xercesc_3_1@@UEAAPEAXI@Z 00000000120162c8 f i XMLString.obj
 0001:0001535c       ??0?$BaseRefVectorOf@_W@xercesc_3_1@@QEAA@_K_NQEAVMemoryManager@1@@Z 000000001201635c f i XMLString.obj
 0001:000153c4       ?isDelimeter@XMLStringTokenizer@xercesc_3_1@@AEAA_N_W@Z 00000000120163c4 f i XMLStringTokenizer.obj
 0001:000153dc       ?countTokens@XMLStringTokenizer@xercesc_3_1@@QEAAIXZ 00000000120163dc f i XMLStringTokenizer.obj
 0001:00015454       ??0XMLStringTokenizer@xercesc_3_1@@QEAA@QEB_WQEAVMemoryManager@1@@Z 0000000012016454 f   XMLStringTokenizer.obj
 0001:00015574       ??0XMLStringTokenizer@xercesc_3_1@@QEAA@QEB_W0QEAVMemoryManager@1@@Z 0000000012016574 f   XMLStringTokenizer.obj
 0001:000156dc       ??1XMLStringTokenizer@xercesc_3_1@@QEAA@XZ 00000000120166dc f   XMLStringTokenizer.obj
 0001:000156e4       ?cleanUp@XMLStringTokenizer@xercesc_3_1@@AEAAXXZ 00000000120166e4 f   XMLStringTokenizer.obj
 0001:00015730       ?nextToken@XMLStringTokenizer@xercesc_3_1@@QEAAPEA_WXZ 0000000012016730 f   XMLStringTokenizer.obj
 0001:000157f4       ?hasMoreTokens@XMLStringTokenizer@xercesc_3_1@@QEAA_NXZ 00000000120167f4 f   XMLStringTokenizer.obj
 0001:00015808       ??0XMLUCS4Transcoder@xercesc_3_1@@QEAA@QEB_W_K_NQEAVMemoryManager@1@@Z 0000000012016808 f   XMLUCS4Transcoder.obj
 0001:00015840       ?transcodeFrom@XMLUCS4Transcoder@xercesc_3_1@@UEAA_KQEBE_KQEA_W1AEA_KQEAE@Z 0000000012016840 f   XMLUCS4Transcoder.obj
 0001:00015954       ?transcodeTo@XMLUCS4Transcoder@xercesc_3_1@@UEAA_KQEB_W_KQEAE1AEA_KW4UnRepOpts@XMLTranscoder@2@@Z 0000000012016954 f   XMLUCS4Transcoder.obj
 0001:00015ac4       ??_EXMLUri@xercesc_3_1@@UEAAPEAXI@Z 0000000012016ac4 f i XMLUri.obj
 0001:00015b38       ??0XMLUri@xercesc_3_1@@QEAA@QEB_WQEAVMemoryManager@1@@Z 0000000012016b38 f   XMLUri.obj
 0001:00015bbc       ??0XMLUri@xercesc_3_1@@QEAA@QEBV01@QEB_WQEAVMemoryManager@1@@Z 0000000012016bbc f   XMLUri.obj
 0001:00015c38       ??0XMLUri@xercesc_3_1@@QEAA@AEBV01@@Z 0000000012016c38 f   XMLUri.obj
 0001:00015cb8       ??4XMLUri@xercesc_3_1@@QEAAAEAV01@AEBV01@@Z 0000000012016cb8 f   XMLUri.obj
 0001:00015d14       ??1XMLUri@xercesc_3_1@@UEAA@XZ 0000000012016d14 f   XMLUri.obj
 0001:00015d4c       ?cleanUp@XMLUri@xercesc_3_1@@AEAAXXZ 0000000012016d4c f   XMLUri.obj
 0001:00015e20       ?initialize@XMLUri@xercesc_3_1@@AEAAXAEBV12@@Z 0000000012016e20 f   XMLUri.obj
 0001:00016054       ?initialize@XMLUri@xercesc_3_1@@AEAAXQEBV12@QEB_W@Z 0000000012017054 f   XMLUri.obj
 0001:00016db4       ?initializeAuthority@XMLUri@xercesc_3_1@@AEAAXQEB_W@Z 0000000012017db4 f   XMLUri.obj
 0001:000170c0       ?initializeScheme@XMLUri@xercesc_3_1@@AEAAXQEB_W@Z 00000000120180c0 f   XMLUri.obj
 0001:000171d4       ?initializePath@XMLUri@xercesc_3_1@@AEAAXQEB_W@Z 00000000120181d4 f   XMLUri.obj
 0001:00017b64       ?setScheme@XMLUri@xercesc_3_1@@QEAAXQEB_W@Z 0000000012018b64 f   XMLUri.obj
 0001:00017ccc       ?setUserInfo@XMLUri@xercesc_3_1@@QEAAXQEB_W@Z 0000000012018ccc f   XMLUri.obj
 0001:00017dd4       ?setHost@XMLUri@xercesc_3_1@@QEAAXQEB_W@Z 0000000012018dd4 f   XMLUri.obj
 0001:00017f10       ?setPort@XMLUri@xercesc_3_1@@QEAAXH@Z 0000000012018f10 f   XMLUri.obj
 0001:0001807c       ?setRegBasedAuthority@XMLUri@xercesc_3_1@@QEAAXQEB_W@Z 000000001201907c f   XMLUri.obj
 0001:000181a4       ?setPath@XMLUri@xercesc_3_1@@QEAAXQEB_W@Z 00000000120191a4 f   XMLUri.obj
 0001:000181f0       ?setFragment@XMLUri@xercesc_3_1@@QEAAXQEB_W@Z 00000000120191f0 f   XMLUri.obj
 0001:000183cc       ?setQueryString@XMLUri@xercesc_3_1@@QEAAXQEB_W@Z 00000000120193cc f   XMLUri.obj
 0001:000185a8       ?isConformantSchemeName@XMLUri@xercesc_3_1@@CA_NQEB_W@Z 00000000120195a8 f   XMLUri.obj
 0001:00018608       ?isConformantUserInfo@XMLUri@xercesc_3_1@@CAXQEB_WQEAVMemoryManager@2@@Z 0000000012019608 f   XMLUri.obj
 0001:000187d0       ?isValidServerBasedAuthority@XMLUri@xercesc_3_1@@CA_NQEB_W_KH01@Z 00000000120197d0 f   XMLUri.obj
 0001:000188a8       ?isValidServerBasedAuthority@XMLUri@xercesc_3_1@@CA_NQEB_WH0QEAVMemoryManager@2@@Z 00000000120198a8 f   XMLUri.obj
 0001:00018980       ?isValidRegistryBasedAuthority@XMLUri@xercesc_3_1@@CA_NQEB_W_K@Z 0000000012019980 f   XMLUri.obj
 0001:00018a34       ?isValidRegistryBasedAuthority@XMLUri@xercesc_3_1@@CA_NQEB_W@Z 0000000012019a34 f   XMLUri.obj
 0001:00018ae8       ?isURIString@XMLUri@xercesc_3_1@@SA_NQEB_W@Z 0000000012019ae8 f   XMLUri.obj
 0001:00018b7c       ?isWellFormedAddress@XMLUri@xercesc_3_1@@CA_NQEB_WQEAVMemoryManager@2@@Z 0000000012019b7c f   XMLUri.obj
 0001:00018da0       ?isWellFormedIPv4Address@XMLUri@xercesc_3_1@@CA_NQEB_W_K@Z 0000000012019da0 f   XMLUri.obj
 0001:00018e2c       ?isWellFormedIPv6Reference@XMLUri@xercesc_3_1@@CA_NQEB_W_K@Z 0000000012019e2c f   XMLUri.obj
 0001:00018f30       ?scanHexSequence@XMLUri@xercesc_3_1@@CAHQEB_W_K1AEAH@Z 0000000012019f30 f   XMLUri.obj
 0001:00018fdc       ?isGenericURI@XMLUri@xercesc_3_1@@AEAA_NXZ 0000000012019fdc f   XMLUri.obj
 0001:00018fe8       ?buildFullText@XMLUri@xercesc_3_1@@AEAAXXZ 0000000012019fe8 f   XMLUri.obj
 0001:000194a8       ?isValidURI@XMLUri@xercesc_3_1@@SA_NQEBV12@QEB_W_N@Z 000000001201a4a8 f   XMLUri.obj
 0001:000196a0       ?isValidURI@XMLUri@xercesc_3_1@@SA_N_NQEB_W0@Z 000000001201a6a0 f   XMLUri.obj
 0001:00019898       ?isWellFormedAddress@XMLUri@xercesc_3_1@@CA_NQEB_W_K@Z 000000001201a898 f   XMLUri.obj
 0001:000199fc       ?processScheme@XMLUri@xercesc_3_1@@CA_NQEB_WAEA_K@Z 000000001201a9fc f   XMLUri.obj
 0001:00019a34       ?isConformantSchemeName@XMLUri@xercesc_3_1@@CA_NQEB_W_K@Z 000000001201aa34 f   XMLUri.obj
 0001:00019a9c       ?processAuthority@XMLUri@xercesc_3_1@@CA_NQEB_W_K@Z 000000001201aa9c f   XMLUri.obj
 0001:00019c34       ?processPath@XMLUri@xercesc_3_1@@CA_NQEB_W_K_N2@Z 000000001201ac34 f   XMLUri.obj
 0001:00019de4       ?normalizeURI@XMLUri@xercesc_3_1@@SAXQEB_WAEAVXMLBuffer@2@@Z 000000001201ade4 f   XMLUri.obj
 0001:00019e90       ?createObject@XMLUri@xercesc_3_1@@SAPEAVXSerializable@2@PEAVMemoryManager@2@@Z 000000001201ae90 f   XMLUri.obj
 0001:00019eec       ?getProtoType@XMLUri@xercesc_3_1@@UEBAPEAVXProtoType@2@XZ 000000001201aeec f   XMLUri.obj
 0001:00019ef4       ?serialize@XMLUri@xercesc_3_1@@UEAAXAEAVXSerializeEngine@2@@Z 000000001201aef4 f   XMLUri.obj
 0001:0001a09c       ??0XMLUri@xercesc_3_1@@QEAA@QEAVMemoryManager@1@@Z 000000001201b09c f   XMLUri.obj
 0001:0001a0d4       ??_EXMLURL@xercesc_3_1@@UEAAPEAXI@Z 000000001201b0d4 f i XMLURL.obj
 0001:0001a150       ?lookupByName@XMLURL@xercesc_3_1@@SA?AW4Protocols@12@QEB_W@Z 000000001201b150 f   XMLURL.obj
 0001:0001a19c       ??0XMLURL@xercesc_3_1@@QEAA@QEAVMemoryManager@1@@Z 000000001201b19c f   XMLURL.obj
 0001:0001a1dc       ??0XMLURL@xercesc_3_1@@QEAA@QEB_W0QEAVMemoryManager@1@@Z 000000001201b1dc f   XMLURL.obj
 0001:0001a270       ??0XMLURL@xercesc_3_1@@QEAA@QEB_WQEBDQEAVMemoryManager@1@@Z 000000001201b270 f   XMLURL.obj
 0001:0001a348       ??0XMLURL@xercesc_3_1@@QEAA@AEBV01@QEB_W@Z 000000001201b348 f   XMLURL.obj
 0001:0001a3e0       ??0XMLURL@xercesc_3_1@@QEAA@AEBV01@QEBD@Z 000000001201b3e0 f   XMLURL.obj
 0001:0001a4b8       ??0XMLURL@xercesc_3_1@@QEAA@QEB_WQEAVMemoryManager@1@@Z 000000001201b4b8 f   XMLURL.obj
 0001:0001a54c       ??0XMLURL@xercesc_3_1@@QEAA@QEBDQEAVMemoryManager@1@@Z 000000001201b54c f   XMLURL.obj
 0001:0001a60c       ??0XMLURL@xercesc_3_1@@QEAA@AEBV01@@Z 000000001201b60c f   XMLURL.obj
 0001:0001a8c0       ??1XMLURL@xercesc_3_1@@UEAA@XZ 000000001201b8c0 f   XMLURL.obj
 0001:0001a8d0       ??4XMLURL@xercesc_3_1@@QEAAAEAV01@AEBV01@@Z 000000001201b8d0 f   XMLURL.obj
 0001:0001ab20       ??8XMLURL@xercesc_3_1@@QEBA_NAEBV01@@Z 000000001201bb20 f   XMLURL.obj
 0001:0001abb8       ?getPortNum@XMLURL@xercesc_3_1@@QEBAIXZ 000000001201bbb8 f   XMLURL.obj
 0001:0001abdc       ?getProtocolName@XMLURL@xercesc_3_1@@QEBAPEB_WXZ 000000001201bbdc f   XMLURL.obj
 0001:0001ac54       ?setURL@XMLURL@xercesc_3_1@@QEAAXQEB_W@Z 000000001201bc54 f   XMLURL.obj
 0001:0001ac80       ?setURL@XMLURL@xercesc_3_1@@QEAAXQEB_W0@Z 000000001201bc80 f   XMLURL.obj
 0001:0001ad88       ?setURL@XMLURL@xercesc_3_1@@QEAA_NQEB_W0AEAV12@@Z 000000001201bd88 f   XMLURL.obj
 0001:0001ae94       ?setURL@XMLURL@xercesc_3_1@@QEAAXAEBV12@QEB_W@Z 000000001201be94 f   XMLURL.obj
 0001:0001aef0       ?isRelative@XMLURL@xercesc_3_1@@QEBA_NXZ 000000001201bef0 f   XMLURL.obj
 0001:0001af0c       ?hasInvalidChar@XMLURL@xercesc_3_1@@QEBA_NXZ 000000001201bf0c f   XMLURL.obj
 0001:0001af10       ?makeNewStream@XMLURL@xercesc_3_1@@QEBAPEAVBinInputStream@2@XZ 000000001201bf10 f   XMLURL.obj
 0001:0001b30c       ?makeRelativeTo@XMLURL@xercesc_3_1@@QEAAXQEB_W@Z 000000001201c30c f   XMLURL.obj
 0001:0001b378       ?makeRelativeTo@XMLURL@xercesc_3_1@@QEAAXAEBV12@@Z 000000001201c378 f   XMLURL.obj
 0001:0001b3a0       ?buildFullText@XMLURL@xercesc_3_1@@AEAAXXZ 000000001201c3a0 f   XMLURL.obj
 0001:0001b850       ?cleanUp@XMLURL@xercesc_3_1@@AEAAXXZ 000000001201c850 f   XMLURL.obj
 0001:0001b8f0       ?conglomerateWithBase@XMLURL@xercesc_3_1@@AEAA_NAEBV12@_N@Z 000000001201c8f0 f   XMLURL.obj
 0001:0001bd5c       ?parse@XMLURL@xercesc_3_1@@AEAAXQEB_W@Z 000000001201cd5c f   XMLURL.obj
 0001:0001c528       ?parse@XMLURL@xercesc_3_1@@SA_NQEB_WAEAV12@@Z 000000001201d528 f   XMLURL.obj
 0001:0001ca9c       ??_EXMLUCS4Transcoder@xercesc_3_1@@UEAAPEAXI@Z 000000001201da9c f i XMLUCS4Transcoder.obj
 0001:0001ca9c       ??_EXMLUTF16Transcoder@xercesc_3_1@@UEAAPEAXI@Z 000000001201da9c f i XMLUTF16Transcoder.obj
 0001:0001cb20       ??0XMLUTF16Transcoder@xercesc_3_1@@QEAA@QEB_W_K_NQEAVMemoryManager@1@@Z 000000001201db20 f   XMLUTF16Transcoder.obj
 0001:0001cb58       ?transcodeFrom@XMLUTF16Transcoder@xercesc_3_1@@UEAA_KQEBE_KQEA_W1AEA_KQEAE@Z 000000001201db58 f   XMLUTF16Transcoder.obj
 0001:0001cbcc       ?transcodeTo@XMLUTF16Transcoder@xercesc_3_1@@UEAA_KQEB_W_KQEAE1AEA_KW4UnRepOpts@XMLTranscoder@2@@Z 000000001201dbcc f   XMLUTF16Transcoder.obj
 0001:0001cc2c       ??0XMLUTF8Transcoder@xercesc_3_1@@QEAA@QEB_W_KQEAVMemoryManager@1@@Z 000000001201dc2c f   XMLUTF8Transcoder.obj
 0001:0001cc50       ?transcodeFrom@XMLUTF8Transcoder@xercesc_3_1@@UEAA_KQEBE_KQEA_W1AEA_KQEAE@Z 000000001201dc50 f   XMLUTF8Transcoder.obj
 0001:0001d244       ?transcodeTo@XMLUTF8Transcoder@xercesc_3_1@@UEAA_KQEB_W_KQEAE1AEA_KW4UnRepOpts@XMLTranscoder@2@@Z 000000001201e244 f   XMLUTF8Transcoder.obj
 0001:0001d4c4       ?canTranscodeTo@XMLUTF8Transcoder@xercesc_3_1@@UEAA_NI@Z 000000001201e4c4 f   XMLUTF8Transcoder.obj
 0001:0001d4d0       ??_EWin32Transcoder@xercesc_3_1@@UEAAPEAXI@Z 000000001201e4d0 f i Win32TransService.obj
 0001:0001d4d0       ??_EXML256TableTranscoder@xercesc_3_1@@UEAAPEAXI@Z 000000001201e4d0 f i XML256TableTranscoder.obj
 0001:0001d4d0       ??_EXMLIBM1047Transcoder@xercesc_3_1@@UEAAPEAXI@Z 000000001201e4d0 f i XMLIBM1047Transcoder.obj
 0001:0001d4d0       ??_EXMLIBM1140Transcoder@xercesc_3_1@@UEAAPEAXI@Z 000000001201e4d0 f i XMLIBM1140Transcoder.obj
 0001:0001d4d0       ??_EXMLEBCDICTranscoder@xercesc_3_1@@UEAAPEAXI@Z 000000001201e4d0 f i XMLEBCDICTranscoder.obj
 0001:0001d4d0       ??_EXMLWin1252Transcoder@xercesc_3_1@@UEAAPEAXI@Z 000000001201e4d0 f i XMLWin1252Transcoder.obj
 0001:0001d554       ??0XMLWin1252Transcoder@xercesc_3_1@@QEAA@QEB_W_KQEAVMemoryManager@1@@Z 000000001201e554 f   XMLWin1252Transcoder.obj
 0001:0001d598       ??_EWin32MsgLoader@xercesc_3_1@@UEAAPEAXI@Z 000000001201e598 f i Win32MsgLoader.obj
 0001:0001d60c       DllMain                    000000001201e60c f   Win32MsgLoader.obj
 0001:0001d620       ??0Win32MsgLoader@xercesc_3_1@@QEAA@QEB_W@Z 000000001201e620 f   Win32MsgLoader.obj
 0001:0001d81c       ??1Win32MsgLoader@xercesc_3_1@@UEAA@XZ 000000001201e81c f   Win32MsgLoader.obj
 0001:0001d860       ?loadMsg@Win32MsgLoader@xercesc_3_1@@UEAA_NIQEA_W_K@Z 000000001201e860 f   Win32MsgLoader.obj
 0001:0001d938       ?loadMsg@Win32MsgLoader@xercesc_3_1@@UEAA_NIQEA_W_KQEB_W222QEAVMemoryManager@2@@Z 000000001201e938 f   Win32MsgLoader.obj
 0001:0001d99c       ?loadMsg@Win32MsgLoader@xercesc_3_1@@UEAA_NIQEA_W_KQEBD222QEAVMemoryManager@2@@Z 000000001201e99c f   Win32MsgLoader.obj
 0001:0001daf4       ??_EWin32TransService@xercesc_3_1@@UEAAPEAXI@Z 000000001201eaf4 f i Win32TransService.obj
 0001:0001db68       ??_EWin32LCPTranscoder@xercesc_3_1@@UEAAPEAXI@Z 000000001201eb68 f i Win32TransService.obj
 0001:0001dbdc       ??0Win32TransService@xercesc_3_1@@QEAA@PEAVMemoryManager@1@@Z 000000001201ebdc f   Win32TransService.obj
 0001:0001e250       ??1Win32TransService@xercesc_3_1@@UEAA@XZ 000000001201f250 f   Win32TransService.obj
 0001:0001e34c       ?compareIString@Win32TransService@xercesc_3_1@@UEAAHQEB_W0@Z 000000001201f34c f   Win32TransService.obj
 0001:0001e35c       ?compareNIString@Win32TransService@xercesc_3_1@@UEAAHQEB_W0_K@Z 000000001201f35c f   Win32TransService.obj
 0001:0001e370       ?getId@Win32TransService@xercesc_3_1@@UEBAPEB_WXZ 000000001201f370 f   Win32TransService.obj
 0001:0001e378       ?makeNewLCPTranscoder@Win32TransService@xercesc_3_1@@UEAAPEAVXMLLCPTranscoder@2@PEAVMemoryManager@2@@Z 000000001201f378 f   Win32TransService.obj
 0001:0001e3ac       ?upperCase@Win32TransService@xercesc_3_1@@UEAAXQEA_W@Z 000000001201f3ac f   Win32TransService.obj
 0001:0001e3b8       ?lowerCase@Win32TransService@xercesc_3_1@@UEAAXQEA_W@Z 000000001201f3b8 f   Win32TransService.obj
 0001:0001e3c4       ?makeNewXMLTranscoder@Win32TransService@xercesc_3_1@@MEAAPEAVXMLTranscoder@2@QEB_WAEAW4Codes@XMLTransService@2@_KQEAVMemoryManager@2@@Z 000000001201f3c4 f   Win32TransService.obj
 0001:0001e4bc       ??0Win32Transcoder@xercesc_3_1@@QEAA@QEB_WI_KQEAVMemoryManager@1@@Z 000000001201f4bc f   Win32TransService.obj
 0001:0001e580       ??1XMLChTranscoder@xercesc_3_1@@UEAA@XZ 000000001201f580 f   XMLChTranscoder.obj
 0001:0001e580       ??1XML256TableTranscoder@xercesc_3_1@@UEAA@XZ 000000001201f580 f   XML256TableTranscoder.obj
 0001:0001e580       ??1XML88591Transcoder@xercesc_3_1@@UEAA@XZ 000000001201f580 f   XML88591Transcoder.obj
 0001:0001e580       ??1XMLIBM1140Transcoder@xercesc_3_1@@UEAA@XZ 000000001201f580 f   XMLIBM1140Transcoder.obj
 0001:0001e580       ??1XMLTranscoder@xercesc_3_1@@UEAA@XZ 000000001201f580 f   TransService.obj
 0001:0001e580       ??1XMLEBCDICTranscoder@xercesc_3_1@@UEAA@XZ 000000001201f580 f   XMLEBCDICTranscoder.obj
 0001:0001e580       ??1Win32Transcoder@xercesc_3_1@@UEAA@XZ 000000001201f580 f   Win32TransService.obj
 0001:0001e580       ??1XMLWin1252Transcoder@xercesc_3_1@@UEAA@XZ 000000001201f580 f   XMLWin1252Transcoder.obj
 0001:0001e580       ??1XMLASCIITranscoder@xercesc_3_1@@UEAA@XZ 000000001201f580 f   XMLASCIITranscoder.obj
 0001:0001e580       ??1XMLUTF16Transcoder@xercesc_3_1@@UEAA@XZ 000000001201f580 f   XMLUTF16Transcoder.obj
 0001:0001e580       ??1XMLIBM1047Transcoder@xercesc_3_1@@UEAA@XZ 000000001201f580 f   XMLIBM1047Transcoder.obj
 0001:0001e580       ??1XMLUTF8Transcoder@xercesc_3_1@@UEAA@XZ 000000001201f580 f   XMLUTF8Transcoder.obj
 0001:0001e580       ??1XMLUCS4Transcoder@xercesc_3_1@@UEAA@XZ 000000001201f580 f   XMLUCS4Transcoder.obj
 0001:0001e59c       ?transcodeFrom@Win32Transcoder@xercesc_3_1@@UEAA_KQEBE_KQEA_W1AEA_KQEAE@Z 000000001201f59c f   Win32TransService.obj
 0001:0001e7a4       ?transcodeTo@Win32Transcoder@xercesc_3_1@@UEAA_KQEB_W_KQEAE1AEA_KW4UnRepOpts@XMLTranscoder@2@@Z 000000001201f7a4 f   Win32TransService.obj
 0001:0001e928       ?canTranscodeTo@Win32Transcoder@xercesc_3_1@@UEAA_NI@Z 000000001201f928 f   Win32TransService.obj
 0001:0001e9e8       ??0Win32LCPTranscoder@xercesc_3_1@@QEAA@XZ 000000001201f9e8 f   Win32TransService.obj
 0001:0001e9f8       ?calcRequiredSize@Win32LCPTranscoder@xercesc_3_1@@UEAA_KQEBDQEAVMemoryManager@2@@Z 000000001201f9f8 f   Win32TransService.obj
 0001:0001ea2c       ?calcRequiredSize@Win32LCPTranscoder@xercesc_3_1@@UEAA_KQEB_WQEAVMemoryManager@2@@Z 000000001201fa2c f   Win32TransService.obj
 0001:0001ea64       ?transcode@Win32LCPTranscoder@xercesc_3_1@@UEAAPEADQEB_WQEAVMemoryManager@2@@Z 000000001201fa64 f   Win32TransService.obj
 0001:0001eb04       ?transcode@Win32LCPTranscoder@xercesc_3_1@@UEAAPEA_WQEBDQEAVMemoryManager@2@@Z 000000001201fb04 f   Win32TransService.obj
 0001:0001ebac       ?transcode@Win32LCPTranscoder@xercesc_3_1@@UEAA_NQEBDQEA_W_KQEAVMemoryManager@2@@Z 000000001201fbac f   Win32TransService.obj
 0001:0001ebf4       ?transcode@Win32LCPTranscoder@xercesc_3_1@@UEAA_NQEB_WQEAD_KQEAVMemoryManager@2@@Z 000000001201fbf4 f   Win32TransService.obj
 0001:0001ec60       ?put@?$RefHashTableOf@VCPMapEntry@xercesc_3_1@@UStringHasher@2@@xercesc_3_1@@QEAAXPEAXQEAVCPMapEntry@2@@Z 000000001201fc60 f i Win32TransService.obj
 0001:0001ed34       ??0CharBuffer@xercesc_3_1@@QEAA@_KPEAVMemoryManager@1@@Z 000000001201fd34 f i BinHTTPInputStreamCommon.obj
 0001:0001ed64       ??1CharBuffer@xercesc_3_1@@QEAA@XZ 000000001201fd64 f i BinHTTPInputStreamCommon.obj
 0001:0001ed74       ?getRawBuffer@CharBuffer@xercesc_3_1@@QEBAPEBDXZ 000000001201fd74 f i BinHTTPInputStreamCommon.obj
 0001:0001ed74       ?getRawBuffer@CharBuffer@xercesc_3_1@@QEAAPEADXZ 000000001201fd74 f i BinHTTPInputStreamCommon.obj
 0001:0001ed84       ?append@CharBuffer@xercesc_3_1@@QEAAXPEBD@Z 000000001201fd84 f i BinHTTPInputStreamCommon.obj
 0001:0001edf0       ?append@CharBuffer@xercesc_3_1@@QEAAXPEBD_K@Z 000000001201fdf0 f i BinHTTPInputStreamCommon.obj
 0001:0001ee50       ?appendDecimalNumber@CharBuffer@xercesc_3_1@@QEAAXI@Z 000000001201fe50 f i BinHTTPInputStreamCommon.obj
 0001:0001eec0       ?set@CharBuffer@xercesc_3_1@@QEAAXPEBD@Z 000000001201fec0 f i BinHTTPInputStreamCommon.obj
 0001:0001eecc       ?ensureCapacity@CharBuffer@xercesc_3_1@@AEAAX_K@Z 000000001201fecc f i BinHTTPInputStreamCommon.obj
 0001:0001ef38       ??_FCharBuffer@xercesc_3_1@@QEAAXXZ 000000001201ff38 f i BinHTTPInputStreamCommon.obj
 0001:0001ef70       ??_EBinHTTPInputStreamCommon@xercesc_3_1@@MEAAPEAXI@Z 000000001201ff70 f i BinHTTPInputStreamCommon.obj
 0001:0001efe4       ??0BinHTTPInputStreamCommon@xercesc_3_1@@IEAA@PEAVMemoryManager@1@@Z 000000001201ffe4 f   BinHTTPInputStreamCommon.obj
 0001:0001f04c       ??1BinHTTPInputStreamCommon@xercesc_3_1@@MEAA@XZ 000000001202004c f   BinHTTPInputStreamCommon.obj
 0001:0001f0a0       ?createHTTPRequest@BinHTTPInputStreamCommon@xercesc_3_1@@AEAAXAEBVXMLURL@2@PEBVXMLNetHTTPInfo@2@AEAVCharBuffer@2@@Z 00000000120200a0 f   BinHTTPInputStreamCommon.obj
 0001:0001f4bc       ?findHeader@BinHTTPInputStreamCommon@xercesc_3_1@@IEAAPEA_WPEBD@Z 00000000120204bc f   BinHTTPInputStreamCommon.obj
 0001:0001f578       ?sendRequest@BinHTTPInputStreamCommon@xercesc_3_1@@IEAAHAEBVXMLURL@2@PEBVXMLNetHTTPInfo@2@@Z 0000000012020578 f   BinHTTPInputStreamCommon.obj
 0001:0001f990       ?getContentType@BinHTTPInputStreamCommon@xercesc_3_1@@UEBAPEB_WXZ 0000000012020990 f   BinHTTPInputStreamCommon.obj
 0001:0001f9bc       ?readBytes@BinHTTPInputStreamCommon@xercesc_3_1@@UEAA_KQEAE_K@Z 00000000120209bc f   BinHTTPInputStreamCommon.obj
 0001:0001fa7c       ??_EBinHTTPURLInputStream@xercesc_3_1@@UEAAPEAXI@Z 0000000012020a7c f i BinHTTPURLInputStream.obj
 0001:0001faf0       ??1SocketJanitor@xercesc_3_1@@QEAA@XZ 0000000012020af0 f i BinHTTPURLInputStream.obj
 0001:0001fb28       ?Initialize@BinHTTPURLInputStream@xercesc_3_1@@CAXQEAVMemoryManager@2@@Z 0000000012020b28 f   BinHTTPURLInputStream.obj
 0001:0001fe54       ?Cleanup@BinHTTPURLInputStream@xercesc_3_1@@SAXXZ 0000000012020e54 f   BinHTTPURLInputStream.obj
 0001:0001ff10       ??0BinHTTPURLInputStream@xercesc_3_1@@QEAA@AEBVXMLURL@1@PEBVXMLNetHTTPInfo@1@@Z 0000000012020f10 f   BinHTTPURLInputStream.obj
 0001:000205dc       ??1BinHTTPURLInputStream@xercesc_3_1@@UEAA@XZ 00000000120215dc f   BinHTTPURLInputStream.obj
 0001:00020624       ?send@BinHTTPURLInputStream@xercesc_3_1@@UEAA_NPEBD_K@Z 0000000012021624 f   BinHTTPURLInputStream.obj
 0001:0002068c       ?receive@BinHTTPURLInputStream@xercesc_3_1@@UEAAHPEAD_K@Z 000000001202168c f   BinHTTPURLInputStream.obj
 0001:000206ac       ??_EWinSockNetAccessor@xercesc_3_1@@UEAAPEAXI@Z 00000000120216ac f i WinSockNetAccessor.obj
 0001:00020720       ??0WinSockNetAccessor@xercesc_3_1@@QEAA@XZ 0000000012021720 f   WinSockNetAccessor.obj
 0001:00020730       ??1WinSockNetAccessor@xercesc_3_1@@UEAA@XZ 0000000012021730 f   WinSockNetAccessor.obj
 0001:00020768       ?makeNew@WinSockNetAccessor@xercesc_3_1@@UEAAPEAVBinInputStream@2@AEBVXMLURL@2@PEBVXMLNetHTTPInfo@2@@Z 0000000012021768 f   WinSockNetAccessor.obj
 0001:00020824       ??_ERangeFactory@xercesc_3_1@@UEAAPEAXI@Z 0000000012021824 f i RangeFactory.obj
 0001:00020824       ??_EBlockRangeFactory@xercesc_3_1@@UEAAPEAXI@Z 0000000012021824 f i BlockRangeFactory.obj
 0001:00020824       ??_EUnicodeRangeFactory@xercesc_3_1@@UEAAPEAXI@Z 0000000012021824 f i UnicodeRangeFactory.obj
 0001:00020824       ??_EXMLRangeFactory@xercesc_3_1@@UEAAPEAXI@Z 0000000012021824 f i XMLRangeFactory.obj
 0001:00020824       ??_EASCIIRangeFactory@xercesc_3_1@@UEAAPEAXI@Z 0000000012021824 f i ASCIIRangeFactory.obj
 0001:00020898       ?getFinalDefault@SchemaInfo@xercesc_3_1@@QEBAHXZ 0000000012021898 f i IGXMLScanner.obj
 0001:00020898       ?getResultType@DOMXPathResultImpl@xercesc_3_1@@UEBA?AW4ResultType@DOMXPathResult@2@XZ 0000000012021898 f i DOMXPathResultImpl.obj
 0001:00020898       ?getTokenType@Token@xercesc_3_1@@QEBA?AW4tokType@12@XZ 0000000012021898 f i ASCIIRangeFactory.obj
 0001:00020898       ?getSign@XMLBigDecimal@xercesc_3_1@@UEBAHXZ 0000000012021898 f i XMLAbstractDoubleFloat.obj
 0001:00020898       ?getEmptyNamespaceId@NamespaceScope@xercesc_3_1@@QEBAIXZ 0000000012021898 f i XMLGrammarPoolImpl.obj
 0001:00020898       ?getDefaultType@XMLAttDef@xercesc_3_1@@QEBA?AW4DefAttTypes@12@XZ 0000000012021898 f i XMLAttDef.obj
 0001:00020898       ?getWhatToShow@DOMTreeWalkerImpl@xercesc_3_1@@UEAAKXZ 0000000012021898 f i DOMTreeWalkerImpl.obj
 0001:00020898       ?getPort@XMLUri@xercesc_3_1@@QEBAHXZ 0000000012021898 f i XMLString.obj
 0001:00020898       ?getCode@XMLException@xercesc_3_1@@QEBA?AW4Codes@XMLExcepts@2@XZ 0000000012021898 f i Base64.obj
 0001:00020898       ?getType@XSObject@xercesc_3_1@@QEBA?AW4COMPONENT_TYPE@XSConstants@2@XZ 0000000012021898 f i XMLAttr.obj
 0001:0002089c       ?isSet@Token@xercesc_3_1@@AEAA_NHI@Z 000000001202189c f i ASCIIRangeFactory.obj
 0001:000208a8       ?addChild@Token@xercesc_3_1@@UEAAXQEAV12@QEAVTokenFactory@2@@Z 00000000120218a8 f i ASCIIRangeFactory.obj
 0001:00020900       ?addRange@Token@xercesc_3_1@@UEAAXHH@Z 0000000012021900 f i ASCIIRangeFactory.obj
 0001:00020958       ?mergeRanges@Token@xercesc_3_1@@UEAAXQEBV12@@Z 0000000012021958 f i ASCIIRangeFactory.obj
 0001:000209b0       ?sortRanges@Token@xercesc_3_1@@UEAAXXZ 00000000120219b0 f i ASCIIRangeFactory.obj
 0001:00020a08       ?compactRanges@Token@xercesc_3_1@@UEAAXXZ 0000000012021a08 f i ASCIIRangeFactory.obj
 0001:00020a60       ?subtractRanges@Token@xercesc_3_1@@UEAAXQEAVRangeToken@2@@Z 0000000012021a60 f i ASCIIRangeFactory.obj
 0001:00020ab8       ?intersectRanges@Token@xercesc_3_1@@UEAAXQEAVRangeToken@2@@Z 0000000012021ab8 f i ASCIIRangeFactory.obj
 0001:00020b10       ??_FTokenFactory@xercesc_3_1@@QEAAXXZ 0000000012021b10 f i ASCIIRangeFactory.obj
 0001:00020b1c       ?getRange@TokenFactory@xercesc_3_1@@QEAAPEAVRangeToken@2@QEB_W_N@Z 0000000012021b1c f i ASCIIRangeFactory.obj
 0001:00020b28       ?createMap@RangeToken@xercesc_3_1@@QEAAXXZ 0000000012021b28 f i ASCIIRangeFactory.obj
 0001:00020b40       ?empty@RangeToken@xercesc_3_1@@QEBA_NXZ 0000000012021b40 f i ASCIIRangeFactory.obj
 0001:00020b4c       ?getRangeToken@RangeTokenElemMap@xercesc_3_1@@QEBAPEAVRangeToken@2@_N@Z 0000000012021b4c f i ASCIIRangeFactory.obj
 0001:00020b5c       ?setRangeToken@RangeTokenElemMap@xercesc_3_1@@QEAAXQEAVRangeToken@2@_N@Z 0000000012021b5c f i ASCIIRangeFactory.obj
 0001:00020b6c       ??0ASCIIRangeFactory@xercesc_3_1@@QEAA@XZ 0000000012021b6c f   ASCIIRangeFactory.obj
 0001:00020b80       ?buildRanges@ASCIIRangeFactory@xercesc_3_1@@MEAAXPEAVRangeTokenMap@2@@Z 0000000012021b80 f   ASCIIRangeFactory.obj
 0001:00020ee4       ?initializeKeywordMap@ASCIIRangeFactory@xercesc_3_1@@UEAAXPEAVRangeTokenMap@2@@Z 0000000012021ee4 f   ASCIIRangeFactory.obj
 0001:00020f74       ??0BlockRangeFactory@xercesc_3_1@@QEAA@XZ 0000000012021f74 f   BlockRangeFactory.obj
 0001:00020f88       ??1XMLRangeFactory@xercesc_3_1@@UEAA@XZ 0000000012021f88 f   XMLRangeFactory.obj
 0001:00020f88       ??1UnicodeRangeFactory@xercesc_3_1@@UEAA@XZ 0000000012021f88 f   UnicodeRangeFactory.obj
 0001:00020f88       ??1ASCIIRangeFactory@xercesc_3_1@@UEAA@XZ 0000000012021f88 f   ASCIIRangeFactory.obj
 0001:00020f88       ??1RangeFactory@xercesc_3_1@@UEAA@XZ 0000000012021f88 f   RangeFactory.obj
 0001:00020f88       ??1BlockRangeFactory@xercesc_3_1@@UEAA@XZ 0000000012021f88 f   BlockRangeFactory.obj
 0001:00020f94       ?buildRanges@BlockRangeFactory@xercesc_3_1@@MEAAXPEAVRangeTokenMap@2@@Z 0000000012021f94 f   BlockRangeFactory.obj
 0001:00021184       ?initializeKeywordMap@BlockRangeFactory@xercesc_3_1@@UEAAXPEAVRangeTokenMap@2@@Z 0000000012022184 f   BlockRangeFactory.obj
 0001:000211e4       ??0BMPattern@xercesc_3_1@@QEAA@QEB_W_NQEAVMemoryManager@1@@Z 00000000120221e4 f   BMPattern.obj
 0001:00021294       ??0BMPattern@xercesc_3_1@@QEAA@QEB_WH_NQEAVMemoryManager@1@@Z 0000000012022294 f   BMPattern.obj
 0001:00021344       ??1BMPattern@xercesc_3_1@@QEAA@XZ 0000000012022344 f   BMPattern.obj
 0001:0002134c       ?matches@BMPattern@xercesc_3_1@@QEBAHQEB_W_K1@Z 000000001202234c f   BMPattern.obj
 0001:000214c0       ?initialize@BMPattern@xercesc_3_1@@AEAAXXZ 00000000120224c0 f   BMPattern.obj
 0001:000216a0       ?cleanUp@BMPattern@xercesc_3_1@@AEAAXXZ 00000000120226a0 f   BMPattern.obj
 0001:000216dc       ??_ECharToken@xercesc_3_1@@UEAAPEAXI@Z 00000000120226dc f i CharToken.obj
 0001:00021750       ?match@CharToken@xercesc_3_1@@QEAA_NH@Z 0000000012022750 f i CharToken.obj
 0001:00021758       ??0CharToken@xercesc_3_1@@QEAA@W4tokType@Token@1@HQEAVMemoryManager@1@@Z 0000000012022758 f   CharToken.obj
 0001:00021774       ?getReferenceNo@StringToken@xercesc_3_1@@UEBAHXZ 0000000012022774 f i ParserForXMLSchema.obj
 0001:00021774       ?getMin@ClosureToken@xercesc_3_1@@UEBAHXZ 0000000012022774 f i ClosureToken.obj
 0001:00021774       ?getFixed@DatatypeValidator@xercesc_3_1@@IEBAHXZ 0000000012022774 f i XMLAttr.obj
 0001:00021774       ?getNoParen@ParenToken@xercesc_3_1@@UEBAHXZ 0000000012022774 f i ParenToken.obj
 0001:00021774       ?getChar@CharToken@xercesc_3_1@@UEBAHXZ 0000000012022774 f i CharToken.obj
 0001:00021774       ?getUnRepFlags@XMLFormatter@xercesc_3_1@@QEBA?AW4UnRepFlags@12@XZ 0000000012022774 f i LocalFileFormatTarget.obj
 0001:00021774       ?getWhatToShow@DOMNodeIteratorImpl@xercesc_3_1@@UEAAKXZ 0000000012022774 f i DOMNodeIteratorImpl.obj
 0001:00021774       ?getCreateReason@XMLElementDecl@xercesc_3_1@@QEBA?AW4CreateReasons@12@XZ 0000000012022774 f i XMLDTDDescription.obj
 0001:00021774       ?getSign@XMLAbstractDoubleFloat@xercesc_3_1@@UEBAHXZ 0000000012022774 f i XMLAbstractDoubleFloat.obj
 0001:00021774       ?getFinalSet@ComplexTypeInfo@xercesc_3_1@@QEBAHXZ 0000000012022774 f i XMLElementDecl.obj
 0001:00021778       ?setMax@ClosureToken@xercesc_3_1@@UEAAXH@Z 0000000012022778 f i ClosureToken.obj
 0001:00021778       ?setType@DatatypeValidator@xercesc_3_1@@IEAAXW4ValidatorType@12@@Z 0000000012022778 f i XMLAttr.obj
 0001:00021778       ?setScopeDefined@ComplexTypeInfo@xercesc_3_1@@QEAAXI@Z 0000000012022778 f i XMLElementDecl.obj
 0001:0002177c       ??0ClosureToken@xercesc_3_1@@QEAA@W4tokType@Token@1@QEAV31@QEAVMemoryManager@1@@Z 000000001202277c f   ClosureToken.obj
 0001:000217a0       ?getChild@ConcatToken@xercesc_3_1@@UEBAPEAVToken@2@_K@Z 00000000120227a0 f i ConcatToken.obj
 0001:000217b0       ??0ConcatToken@xercesc_3_1@@QEAA@QEAVToken@1@0QEAVMemoryManager@1@@Z 00000000120227b0 f   ConcatToken.obj
 0001:000217d4       ??_FMatch@xercesc_3_1@@QEAAXXZ 00000000120227d4 f i Match.obj
 0001:000217f8       ??_EMatch@xercesc_3_1@@UEAAPEAXI@Z 00000000120227f8 f i Match.obj
 0001:00021874       ?getNoGroups@Match@xercesc_3_1@@QEBAHXZ 0000000012022874 f i Match.obj
 0001:000218d8       ?getStartPos@Match@xercesc_3_1@@QEBAHH@Z 00000000120228d8 f i Match.obj
 0001:0002199c       ?getEndPos@Match@xercesc_3_1@@QEBAHH@Z 000000001202299c f i Match.obj
 0001:00021a60       ?setStartPos@Match@xercesc_3_1@@QEAAXHH@Z 0000000012022a60 f i Match.obj
 0001:00021b24       ?setEndPos@Match@xercesc_3_1@@QEAAXHH@Z 0000000012022b24 f i Match.obj
 0001:00021be8       ??0Match@xercesc_3_1@@QEAA@QEAVMemoryManager@1@@Z 0000000012022be8 f   Match.obj
 0001:00021c08       ??0Match@xercesc_3_1@@QEAA@AEBV01@@Z 0000000012022c08 f   Match.obj
 0001:00021c3c       ??4Match@xercesc_3_1@@QEAAAEAV01@AEBV01@@Z 0000000012022c3c f   Match.obj
 0001:00021c54       ??1Match@xercesc_3_1@@UEAA@XZ 0000000012022c54 f   Match.obj
 0001:00021c64       ?setNoGroups@Match@xercesc_3_1@@QEAAXH@Z 0000000012022c64 f   Match.obj
 0001:00021cf8       ?initialize@Match@xercesc_3_1@@AEAAXAEBV12@@Z 0000000012022cf8 f   Match.obj
 0001:00021d80       ?cleanUp@Match@xercesc_3_1@@AEAAXXZ 0000000012022d80 f   Match.obj
 0001:00021db8       ??_EOp@xercesc_3_1@@UEAAPEAXI@Z 0000000012022db8 f i Op.obj
 0001:00021e2c       ??_ECharOp@xercesc_3_1@@UEAAPEAXI@Z 0000000012022e2c f i Op.obj
 0001:00021e2c       ??_EChildOp@xercesc_3_1@@UEAAPEAXI@Z 0000000012022e2c f i Op.obj
 0001:00021e2c       ??_ERangeOp@xercesc_3_1@@UEAAPEAXI@Z 0000000012022e2c f i Op.obj
 0001:00021ea0       ??1UnionOp@xercesc_3_1@@UEAA@XZ 0000000012022ea0 f i Op.obj
 0001:00021ee4       ??_EUnionOp@xercesc_3_1@@UEAAPEAXI@Z 0000000012022ee4 f i Op.obj
 0001:00021f84       ??1RangeOp@xercesc_3_1@@UEAA@XZ 0000000012022f84 f i Op.obj
 0001:00021f84       ??1ChildOp@xercesc_3_1@@UEAA@XZ 0000000012022f84 f i Op.obj
 0001:00021f84       ??1ModifierOp@xercesc_3_1@@UEAA@XZ 0000000012022f84 f i Op.obj
 0001:00021f84       ??1Op@xercesc_3_1@@UEAA@XZ 0000000012022f84 f i Op.obj
 0001:00021f84       ??1CharOp@xercesc_3_1@@UEAA@XZ 0000000012022f84 f i Op.obj
 0001:00021f90       ??_EModifierOp@xercesc_3_1@@UEAAPEAXI@Z 0000000012022f90 f i Op.obj
 0001:00022004       ??1StringOp@xercesc_3_1@@UEAA@XZ 0000000012023004 f i Op.obj
 0001:00022044       ??_EStringOp@xercesc_3_1@@UEAAPEAXI@Z 0000000012023044 f i Op.obj
 0001:000220e0       ??0Op@xercesc_3_1@@IEAA@W4opType@01@QEAVMemoryManager@1@@Z 00000000120230e0 f   Op.obj
 0001:000220fc       ?getSize@Op@xercesc_3_1@@UEBA_KXZ 00000000120230fc f   Op.obj
 0001:00022154       ?getData@Op@xercesc_3_1@@UEBAHXZ 0000000012023154 f   Op.obj
 0001:000221ac       ?getData2@Op@xercesc_3_1@@UEBAHXZ 00000000120231ac f   Op.obj
 0001:00022204       ?elementAt@Op@xercesc_3_1@@UEBAPEBV12@_K@Z 0000000012023204 f   Op.obj
 0001:0002225c       ?getChild@Op@xercesc_3_1@@UEBAPEBV12@XZ 000000001202325c f   Op.obj
 0001:000222b4       ?getLiteral@Op@xercesc_3_1@@UEBAPEB_WXZ 00000000120232b4 f   Op.obj
 0001:0002230c       ?getToken@Op@xercesc_3_1@@UEBAPEBVToken@2@XZ 000000001202330c f   Op.obj
 0001:00022364       ??0CharOp@xercesc_3_1@@QEAA@W4opType@Op@1@HQEAVMemoryManager@1@@Z 0000000012023364 f   Op.obj
 0001:00022384       ??0UnionOp@xercesc_3_1@@QEAA@W4opType@Op@1@_KQEAVMemoryManager@1@@Z 0000000012023384 f   Op.obj
 0001:00022408       ?elementAt@UnionOp@xercesc_3_1@@UEBAPEBVOp@2@_K@Z 0000000012023408 f   Op.obj
 0001:00022478       ?addElement@UnionOp@xercesc_3_1@@QEAAXQEAVOp@2@@Z 0000000012023478 f   Op.obj
 0001:00022484       ??0ChildOp@xercesc_3_1@@QEAA@W4opType@Op@1@QEAVMemoryManager@1@@Z 0000000012023484 f   Op.obj
 0001:000224a4       ??0ModifierOp@xercesc_3_1@@QEAA@W4opType@Op@1@HHQEAVMemoryManager@1@@Z 00000000120234a4 f   Op.obj
 0001:000224d0       ?getProcessContents@XSWildcard@xercesc_3_1@@QEBA?AW4PROCESS_CONTENTS@12@XZ 00000000120234d0 f   XSComplexTypeDefinition.obj
 0001:000224d0       ?getData2@ModifierOp@xercesc_3_1@@UEBAHXZ 00000000120234d0 f   Op.obj
 0001:000224d0       ?getConstraintType@XSAttributeUse@xercesc_3_1@@QEBA?AW4VALUE_CONSTRAINT@XSConstants@2@XZ 00000000120234d0 f   XSAttributeGroupDefinition.obj
 0001:000224d0       ?getScope@XSElementDeclaration@xercesc_3_1@@QEBA?AW4SCOPE@XSConstants@2@XZ 00000000120234d0 f   PSVIElement.obj
 0001:000224d4       ??0RangeOp@xercesc_3_1@@QEAA@W4opType@Op@1@QEBVToken@1@QEAVMemoryManager@1@@Z 00000000120234d4 f   Op.obj
 0001:000224f4       ??0StringOp@xercesc_3_1@@QEAA@W4opType@Op@1@QEB_WQEAVMemoryManager@1@@Z 00000000120234f4 f   Op.obj
 0001:0002258c       ??1?$BaseRefVectorOf@VOp@xercesc_3_1@@@xercesc_3_1@@UEAA@XZ 000000001202358c f i Op.obj
 0001:00022598       ??0?$RefVectorOf@VOp@xercesc_3_1@@@xercesc_3_1@@QEAA@_K_NQEAVMemoryManager@1@@Z 0000000012023598 f i Op.obj
 0001:0002260c       ??_G?$BaseRefVectorOf@VOp@xercesc_3_1@@@xercesc_3_1@@UEAAPEAXI@Z 000000001202360c f i Op.obj
 0001:0002260c       ??_E?$BaseRefVectorOf@VOp@xercesc_3_1@@@xercesc_3_1@@UEAAPEAXI@Z 000000001202360c f i  CIL library: CIL module
 0001:0002263c       ??_G?$RefVectorOf@VOp@xercesc_3_1@@@xercesc_3_1@@UEAAPEAXI@Z 000000001202363c f i Op.obj
 0001:0002263c       ??_E?$RefVectorOf@VOp@xercesc_3_1@@@xercesc_3_1@@UEAAPEAXI@Z 000000001202363c f i  CIL library: CIL module
 0001:000226d8       ??_FOpFactory@xercesc_3_1@@QEAAXXZ 00000000120236d8 f i OpFactory.obj
 0001:000226e4       ?reset@OpFactory@xercesc_3_1@@QEAAXXZ 00000000120236e4 f i OpFactory.obj
 0001:000226f0       ??0OpFactory@xercesc_3_1@@QEAA@QEAVMemoryManager@1@@Z 00000000120236f0 f   OpFactory.obj
 0001:00022764       ?createDotOp@OpFactory@xercesc_3_1@@QEAAPEAVOp@2@XZ 0000000012023764 f   OpFactory.obj
 0001:000227c4       ?createCharOp@OpFactory@xercesc_3_1@@QEAAPEAVCharOp@2@H@Z 00000000120237c4 f   OpFactory.obj
 0001:00022838       ?createAnchorOp@OpFactory@xercesc_3_1@@QEAAPEAVCharOp@2@H@Z 0000000012023838 f   OpFactory.obj
 0001:000228ac       ?createCaptureOp@OpFactory@xercesc_3_1@@QEAAPEAVCharOp@2@HQEBVOp@2@@Z 00000000120238ac f   OpFactory.obj
 0001:00022930       ?createUnionOp@OpFactory@xercesc_3_1@@QEAAPEAVUnionOp@2@_K@Z 0000000012023930 f   OpFactory.obj
 0001:000229a8       ?createClosureOp@OpFactory@xercesc_3_1@@QEAAPEAVChildOp@2@H@Z 00000000120239a8 f   OpFactory.obj
 0001:00022a24       ?createNonGreedyClosureOp@OpFactory@xercesc_3_1@@QEAAPEAVChildOp@2@XZ 0000000012023a24 f   OpFactory.obj
 0001:00022a8c       ?createQuestionOp@OpFactory@xercesc_3_1@@QEAAPEAVChildOp@2@_N@Z 0000000012023a8c f   OpFactory.obj
 0001:00022b08       ?createRangeOp@OpFactory@xercesc_3_1@@QEAAPEAVRangeOp@2@QEBVToken@2@@Z 0000000012023b08 f   OpFactory.obj
 0001:00022b7c       ?createBackReferenceOp@OpFactory@xercesc_3_1@@QEAAPEAVCharOp@2@H@Z 0000000012023b7c f   OpFactory.obj
 0001:00022bf0       ?createStringOp@OpFactory@xercesc_3_1@@QEAAPEAVStringOp@2@QEB_W@Z 0000000012023bf0 f   OpFactory.obj
 0001:00022c68       ??_EClosureToken@xercesc_3_1@@UEAAPEAXI@Z 0000000012023c68 f i ClosureToken.obj
 0001:00022c68       ??_EParenToken@xercesc_3_1@@UEAAPEAXI@Z 0000000012023c68 f i ParenToken.obj
 0001:00022c68       ??_EConcatToken@xercesc_3_1@@UEAAPEAXI@Z 0000000012023c68 f i ConcatToken.obj
 0001:00022cdc       ?getType@IC_Key@xercesc_3_1@@UEBAFXZ 0000000012023cdc f i TraverseSchema.obj
 0001:00022cdc       ?getGrammarType@SchemaGrammar@xercesc_3_1@@UEBA?AW4GrammarType@Grammar@2@XZ 0000000012023cdc f i XMLGrammarPoolImpl.obj
 0001:00022cdc       ?size@ParenToken@xercesc_3_1@@UEBA_KXZ 0000000012023cdc f i ParenToken.obj
 0001:00022cdc       ?size@ClosureToken@xercesc_3_1@@UEBA_KXZ 0000000012023cdc f i ClosureToken.obj
 0001:00022cdc       ?getNodeType@DOMElementImpl@xercesc_3_1@@UEBA?AW4NodeType@DOMNode@2@XZ 0000000012023cdc f i DOMElementImpl.obj
 0001:00022cdc       ?getObjectType@DTDElementDecl@xercesc_3_1@@UEBA?AW4objectType@XMLElementDecl@2@XZ 0000000012023cdc f i DTDElementDecl.obj
 0001:00022cdc       ?getGrammarType@XMLSchemaDescription@xercesc_3_1@@UEBA?AW4GrammarType@Grammar@2@XZ 0000000012023cdc f i XMLGrammarPoolImpl.obj
 0001:00022ce4       ??0ParenToken@xercesc_3_1@@QEAA@W4tokType@Token@1@QEAV31@HQEAVMemoryManager@1@@Z 0000000012023ce4 f   ParenToken.obj
 0001:00022d08       ??1CharToken@xercesc_3_1@@UEAA@XZ 0000000012023d08 f   CharToken.obj
 0001:00022d08       ??1ParenToken@xercesc_3_1@@UEAA@XZ 0000000012023d08 f   ParenToken.obj
 0001:00022d08       ??1Token@xercesc_3_1@@UEAA@XZ 0000000012023d08 f   Token.obj
 0001:00022d08       ??1ConcatToken@xercesc_3_1@@UEAA@XZ 0000000012023d08 f   ConcatToken.obj
 0001:00022d08       ??1ClosureToken@xercesc_3_1@@UEAA@XZ 0000000012023d08 f   ClosureToken.obj
 0001:00022d14       ??_FRegxParser@xercesc_3_1@@QEAAXXZ 0000000012023d14 f i ParserForXMLSchema.obj
 0001:00022d58       ?getParseContext@RegxParser@xercesc_3_1@@QEBA?AW4parserStateContext@12@XZ 0000000012023d58 f i ParserForXMLSchema.obj
 0001:00022d58       ?getElementId@ComplexTypeInfo@xercesc_3_1@@QEBAIXZ 0000000012023d58 f i XMLElementDecl.obj
 0001:00022d5c       ?getCharData@RegxParser@xercesc_3_1@@QEBAHXZ 0000000012023d5c f i ParserForXMLSchema.obj
 0001:00022d5c       ?getProtocol@XMLURL@xercesc_3_1@@QEBA?AW4Protocols@12@XZ 0000000012023d5c f i PlatformUtils.obj
 0001:00022d5c       ?getValidationAttempted@PSVIItem@xercesc_3_1@@QEBA?AW4ASSESSMENT_TYPE@12@XZ 0000000012023d5c f i PSVIAttribute.obj
 0001:00022d5c       ?getPSVIScope@SchemaElementDecl@xercesc_3_1@@QEBA?AW4PSVIScope@PSVIDefs@2@XZ 0000000012023d5c f i XMLElementDecl.obj
 0001:00022d5c       ?getErrorCount@XMLScanner@xercesc_3_1@@QEAAHXZ 0000000012023d5c f i XMLValidator.obj
 0001:00022d60       ?setParseContext@RegxParser@xercesc_3_1@@QEAAXW4parserStateContext@12@@Z 0000000012023d60 f i ParserForXMLSchema.obj
 0001:00022d60       ?setElementId@ComplexTypeInfo@xercesc_3_1@@QEAAXI@Z 0000000012023d60 f i XMLElementDecl.obj
 0001:00022d64       ?isSet@RegxParser@xercesc_3_1@@IEAA_NH@Z 0000000012023d64 f i ParserForXMLSchema.obj
 0001:00022d74       ?hexChar@RegxParser@xercesc_3_1@@AEAAHH@Z 0000000012023d74 f i ParserForXMLSchema.obj
 0001:00022da0       ??_FParserForXMLSchema@xercesc_3_1@@QEAAXXZ 0000000012023da0 f i ParserForXMLSchema.obj
 0001:00022de4       ??_EParserForXMLSchema@xercesc_3_1@@UEAAPEAXI@Z 0000000012023de4 f i ParserForXMLSchema.obj
 0001:00022e60       ?setString@StringToken@xercesc_3_1@@QEAAXQEB_W@Z 0000000012023e60 f i ParserForXMLSchema.obj
 0001:00022ee4       ?size@UnionToken@xercesc_3_1@@UEBA_KXZ 0000000012023ee4 f i ParserForXMLSchema.obj
 0001:00022ef4       ?getChild@UnionToken@xercesc_3_1@@UEBAPEAVToken@2@_K@Z 0000000012023ef4 f i ParserForXMLSchema.obj
 0001:00022f00       ??0ParseException@xercesc_3_1@@QEAA@QEBD_KW4Codes@XMLExcepts@1@PEAVMemoryManager@1@@Z 0000000012023f00 f i ParserForXMLSchema.obj
 0001:00022f4c       ??0ParseException@xercesc_3_1@@QEAA@AEBV01@@Z 0000000012023f4c f i ParserForXMLSchema.obj
 0001:00022f70       ??0ParseException@xercesc_3_1@@QEAA@QEBD_KW4Codes@XMLExcepts@1@QEB_W333PEAVMemoryManager@1@@Z 0000000012023f70 f i ParserForXMLSchema.obj
 0001:00022fe4       ??0ParseException@xercesc_3_1@@QEAA@QEBD_KW4Codes@XMLExcepts@1@0000PEAVMemoryManager@1@@Z 0000000012023fe4 f i ParserForXMLSchema.obj
 0001:00023058       ??1ParseException@xercesc_3_1@@UEAA@XZ 0000000012024058 f i ParserForXMLSchema.obj
 0001:00023068       ?duplicate@ParseException@xercesc_3_1@@UEBAPEAVXMLException@2@XZ 0000000012024068 f i ParserForXMLSchema.obj
 0001:000230cc       ?getType@ParseException@xercesc_3_1@@UEBAPEB_WXZ 00000000120240cc f i ParserForXMLSchema.obj
 0001:000230d4       ??_EParseException@xercesc_3_1@@UEAAPEAXI@Z 00000000120240d4 f i ParserForXMLSchema.obj
 0001:00023150       ??0ParserForXMLSchema@xercesc_3_1@@QEAA@QEAVMemoryManager@1@@Z 0000000012024150 f   ParserForXMLSchema.obj
 0001:00023190       ??1ParserForXMLSchema@xercesc_3_1@@UEAA@XZ 0000000012024190 f   ParserForXMLSchema.obj
 0001:000231a0       ?processCaret@ParserForXMLSchema@xercesc_3_1@@MEAAPEAVToken@2@XZ 00000000120241a0 f   ParserForXMLSchema.obj
 0001:000231c4       ?processDollar@ParserForXMLSchema@xercesc_3_1@@MEAAPEAVToken@2@XZ 00000000120241c4 f   ParserForXMLSchema.obj
 0001:000231e8       ?processPlus@ParserForXMLSchema@xercesc_3_1@@MEAAPEAVToken@2@QEAV32@@Z 00000000120241e8 f   ParserForXMLSchema.obj
 0001:00023228       ?processStar@ParserForXMLSchema@xercesc_3_1@@MEAAPEAVToken@2@QEAV32@@Z 0000000012024228 f   ParserForXMLSchema.obj
 0001:00023258       ?processQuestion@ParserForXMLSchema@xercesc_3_1@@MEAAPEAVToken@2@QEAV32@@Z 0000000012024258 f   ParserForXMLSchema.obj
 0001:00023318       ?processParen@ParserForXMLSchema@xercesc_3_1@@MEAAPEAVToken@2@XZ 0000000012024318 f   ParserForXMLSchema.obj
 0001:000233bc       ?processBackReference@ParserForXMLSchema@xercesc_3_1@@MEAAPEAVToken@2@XZ 00000000120243bc f   ParserForXMLSchema.obj
 0001:00023414       ?decodeEscaped@ParserForXMLSchema@xercesc_3_1@@MEAAHXZ 0000000012024414 f   ParserForXMLSchema.obj
 0001:00023570       ??0RangeFactory@xercesc_3_1@@IEAA@XZ 0000000012024570 f   RangeFactory.obj
 0001:00023584       ??_ERangeToken@xercesc_3_1@@UEAAPEAXI@Z 0000000012024584 f i RangeToken.obj
 0001:000235f8       ??0RangeToken@xercesc_3_1@@QEAA@W4tokType@Token@1@QEAVMemoryManager@1@@Z 00000000120245f8 f   RangeToken.obj
 0001:00023630       ??1RangeToken@xercesc_3_1@@UEAA@XZ 0000000012024630 f   RangeToken.obj
 0001:00023694       ?getCaseInsensitiveToken@RangeToken@xercesc_3_1@@QEAAPEAV12@QEAVTokenFactory@2@@Z 0000000012024694 f   RangeToken.obj
 0001:000237f4       ?setRangeValues@RangeToken@xercesc_3_1@@QEAAXQEAHI@Z 00000000120247f4 f   RangeToken.obj
 0001:0002385c       ?addRange@RangeToken@xercesc_3_1@@UEAAXHH@Z 000000001202485c f   RangeToken.obj
 0001:000239e0       ?sortRanges@RangeToken@xercesc_3_1@@UEAAXXZ 00000000120249e0 f   RangeToken.obj
 0001:00023a7c       ?compactRanges@RangeToken@xercesc_3_1@@UEAAXXZ 0000000012024a7c f   RangeToken.obj
 0001:00023b50       ?mergeRanges@RangeToken@xercesc_3_1@@UEAAXQEBVToken@2@@Z 0000000012024b50 f   RangeToken.obj
 0001:00023d8c       ?subtractRanges@RangeToken@xercesc_3_1@@UEAAXQEAV12@@Z 0000000012024d8c f   RangeToken.obj
 0001:00023f40       ?intersectRanges@RangeToken@xercesc_3_1@@UEAAXQEAV12@@Z 0000000012024f40 f   RangeToken.obj
 0001:000240b8       ?complementRanges@RangeToken@xercesc_3_1@@SAPEAV12@QEAV12@QEAVTokenFactory@2@QEAVMemoryManager@2@@Z 00000000120250b8 f   RangeToken.obj
 0001:000241f4       ?match@RangeToken@xercesc_3_1@@QEAA_NH@Z 00000000120251f4 f   RangeToken.obj
 0001:000242ec       ?expand@RangeToken@xercesc_3_1@@AEAAXI@Z 00000000120252ec f   RangeToken.obj
 0001:0002437c       ?doCreateMap@RangeToken@xercesc_3_1@@AEAAXXZ 000000001202537c f   RangeToken.obj
 0001:0002443c       ?initializeRangeTokenMap@XMLInitializer@xercesc_3_1@@CAXXZ 000000001202543c f   RangeTokenMap.obj
 0001:00024488       ?terminateRangeTokenMap@XMLInitializer@xercesc_3_1@@CAXXZ 0000000012025488 f   RangeTokenMap.obj
 0001:000244c0       ??0RangeTokenElemMap@xercesc_3_1@@QEAA@I@Z 00000000120254c0 f   RangeTokenMap.obj
 0001:000244d0       ??0RangeTokenMap@xercesc_3_1@@IEAA@PEAVMemoryManager@1@@Z 00000000120254d0 f   RangeTokenMap.obj
 0001:00024690       ??1RangeTokenMap@xercesc_3_1@@IEAA@XZ 0000000012025690 f   RangeTokenMap.obj
 0001:000246bc       ?getRange@RangeTokenMap@xercesc_3_1@@IEAAPEAVRangeToken@2@QEB_W_N@Z 00000000120256bc f   RangeTokenMap.obj
 0001:000247e4       ?addRangeMap@RangeTokenMap@xercesc_3_1@@QEAAXQEB_WQEAVRangeFactory@2@@Z 00000000120257e4 f   RangeTokenMap.obj
 0001:000247f0       ?addKeywordMap@RangeTokenMap@xercesc_3_1@@QEAAXQEB_W0@Z 00000000120257f0 f   RangeTokenMap.obj
 0001:00024900       ?setRangeToken@RangeTokenMap@xercesc_3_1@@QEAAXQEB_WQEAVRangeToken@2@_N@Z 0000000012025900 f   RangeTokenMap.obj
 0001:000249d0       ?initializeRegistry@RangeTokenMap@xercesc_3_1@@AEAAXXZ 00000000120259d0 f   RangeTokenMap.obj
 0001:00024b4c       ?buildTokenRanges@RangeTokenMap@xercesc_3_1@@AEAAXXZ 0000000012025b4c f   RangeTokenMap.obj
 0001:00024c10       ?instance@RangeTokenMap@xercesc_3_1@@SAPEAV12@XZ 0000000012025c10 f   RangeTokenMap.obj
 0001:00024c18       ?cleanUp@RangeTokenMap@xercesc_3_1@@AEAAXXZ 0000000012025c18 f   RangeTokenMap.obj
 0001:00024dac       ?put@?$RefHashTableOf@VRangeTokenElemMap@xercesc_3_1@@UStringHasher@2@@xercesc_3_1@@QEAAXPEAXQEAVRangeTokenElemMap@2@@Z 0000000012025dac f i RangeTokenMap.obj
 0001:00024e74       ?isEOLChar@RegxUtil@xercesc_3_1@@SA_N_W@Z 0000000012025e74 f i RegularExpression.obj
 0001:00024ea0       ?composeFromSurrogate@RegxUtil@xercesc_3_1@@SAH_W0@Z 0000000012025ea0 f i RegularExpression.obj
 0001:00024eb4       ?isLowSurrogate@RegxUtil@xercesc_3_1@@SA_N_W@Z 0000000012025eb4 f i RegularExpression.obj
 0001:00024ec8       ?isHighSurrogate@RegxUtil@xercesc_3_1@@SA_N_W@Z 0000000012025ec8 f i RegularExpression.obj
 0001:00024edc       ?decomposeToSurrogates@RegxUtil@xercesc_3_1@@SAXHAEA_W0@Z 0000000012025edc f i RegularExpression.obj
 0001:00024f04       ?isWordChar@RegxUtil@xercesc_3_1@@SA_N_W@Z 0000000012025f04 f i RegularExpression.obj
 0001:00024f34       ??_FContext@RegularExpression@xercesc_3_1@@QEAAXXZ 0000000012025f34 f i RegularExpression.obj
 0001:00024f68       ??_ERegularExpression@xercesc_3_1@@UEAAPEAXI@Z 0000000012025f68 f i RegularExpression.obj
 0001:00024fdc       ?staticCleanup@RegularExpression@xercesc_3_1@@SAXXZ 0000000012025fdc f i RegularExpression.obj
 0001:00024fdc       ?terminateRegularExpression@XMLInitializer@xercesc_3_1@@CAXXZ 0000000012025fdc f i RegularExpression.obj
 0001:00024fe8       ?cleanUp@RegularExpression@xercesc_3_1@@IEAAXXZ 0000000012025fe8 f i RegularExpression.obj
 0001:00025058       ?isSet@RegularExpression@xercesc_3_1@@SA_NHH@Z 0000000012026058 f i RegularExpression.obj
 0001:00025060       ?compileUnion@RegularExpression@xercesc_3_1@@IEAAPEAVOp@2@QEBVToken@2@QEAV32@_N@Z 0000000012026060 f i RegularExpression.obj
 0001:00025100       ?compileParenthesis@RegularExpression@xercesc_3_1@@IEAAPEAVOp@2@QEBVToken@2@QEAV32@_N@Z 0000000012026100 f i RegularExpression.obj
 0001:000251fc       ?compileConcat@RegularExpression@xercesc_3_1@@IEAAPEAVOp@2@QEBVToken@2@QEAV32@_N@Z 00000000120261fc f i RegularExpression.obj
 0001:000252b0       ?compileClosure@RegularExpression@xercesc_3_1@@IEAAPEAVOp@2@QEBVToken@2@QEAV32@_NW4tokType@42@@Z 00000000120262b0 f i RegularExpression.obj
 0001:00025444       ?matchIgnoreCase@RegularExpression@xercesc_3_1@@IEBA_NHH@Z 0000000012026444 f   RegularExpression.obj
 0001:00025510       ??0Context@RegularExpression@xercesc_3_1@@QEAA@QEAVMemoryManager@2@@Z 0000000012026510 f   RegularExpression.obj
 0001:00025540       ??0Context@RegularExpression@xercesc_3_1@@QEAA@PEAV012@@Z 0000000012026540 f   RegularExpression.obj
 0001:00025630       ??4Context@RegularExpression@xercesc_3_1@@QEAAAEAV012@AEBV012@@Z 0000000012026630 f   RegularExpression.obj
 0001:000257bc       ??1Context@RegularExpression@xercesc_3_1@@QEAA@XZ 00000000120267bc f   RegularExpression.obj
 0001:000257f8       ?reset@Context@RegularExpression@xercesc_3_1@@QEAAXQEB_W_K11HI@Z 00000000120267f8 f   RegularExpression.obj
 0001:000258a8       ?nextCh@Context@RegularExpression@xercesc_3_1@@QEAA_NAEAHAEA_K@Z 00000000120268a8 f   RegularExpression.obj
 0001:00025928       ??0RegularExpression@xercesc_3_1@@QEAA@QEBDQEAVMemoryManager@1@@Z 0000000012026928 f   RegularExpression.obj
 0001:00025a14       ??0RegularExpression@xercesc_3_1@@QEAA@QEBD0QEAVMemoryManager@1@@Z 0000000012026a14 f   RegularExpression.obj
 0001:00025b30       ??0RegularExpression@xercesc_3_1@@QEAA@QEB_WQEAVMemoryManager@1@@Z 0000000012026b30 f   RegularExpression.obj
 0001:00025bf0       ??0RegularExpression@xercesc_3_1@@QEAA@QEB_W0QEAVMemoryManager@1@@Z 0000000012026bf0 f   RegularExpression.obj
 0001:00025cb4       ??1RegularExpression@xercesc_3_1@@UEAA@XZ 0000000012026cb4 f   RegularExpression.obj
 0001:00025ce8       ?getRegexParser@RegularExpression@xercesc_3_1@@MEAAPEAVRegxParser@2@HQEAVMemoryManager@2@@Z 0000000012026ce8 f   RegularExpression.obj
 0001:00025da8       ?setPattern@RegularExpression@xercesc_3_1@@IEAAXQEB_W0@Z 0000000012026da8 f   RegularExpression.obj
 0001:00025ec8       ?matches@RegularExpression@xercesc_3_1@@QEBA_NQEBDQEAVMemoryManager@2@@Z 0000000012026ec8 f   RegularExpression.obj
 0001:00025f50       ?matches@RegularExpression@xercesc_3_1@@QEBA_NQEBD_K1QEAVMemoryManager@2@@Z 0000000012026f50 f   RegularExpression.obj
 0001:00025fd8       ?matches@RegularExpression@xercesc_3_1@@QEBA_NQEBDQEAVMatch@2@QEAVMemoryManager@2@@Z 0000000012026fd8 f   RegularExpression.obj
 0001:00026070       ?matches@RegularExpression@xercesc_3_1@@QEBA_NQEBD_K1QEAVMatch@2@QEAVMemoryManager@2@@Z 0000000012027070 f   RegularExpression.obj
 0001:00026100       ?matches@RegularExpression@xercesc_3_1@@QEBA_NQEB_WQEAVMemoryManager@2@@Z 0000000012027100 f   RegularExpression.obj
 0001:00026144       ?matches@RegularExpression@xercesc_3_1@@QEBA_NQEB_W_K1QEAVMemoryManager@2@@Z 0000000012027144 f   RegularExpression.obj
 0001:00026164       ?matches@RegularExpression@xercesc_3_1@@QEBA_NQEB_WQEAVMatch@2@QEAVMemoryManager@2@@Z 0000000012027164 f   RegularExpression.obj
 0001:000261ac       ?matches@RegularExpression@xercesc_3_1@@QEBA_NQEB_W_K1QEAVMatch@2@QEAVMemoryManager@2@@Z 00000000120271ac f   RegularExpression.obj
 0001:000265c0       ?tokenize@RegularExpression@xercesc_3_1@@QEBAPEAV?$RefArrayVectorOf@_W@2@QEBDQEAVMemoryManager@2@@Z 00000000120275c0 f   RegularExpression.obj
 0001:00026644       ?tokenize@RegularExpression@xercesc_3_1@@QEBAPEAV?$RefArrayVectorOf@_W@2@QEBD_K1QEAVMemoryManager@2@@Z 0000000012027644 f   RegularExpression.obj
 0001:000266c8       ?tokenize@RegularExpression@xercesc_3_1@@QEBAPEAV?$RefArrayVectorOf@_W@2@QEB_WQEAVMemoryManager@2@@Z 00000000120276c8 f   RegularExpression.obj
 0001:00026708       ?tokenize@RegularExpression@xercesc_3_1@@QEBAPEAV?$RefArrayVectorOf@_W@2@QEB_W_K1QEAVMemoryManager@2@@Z 0000000012027708 f   RegularExpression.obj
 0001:00026928       ?allMatches@RegularExpression@xercesc_3_1@@QEBAXQEB_W_K1PEAV?$RefVectorOf@VMatch@xercesc_3_1@@@2@QEAVMemoryManager@2@@Z 0000000012027928 f   RegularExpression.obj
 0001:00026b78       ?replace@RegularExpression@xercesc_3_1@@QEBAPEA_WQEBD0QEAVMemoryManager@2@@Z 0000000012027b78 f   RegularExpression.obj
 0001:00026c48       ?replace@RegularExpression@xercesc_3_1@@QEBAPEA_WQEBD0_K1QEAVMemoryManager@2@@Z 0000000012027c48 f   RegularExpression.obj
 0001:00026d10       ?replace@RegularExpression@xercesc_3_1@@QEBAPEA_WQEB_W0QEAVMemoryManager@2@@Z 0000000012027d10 f   RegularExpression.obj
 0001:00026d54       ?replace@RegularExpression@xercesc_3_1@@QEBAPEA_WQEB_W0_K1QEAVMemoryManager@2@@Z 0000000012027d54 f   RegularExpression.obj
 0001:00027020       ?subInExp@RegularExpression@xercesc_3_1@@IEBAXQEB_W0PEBVMatch@2@AEAVXMLBuffer@2@QEAVMemoryManager@2@@Z 0000000012028020 f   RegularExpression.obj
 0001:0002724c       ?initializeRegularExpression@XMLInitializer@xercesc_3_1@@CAXXZ 000000001202824c f   RegularExpression.obj
 0001:00027258       ?staticInitialize@RegularExpression@xercesc_3_1@@SAXPEAVMemoryManager@2@@Z 0000000012028258 f   RegularExpression.obj
 0001:000272f4       ?getOptionValue@RegularExpression@xercesc_3_1@@SAH_W@Z 00000000120282f4 f   RegularExpression.obj
 0001:00027344       ?match@RegularExpression@xercesc_3_1@@IEBAHQEAVContext@12@QEBVOp@2@_K@Z 0000000012028344 f   RegularExpression.obj
 0001:00027990       ?matchChar@RegularExpression@xercesc_3_1@@IEBA_NQEAVContext@12@HAEA_K_N@Z 0000000012028990 f   RegularExpression.obj
 0001:00027a0c       ?matchDot@RegularExpression@xercesc_3_1@@IEBA_NQEAVContext@12@AEA_K@Z 0000000012028a0c f   RegularExpression.obj
 0001:00027a70       ?matchRange@RegularExpression@xercesc_3_1@@IEBA_NQEAVContext@12@QEBVOp@2@AEA_K_N@Z 0000000012028a70 f   RegularExpression.obj
 0001:00027af4       ?matchAnchor@RegularExpression@xercesc_3_1@@IEBA_NQEAVContext@12@H_K@Z 0000000012028af4 f   RegularExpression.obj
 0001:00027bc4       ?matchBackReference@RegularExpression@xercesc_3_1@@IEBA_NQEAVContext@12@HAEA_K_N@Z 0000000012028bc4 f   RegularExpression.obj
 0001:00027cd8       ?matchString@RegularExpression@xercesc_3_1@@IEBA_NQEAVContext@12@QEB_WAEA_K_N@Z 0000000012028cd8 f   RegularExpression.obj
 0001:00027d58       ?matchCapture@RegularExpression@xercesc_3_1@@IEBAHQEAVContext@12@QEBVOp@2@_K@Z 0000000012028d58 f   RegularExpression.obj
 0001:00027e28       ?matchUnion@RegularExpression@xercesc_3_1@@IEBAHQEAVContext@12@QEBVOp@2@_K@Z 0000000012028e28 f   RegularExpression.obj
 0001:00027f68       ?parseOptions@RegularExpression@xercesc_3_1@@IEAAHQEB_W@Z 0000000012028f68 f   RegularExpression.obj
 0001:00028038       ?compile@RegularExpression@xercesc_3_1@@IEAAXQEBVToken@2@@Z 0000000012029038 f   RegularExpression.obj
 0001:00028064       ?compile@RegularExpression@xercesc_3_1@@IEAAPEAVOp@2@QEBVToken@2@QEAV32@_N@Z 0000000012029064 f   RegularExpression.obj
 0001:000281d8       ?prepare@RegularExpression@xercesc_3_1@@IEAAXXZ 00000000120291d8 f   RegularExpression.obj
 0001:0002850c       ?doTokenOverlap@RegularExpression@xercesc_3_1@@IEAA_NPEBVOp@2@PEAVToken@2@@Z 000000001202950c f   RegularExpression.obj
 0001:0002867c       ??1?$JanitorMemFunCall@VDOMXPathResultImpl@xercesc_3_1@@@xercesc_3_1@@QEAA@XZ 000000001202967c f i DOMXPathExpressionImpl.obj
 0001:0002867c       ??1?$JanitorMemFunCall@VXercesXPath@xercesc_3_1@@@xercesc_3_1@@QEAA@XZ 000000001202967c f i XercesXPath.obj
 0001:0002867c       ??1?$JanitorMemFunCall@VXMLGrammarPoolImpl@xercesc_3_1@@@xercesc_3_1@@QEAA@XZ 000000001202967c f i XMLGrammarPoolImpl.obj
 0001:0002867c       ??1?$JanitorMemFunCall@VDGXMLScanner@xercesc_3_1@@@xercesc_3_1@@QEAA@XZ 000000001202967c f i DGXMLScanner.obj
 0001:0002867c       ??1?$JanitorMemFunCall@VWFXMLScanner@xercesc_3_1@@@xercesc_3_1@@QEAA@XZ 000000001202967c f i WFXMLScanner.obj
 0001:0002867c       ??1?$JanitorMemFunCall@VIGXMLScanner@xercesc_3_1@@@xercesc_3_1@@QEAA@XZ 000000001202967c f i IGXMLScanner.obj
 0001:0002867c       ??1?$JanitorMemFunCall@VXPathMatcher@xercesc_3_1@@@xercesc_3_1@@QEAA@XZ 000000001202967c f i XPathMatcher.obj
 0001:0002867c       ??1?$JanitorMemFunCall@VXMLNotationDecl@xercesc_3_1@@@xercesc_3_1@@QEAA@XZ 000000001202967c f i XMLNotationDecl.obj
 0001:0002867c       ??1?$JanitorMemFunCall@VXercesDOMParser@xercesc_3_1@@@xercesc_3_1@@QEAA@XZ 000000001202967c f i XercesDOMParser.obj
 0001:0002867c       ??1?$JanitorMemFunCall@VXMLAttDef@xercesc_3_1@@@xercesc_3_1@@QEAA@XZ 000000001202967c f i XMLAttDef.obj
 0001:0002867c       ??1?$JanitorMemFunCall@VReaderMgr@xercesc_3_1@@@xercesc_3_1@@QEAA@XZ 000000001202967c f i DGXMLScanner.obj
 0001:0002867c       ??1?$JanitorMemFunCall@VXMLBigDecimal@xercesc_3_1@@@xercesc_3_1@@QEAA@XZ 000000001202967c f i XMLBigDecimal.obj
 0001:0002867c       ??1?$JanitorMemFunCall@VQName@xercesc_3_1@@@xercesc_3_1@@QEAA@XZ 000000001202967c f i QName.obj
 0001:0002867c       ??1?$JanitorMemFunCall@VAbstractDOMParser@xercesc_3_1@@@xercesc_3_1@@QEAA@XZ 000000001202967c f i AbstractDOMParser.obj
 0001:0002867c       ??1?$JanitorMemFunCall@VXMLUri@xercesc_3_1@@@xercesc_3_1@@QEAA@XZ 000000001202967c f i XMLUri.obj
 0001:0002867c       ??1?$JanitorMemFunCall@VSAXParser@xercesc_3_1@@@xercesc_3_1@@QEAA@XZ 000000001202967c f i SAXParser.obj
 0001:0002867c       ??1?$JanitorMemFunCall@VIdentityConstraintHandler@xercesc_3_1@@@xercesc_3_1@@QEAA@XZ 000000001202967c f i IdentityConstraintHandler.obj
 0001:0002867c       ??1?$JanitorMemFunCall@VSchemaGrammar@xercesc_3_1@@@xercesc_3_1@@QEAA@XZ 000000001202967c f i SchemaGrammar.obj
 0001:0002867c       ??1?$JanitorMemFunCall@VSAX2XMLReaderImpl@xercesc_3_1@@@xercesc_3_1@@QEAA@XZ 000000001202967c f i SAX2XMLReaderImpl.obj
 0001:0002867c       ??1?$JanitorMemFunCall@VIdentityConstraint@xercesc_3_1@@@xercesc_3_1@@QEAA@XZ 000000001202967c f i IdentityConstraint.obj
 0001:0002867c       ??1?$JanitorMemFunCall@VRegularExpression@xercesc_3_1@@@xercesc_3_1@@QEAA@XZ 000000001202967c f i RegularExpression.obj
 0001:0002867c       ??1?$JanitorMemFunCall@VUnionDatatypeValidator@xercesc_3_1@@@xercesc_3_1@@QEAA@XZ 000000001202967c f i UnionDatatypeValidator.obj
 0001:0002867c       ??1?$JanitorMemFunCall@VXMLScanner@xercesc_3_1@@@xercesc_3_1@@QEAA@XZ 000000001202967c f i XMLScanner.obj
 0001:0002867c       ??1?$JanitorMemFunCall@VXMLEntityDecl@xercesc_3_1@@@xercesc_3_1@@QEAA@XZ 000000001202967c f i XMLEntityDecl.obj
 0001:0002867c       ??1?$JanitorMemFunCall@VDOMLSParserImpl@xercesc_3_1@@@xercesc_3_1@@QEAA@XZ 000000001202967c f i DOMLSParserImpl.obj
 0001:0002867c       ??1?$JanitorMemFunCall@VXMLURL@xercesc_3_1@@@xercesc_3_1@@QEAA@XZ 000000001202967c f i XMLURL.obj
 0001:0002867c       ??1?$JanitorMemFunCall@VSGXMLScanner@xercesc_3_1@@@xercesc_3_1@@QEAA@XZ 000000001202967c f i SGXMLScanner.obj
 0001:0002867c       ??1?$JanitorMemFunCall@VDOMXPathExpressionImpl@xercesc_3_1@@@xercesc_3_1@@QEAA@XZ 000000001202967c f i DOMXPathExpressionImpl.obj
 0001:000286a8       ??1?$BaseRefVectorOf@VMatch@xercesc_3_1@@@xercesc_3_1@@UEAA@XZ 00000000120296a8 f i RegularExpression.obj
 0001:000286b4       ?removeLastElement@?$BaseRefVectorOf@VXercesStep@xercesc_3_1@@@xercesc_3_1@@UEAAXXZ 00000000120296b4 f i XTemplateSerializer.obj
 0001:000286b4       ?removeLastElement@?$BaseRefVectorOf@VDOMDocumentImpl@xercesc_3_1@@@xercesc_3_1@@UEAAXXZ 00000000120296b4 f i AbstractDOMParser.obj
 0001:000286b4       ?removeLastElement@?$BaseRefVectorOf@VToken@xercesc_3_1@@@xercesc_3_1@@UEAAXXZ 00000000120296b4 f i TokenFactory.obj
 0001:000286b4       ?removeLastElement@?$BaseRefVectorOf@VMatch@xercesc_3_1@@@xercesc_3_1@@UEAAXXZ 00000000120296b4 f i RegularExpression.obj
 0001:000286b4       ?removeLastElement@?$BaseRefVectorOf@VIC_Field@xercesc_3_1@@@xercesc_3_1@@UEAAXXZ 00000000120296b4 f i XMLElementDecl.obj
 0001:000286b4       ?removeLastElement@?$BaseRefVectorOf@VXSIDCDefinition@xercesc_3_1@@@xercesc_3_1@@UEAAXXZ 00000000120296b4 f i XSObjectFactory.obj
 0001:000286b4       ?removeLastElement@?$BaseRefVectorOf@VKVStringPair@xercesc_3_1@@@xercesc_3_1@@UEAAXXZ 00000000120296b4 f i IGXMLScanner.obj
 0001:000286b4       ?removeLastElement@?$BaseRefVectorOf@VIdentityConstraint@xercesc_3_1@@@xercesc_3_1@@UEAAXXZ 00000000120296b4 f i XMLElementDecl.obj
 0001:000286b4       ?removeLastElement@?$BaseRefVectorOf@VXMLNumber@xercesc_3_1@@@xercesc_3_1@@UEAAXXZ 00000000120296b4 f i XTemplateSerializer.obj
 0001:000286b4       ?removeLastElement@?$BaseRefVectorOf@VXSFacet@xercesc_3_1@@@xercesc_3_1@@UEAAXXZ 00000000120296b4 f i XSObjectFactory.obj
 0001:000286b4       ?removeLastElement@?$BaseRefVectorOf@VDOMImplementation@xercesc_3_1@@@xercesc_3_1@@UEAAXXZ 00000000120296b4 f i DOMImplementationListImpl.obj
 0001:000286b4       ?removeLastElement@?$BaseRefVectorOf@VSchemaAttDef@xercesc_3_1@@@xercesc_3_1@@UEAAXXZ 00000000120296b4 f i XMLGrammarPoolImpl.obj
 0001:000286b4       ?removeLastElement@?$BaseRefVectorOf@VDOMImplementationSource@xercesc_3_1@@@xercesc_3_1@@UEAAXXZ 00000000120296b4 f i DOMImplementationRegistry.obj
 0001:000286b4       ?removeLastElement@?$BaseRefVectorOf@VXPathMatcher@xercesc_3_1@@@xercesc_3_1@@UEAAXXZ 00000000120296b4 f i XPathMatcherStack.obj
 0001:000286b4       ?removeLastElement@?$BaseRefVectorOf@VDOMNodeIteratorImpl@xercesc_3_1@@@xercesc_3_1@@UEAAXXZ 00000000120296b4 f i DOMDocumentImpl.obj
 0001:000286b4       ?removeLastElement@?$BaseRefVectorOf@VXMLElementDecl@xercesc_3_1@@@xercesc_3_1@@UEAAXXZ 00000000120296b4 f i WFXMLScanner.obj
 0001:000286b4       ?removeLastElement@?$BaseRefVectorOf@VDOMRangeImpl@xercesc_3_1@@@xercesc_3_1@@UEAAXXZ 00000000120296b4 f i DOMDocumentImpl.obj
 0001:000286b4       ?removeLastElement@?$BaseRefVectorOf@VXSObject@xercesc_3_1@@@xercesc_3_1@@UEAAXXZ 00000000120296b4 f i XSModel.obj
 0001:000286b4       ?removeLastElement@?$BaseRefVectorOf@VXercesLocationPath@xercesc_3_1@@@xercesc_3_1@@UEAAXXZ 00000000120296b4 f i XTemplateSerializer.obj
 0001:000286b4       ?removeLastElement@?$BaseRefVectorOf@VOp@xercesc_3_1@@@xercesc_3_1@@UEAAXXZ 00000000120296b4 f i Op.obj
 0001:000286b4       ?removeLastElement@?$BaseRefVectorOf@VXSAnnotation@xercesc_3_1@@@xercesc_3_1@@UEAAXXZ 00000000120296b4 f i XSComplexTypeDefinition.obj
 0001:000286b4       ?removeLastElement@?$BaseRefVectorOf@VXSParticle@xercesc_3_1@@@xercesc_3_1@@UEAAXXZ 00000000120296b4 f i XSObjectFactory.obj
 0001:000286b4       ?removeLastElement@?$BaseRefVectorOf@VDatatypeValidator@xercesc_3_1@@@xercesc_3_1@@UEAAXXZ 00000000120296b4 f i XTemplateSerializer.obj
 0001:000286b4       ?removeLastElement@?$BaseRefVectorOf@VXMLEntityDecl@xercesc_3_1@@@xercesc_3_1@@UEAAXXZ 00000000120296b4 f i ReaderMgr.obj
 0001:000286b4       ?removeLastElement@?$BaseRefVectorOf@VDOMNode@xercesc_3_1@@@xercesc_3_1@@UEAAXXZ 00000000120296b4 f i DOMDocumentImpl.obj
 0001:000286b4       ?removeLastElement@?$BaseRefVectorOf@VXSMultiValueFacet@xercesc_3_1@@@xercesc_3_1@@UEAAXXZ 00000000120296b4 f i XSObjectFactory.obj
 0001:000286b4       ?removeLastElement@?$BaseRefVectorOf@VENameMap@xercesc_3_1@@@xercesc_3_1@@UEAAXXZ 00000000120296b4 f i TransService.obj
 0001:000286b4       ?removeLastElement@?$BaseRefVectorOf@VContentSpecNode@xercesc_3_1@@@xercesc_3_1@@UEAAXXZ 00000000120296b4 f i XTemplateSerializer.obj
 0001:000286b4       ?removeLastElement@?$BaseRefVectorOf@VXSAttributeUse@xercesc_3_1@@@xercesc_3_1@@UEAAXXZ 00000000120296b4 f i XSObjectFactory.obj
 0001:000286b4       ?removeLastElement@?$BaseRefVectorOf@VSchemaElementDecl@xercesc_3_1@@@xercesc_3_1@@UEAAXXZ 00000000120296b4 f i XMLElementDecl.obj
 0001:000286b4       ?removeLastElement@?$BaseRefVectorOf@VXSSimpleTypeDefinition@xercesc_3_1@@@xercesc_3_1@@UEAAXXZ 00000000120296b4 f i XSObjectFactory.obj
 0001:000286ec       ??0?$RefVectorOf@VMatch@xercesc_3_1@@@xercesc_3_1@@QEAA@_K_NQEAVMemoryManager@1@@Z 00000000120296ec f i RegularExpression.obj
 0001:00028758       ??1?$Janitor@V?$ValueStackOf@URE_RuntimeContext@xercesc_3_1@@@xercesc_3_1@@@xercesc_3_1@@QEAA@XZ 0000000012029758 f i RegularExpression.obj
 0001:00028798       ?push@?$ValueStackOf@URE_RuntimeContext@xercesc_3_1@@@xercesc_3_1@@QEAAXAEBURE_RuntimeContext@2@@Z 0000000012029798 f i RegularExpression.obj
 0001:00028898       ??_G?$BaseRefVectorOf@VMatch@xercesc_3_1@@@xercesc_3_1@@UEAAPEAXI@Z 0000000012029898 f i RegularExpression.obj
 0001:00028898       ??_E?$BaseRefVectorOf@VMatch@xercesc_3_1@@@xercesc_3_1@@UEAAPEAXI@Z 0000000012029898 f i  CIL library: CIL module
 0001:000288c8       ??_G?$RefVectorOf@VMatch@xercesc_3_1@@@xercesc_3_1@@UEAAPEAXI@Z 00000000120298c8 f i RegularExpression.obj
 0001:000288c8       ??_E?$RefVectorOf@VMatch@xercesc_3_1@@@xercesc_3_1@@UEAAPEAXI@Z 00000000120298c8 f i  CIL library: CIL module
 0001:00028964       ??_ERegxParser@xercesc_3_1@@UEAAPEAXI@Z 0000000012029964 f i RegxParser.obj
 0001:000289d8       ??0RegxParser@xercesc_3_1@@QEAA@QEAVMemoryManager@1@@Z 00000000120299d8 f   RegxParser.obj
 0001:00028a18       ??1RegxParser@xercesc_3_1@@UEAA@XZ 0000000012029a18 f   RegxParser.obj
 0001:00028a54       ?parse@RegxParser@xercesc_3_1@@QEAAPEAVToken@2@QEB_WH@Z 0000000012029a54 f   RegxParser.obj
 0001:00028c90       ?processNext@RegxParser@xercesc_3_1@@IEAAXXZ 0000000012029c90 f   RegxParser.obj
 0001:00028f70       ?parseRegx@RegxParser@xercesc_3_1@@IEAAPEAVToken@2@_N@Z 0000000012029f70 f   RegxParser.obj
 0001:00029010       ?parseTerm@RegxParser@xercesc_3_1@@AEAAPEAVToken@2@_N@Z 000000001202a010 f   RegxParser.obj
 0001:00029124       ?processCaret@RegxParser@xercesc_3_1@@MEAAPEAVToken@2@XZ 000000001202a124 f   RegxParser.obj
 0001:00029140       ?processDollar@RegxParser@xercesc_3_1@@MEAAPEAVToken@2@XZ 000000001202a140 f   RegxParser.obj
 0001:0002915c       ?processStar@RegxParser@xercesc_3_1@@MEAAPEAVToken@2@QEAV32@@Z 000000001202a15c f   RegxParser.obj
 0001:000291a0       ?processPlus@RegxParser@xercesc_3_1@@MEAAPEAVToken@2@QEAV32@@Z 000000001202a1a0 f   RegxParser.obj
 0001:000291f0       ?processQuestion@RegxParser@xercesc_3_1@@MEAAPEAVToken@2@QEAV32@@Z 000000001202a1f0 f   RegxParser.obj
 0001:0002934c       ?processParen@RegxParser@xercesc_3_1@@MEAAPEAVToken@2@XZ 000000001202a34c f   RegxParser.obj
 0001:000293f4       ?processBackReference@RegxParser@xercesc_3_1@@MEAAPEAVToken@2@XZ 000000001202a3f4 f   RegxParser.obj
 0001:000295d4       ?parseFactor@RegxParser@xercesc_3_1@@AEAAPEAVToken@2@XZ 000000001202a5d4 f   RegxParser.obj
 0001:000299a8       ?parseAtom@RegxParser@xercesc_3_1@@AEAAPEAVToken@2@XZ 000000001202a9a8 f   RegxParser.obj
 0001:00029c3c       ?processBacksolidus_pP@RegxParser@xercesc_3_1@@IEAAPEAVRangeToken@2@H@Z 000000001202ac3c f   RegxParser.obj
 0001:00029dc8       ?parseCharacterClass@RegxParser@xercesc_3_1@@IEAAPEAVRangeToken@2@_N@Z 000000001202adc8 f   RegxParser.obj
 0001:0002a3ec       ?getTokenForShorthand@RegxParser@xercesc_3_1@@IEAAPEAVRangeToken@2@H@Z 000000001202b3ec f   RegxParser.obj
 0001:0002a484       ?decodeEscaped@RegxParser@xercesc_3_1@@MEAAHXZ 000000001202b484 f   RegxParser.obj
 0001:0002a5f0       ?checkQuestion@RegxParser@xercesc_3_1@@MEAA_N_K@Z 000000001202b5f0 f   RegxParser.obj
 0001:0002a60c       ??1?$BaseRefVectorOf@VReferencePosition@RegxParser@xercesc_3_1@@@xercesc_3_1@@UEAA@XZ 000000001202b60c f i RegxParser.obj
 0001:0002a618       ?setElementAt@?$BaseRefVectorOf@VReferencePosition@RegxParser@xercesc_3_1@@@xercesc_3_1@@UEAAXQEAVReferencePosition@RegxParser@2@_K@Z 000000001202b618 f i RegxParser.obj
 0001:0002a6c4       ?removeAllElements@?$BaseRefVectorOf@VReferencePosition@RegxParser@xercesc_3_1@@@xercesc_3_1@@UEAAXXZ 000000001202b6c4 f i RegxParser.obj
 0001:0002a71c       ?removeElementAt@?$BaseRefVectorOf@VReferencePosition@RegxParser@xercesc_3_1@@@xercesc_3_1@@UEAAX_K@Z 000000001202b71c f i RegxParser.obj
 0001:0002a7f8       ?removeLastElement@?$BaseRefVectorOf@VReferencePosition@RegxParser@xercesc_3_1@@@xercesc_3_1@@UEAAXXZ 000000001202b7f8 f i RegxParser.obj
 0001:0002a834       ?cleanup@?$BaseRefVectorOf@VReferencePosition@RegxParser@xercesc_3_1@@@xercesc_3_1@@UEAAXXZ 000000001202b834 f i RegxParser.obj
 0001:0002a88c       ??_E?$BaseRefVectorOf@VReferencePosition@RegxParser@xercesc_3_1@@@xercesc_3_1@@UEAAPEAXI@Z 000000001202b88c f i  CIL library: CIL module
 0001:0002a88c       ??_G?$BaseRefVectorOf@VReferencePosition@RegxParser@xercesc_3_1@@@xercesc_3_1@@UEAAPEAXI@Z 000000001202b88c f i RegxParser.obj
 0001:0002a8bc       ??_G?$RefVectorOf@VReferencePosition@RegxParser@xercesc_3_1@@@xercesc_3_1@@UEAAPEAXI@Z 000000001202b8bc f i RegxParser.obj
 0001:0002a8bc       ??_E?$RefVectorOf@VReferencePosition@RegxParser@xercesc_3_1@@@xercesc_3_1@@UEAAPEAXI@Z 000000001202b8bc f i  CIL library: CIL module
 0001:0002a958       ?decomposeToSurrogates@RegxUtil@xercesc_3_1@@SAPEA_WHQEAVMemoryManager@2@@Z 000000001202b958 f   RegxUtil.obj
 0001:0002a9a4       ?stripExtendedComment@RegxUtil@xercesc_3_1@@SAPEA_WQEB_WQEAVMemoryManager@2@@Z 000000001202b9a4 f   RegxUtil.obj
 0001:0002ab10       ??_EStringToken@xercesc_3_1@@UEAAPEAXI@Z 000000001202bb10 f i StringToken.obj
 0001:0002ab84       ??0StringToken@xercesc_3_1@@QEAA@W4tokType@Token@1@QEB_WHQEAVMemoryManager@1@@Z 000000001202bb84 f   StringToken.obj
 0001:0002ac20       ??1StringToken@xercesc_3_1@@UEAA@XZ 000000001202bc20 f   StringToken.obj
 0001:0002ac60       ??_EToken@xercesc_3_1@@UEAAPEAXI@Z 000000001202bc60 f i Token.obj
 0001:0002acd4       ??0Token@xercesc_3_1@@QEAA@W4tokType@01@QEAVMemoryManager@1@@Z 000000001202bcd4 f   Token.obj
 0001:0002acec       ?getMinLength@Token@xercesc_3_1@@QEBA_KXZ 000000001202bcec f   Token.obj
 0001:0002ae84       ?getMaxLength@Token@xercesc_3_1@@QEBAHXZ 000000001202be84 f   Token.obj
 0001:0002b044       ?analyzeFirstCharacter@Token@xercesc_3_1@@QEAA?AW4firstCharacterOptions@12@QEAVRangeToken@2@HQEAVTokenFactory@2@@Z 000000001202c044 f   Token.obj
 0001:0002b298       ?findFixedString@Token@xercesc_3_1@@QEAAPEAV12@HAEAH@Z 000000001202c298 f   Token.obj
 0001:0002b388       ?isShorterThan@Token@xercesc_3_1@@AEAA_NQEAV12@@Z 000000001202c388 f   Token.obj
 0001:0002b420       ??0TokenFactory@xercesc_3_1@@QEAA@QEAVMemoryManager@1@@Z 000000001202c420 f   TokenFactory.obj
 0001:0002b49c       ?createToken@TokenFactory@xercesc_3_1@@QEAAPEAVToken@2@W4tokType@32@@Z 000000001202c49c f   TokenFactory.obj
 0001:0002b518       ?createParenthesis@TokenFactory@xercesc_3_1@@QEAAPEAVParenToken@2@QEAVToken@2@H@Z 000000001202c518 f   TokenFactory.obj
 0001:0002b598       ?createClosure@TokenFactory@xercesc_3_1@@QEAAPEAVClosureToken@2@QEAVToken@2@_N@Z 000000001202c598 f   TokenFactory.obj
 0001:0002b634       ?createConcat@TokenFactory@xercesc_3_1@@QEAAPEAVConcatToken@2@QEAVToken@2@0@Z 000000001202c634 f   TokenFactory.obj
 0001:0002b6b4       ?createUnion@TokenFactory@xercesc_3_1@@QEAAPEAVUnionToken@2@_N@Z 000000001202c6b4 f   TokenFactory.obj
 0001:0002b73c       ?createRange@TokenFactory@xercesc_3_1@@QEAAPEAVRangeToken@2@_N@Z 000000001202c73c f   TokenFactory.obj
 0001:0002b7e8       ?createChar@TokenFactory@xercesc_3_1@@QEAAPEAVCharToken@2@I_N@Z 000000001202c7e8 f   TokenFactory.obj
 0001:0002b878       ?createBackReference@TokenFactory@xercesc_3_1@@QEAAPEAVStringToken@2@H@Z 000000001202c878 f   TokenFactory.obj
 0001:0002b8f8       ?createString@TokenFactory@xercesc_3_1@@QEAAPEAVStringToken@2@QEB_W@Z 000000001202c8f8 f   TokenFactory.obj
 0001:0002b978       ?staticGetRange@TokenFactory@xercesc_3_1@@SAPEAVRangeToken@2@QEB_W_N@Z 000000001202c978 f   TokenFactory.obj
 0001:0002b98c       ?getLineBegin@TokenFactory@xercesc_3_1@@QEAAPEAVToken@2@XZ 000000001202c98c f   TokenFactory.obj
 0001:0002b9b8       ?getLineEnd@TokenFactory@xercesc_3_1@@QEAAPEAVToken@2@XZ 000000001202c9b8 f   TokenFactory.obj
 0001:0002b9e4       ?getDot@TokenFactory@xercesc_3_1@@QEAAPEAVToken@2@XZ 000000001202c9e4 f   TokenFactory.obj
 0001:0002ba0c       ??1?$BaseRefVectorOf@VToken@xercesc_3_1@@@xercesc_3_1@@UEAA@XZ 000000001202ca0c f i TokenFactory.obj
 0001:0002ba18       ??0?$RefVectorOf@VToken@xercesc_3_1@@@xercesc_3_1@@QEAA@_K_NQEAVMemoryManager@1@@Z 000000001202ca18 f i TokenFactory.obj
 0001:0002ba8c       ??_G?$BaseRefVectorOf@VToken@xercesc_3_1@@@xercesc_3_1@@UEAAPEAXI@Z 000000001202ca8c f i TokenFactory.obj
 0001:0002ba8c       ??_E?$BaseRefVectorOf@VToken@xercesc_3_1@@@xercesc_3_1@@UEAAPEAXI@Z 000000001202ca8c f i  CIL library: CIL module
 0001:0002babc       ??_G?$RefVectorOf@VToken@xercesc_3_1@@@xercesc_3_1@@UEAAPEAXI@Z 000000001202cabc f i TokenFactory.obj
 0001:0002babc       ??_E?$RefVectorOf@VToken@xercesc_3_1@@@xercesc_3_1@@UEAAPEAXI@Z 000000001202cabc f i  CIL library: CIL module
 0001:0002bb58       ??0UnicodeRangeFactory@xercesc_3_1@@QEAA@XZ 000000001202cb58 f   UnicodeRangeFactory.obj
 0001:0002bb6c       ?buildRanges@UnicodeRangeFactory@xercesc_3_1@@MEAAXPEAVRangeTokenMap@2@@Z 000000001202cb6c f   UnicodeRangeFactory.obj
 0001:0002bf3c       ?initializeKeywordMap@UnicodeRangeFactory@xercesc_3_1@@UEAAXPEAVRangeTokenMap@2@@Z 000000001202cf3c f   UnicodeRangeFactory.obj
 0001:0002c01c       ?getUniCategory@UnicodeRangeFactory@xercesc_3_1@@SAGG@Z 000000001202d01c f   UnicodeRangeFactory.obj
 0001:0002c088       ??_EUnionToken@xercesc_3_1@@UEAAPEAXI@Z 000000001202d088 f i UnionToken.obj
 0001:0002c0fc       ??0UnionToken@xercesc_3_1@@QEAA@W4tokType@Token@1@QEAVMemoryManager@1@@Z 000000001202d0fc f   UnionToken.obj
 0001:0002c118       ??1UnionToken@xercesc_3_1@@UEAA@XZ 000000001202d118 f   UnionToken.obj
 0001:0002c15c       ?addChild@UnionToken@xercesc_3_1@@UEAAXQEAVToken@2@QEAVTokenFactory@2@@Z 000000001202d15c f   UnionToken.obj
 0001:0002c4ac       ??0XMLRangeFactory@xercesc_3_1@@QEAA@XZ 000000001202d4ac f   XMLRangeFactory.obj
 0001:0002c4c0       ?buildRanges@XMLRangeFactory@xercesc_3_1@@MEAAXPEAVRangeTokenMap@2@@Z 000000001202d4c0 f   XMLRangeFactory.obj
 0001:0002ca24       ?initializeKeywordMap@XMLRangeFactory@xercesc_3_1@@UEAAXPEAVRangeTokenMap@2@@Z 000000001202da24 f   XMLRangeFactory.obj
 0001:0002cab4       ?getType@XMLUniCharacter@xercesc_3_1@@SAG_W@Z 000000001202dab4 f   XMLUniCharacter.obj
 0001:0002cac4       ??_EWindowsFileMgr@xercesc_3_1@@UEAAPEAXI@Z 000000001202dac4 f i  CIL library: CIL module
 0001:0002cac4       ??_GXMLFileMgr@xercesc_3_1@@UEAAPEAXI@Z 000000001202dac4 f i WindowsFileMgr.obj
 0001:0002cac4       ??_GWindowsFileMgr@xercesc_3_1@@UEAAPEAXI@Z 000000001202dac4 f i WindowsFileMgr.obj
 0001:0002cac4       ??_EXMLFileMgr@xercesc_3_1@@UEAAPEAXI@Z 000000001202dac4 f i  CIL library: CIL module
 0001:0002caf4       ?fileOpen@WindowsFileMgr@xercesc_3_1@@UEAAPEAXPEB_W_NQEAVMemoryManager@2@@Z 000000001202daf4 f   WindowsFileMgr.obj
 0001:0002cd3c       ?fileOpen@WindowsFileMgr@xercesc_3_1@@UEAAPEAXPEBD_NQEAVMemoryManager@2@@Z 000000001202dd3c f   WindowsFileMgr.obj
 0001:0002cdac       ?openStdIn@WindowsFileMgr@xercesc_3_1@@UEAAPEAXQEAVMemoryManager@2@@Z 000000001202ddac f   WindowsFileMgr.obj
 0001:0002cf10       ?fileClose@WindowsFileMgr@xercesc_3_1@@UEAAXPEAXQEAVMemoryManager@2@@Z 000000001202df10 f   WindowsFileMgr.obj
 0001:0002cfcc       ?fileReset@WindowsFileMgr@xercesc_3_1@@UEAAXPEAXQEAVMemoryManager@2@@Z 000000001202dfcc f   WindowsFileMgr.obj
 0001:0002d094       ?curPos@WindowsFileMgr@xercesc_3_1@@UEAA_KPEAXQEAVMemoryManager@2@@Z 000000001202e094 f   WindowsFileMgr.obj
 0001:0002d188       ?fileSize@WindowsFileMgr@xercesc_3_1@@UEAA_KPEAXQEAVMemoryManager@2@@Z 000000001202e188 f   WindowsFileMgr.obj
 0001:0002d274       ?fileRead@WindowsFileMgr@xercesc_3_1@@UEAA_KPEAX_KPEAEQEAVMemoryManager@2@@Z 000000001202e274 f   WindowsFileMgr.obj
 0001:0002d370       ?fileWrite@WindowsFileMgr@xercesc_3_1@@UEAAXPEAX_KPEBEQEAVMemoryManager@2@@Z 000000001202e370 f   WindowsFileMgr.obj
 0001:0002d498       ?getFullPath@WindowsFileMgr@xercesc_3_1@@UEAAPEA_WQEB_WQEAVMemoryManager@2@@Z 000000001202e498 f   WindowsFileMgr.obj
 0001:0002d5cc       ?getCurrentDirectory@WindowsFileMgr@xercesc_3_1@@UEAAPEA_WQEAVMemoryManager@2@@Z 000000001202e5cc f   WindowsFileMgr.obj
 0001:0002d6b4       ?isRelative@WindowsFileMgr@xercesc_3_1@@UEAA_NQEB_WQEAVMemoryManager@2@@Z 000000001202e6b4 f   WindowsFileMgr.obj
 0001:0002d700       ??_GWindowsMutexMgr@xercesc_3_1@@UEAAPEAXI@Z 000000001202e700 f i WindowsMutexMgr.obj
 0001:0002d700       ??_EWindowsMutexMgr@xercesc_3_1@@UEAAPEAXI@Z 000000001202e700 f i  CIL library: CIL module
 0001:0002d700       ??_EXMLMutexMgr@xercesc_3_1@@UEAAPEAXI@Z 000000001202e700 f i  CIL library: CIL module
 0001:0002d700       ??_GXMLMutexMgr@xercesc_3_1@@UEAAPEAXI@Z 000000001202e700 f i WindowsMutexMgr.obj
 0001:0002d730       ?create@WindowsMutexMgr@xercesc_3_1@@UEAAPEAXQEAVMemoryManager@2@@Z 000000001202e730 f   WindowsMutexMgr.obj
 0001:0002d75c       ?destroy@WindowsMutexMgr@xercesc_3_1@@UEAAXPEAXQEAVMemoryManager@2@@Z 000000001202e75c f   WindowsMutexMgr.obj
 0001:0002d78c       ?lock@WindowsMutexMgr@xercesc_3_1@@UEAAXPEAX@Z 000000001202e78c f   WindowsMutexMgr.obj
 0001:0002d798       ?unlock@WindowsMutexMgr@xercesc_3_1@@UEAAXPEAX@Z 000000001202e798 f   WindowsMutexMgr.obj
 0001:0002d7a4       ??1XMLFormatTarget@xercesc_3_1@@UEAA@XZ 000000001202e7a4 f i LocalFileFormatTarget.obj
 0001:0002d7b0       ??0XMLFormatTarget@xercesc_3_1@@IEAA@XZ 000000001202e7b0 f i LocalFileFormatTarget.obj
 0001:0002d7c0       ??_EXMLFormatTarget@xercesc_3_1@@UEAAPEAXI@Z 000000001202e7c0 f i LocalFileFormatTarget.obj
 0001:0002d834       ??0XMLCanRepGroup@xercesc_3_1@@QEAA@W4CanRepGroup@01@@Z 000000001202e834 f i XMLCanRepGroup.obj
 0001:0002d834       ??6XMLFormatter@xercesc_3_1@@QEAAAEAV01@W4EscapeFlags@01@@Z 000000001202e834 f i LocalFileFormatTarget.obj
 0001:0002d834       ??0XMLInteger@xercesc_3_1@@QEAA@H@Z 000000001202e834 f i DFAContentModel.obj
 0001:0002d83c       ??6XMLFormatter@xercesc_3_1@@QEAAAEAV01@W4UnRepFlags@01@@Z 000000001202e83c f i LocalFileFormatTarget.obj
 0001:0002d844       ?getResourceIdentifierType@XMLResourceIdentifier@xercesc_3_1@@QEBA?AW4ResourceIdentifierType@12@XZ 000000001202e844 f i DGXMLScanner.obj
 0001:0002d844       ?intValue@XMLInteger@xercesc_3_1@@QEBAHXZ 000000001202e844 f i DFAContentModel.obj
 0001:0002d844       ?getSign@XMLBigInteger@xercesc_3_1@@QEBAHXZ 000000001202e844 f i XMLBigDecimal.obj
 0001:0002d844       ?getGroup@XMLCanRepGroup@xercesc_3_1@@QEBA?AW4CanRepGroup@12@XZ 000000001202e844 f i XMLGrammarPoolImpl.obj
 0001:0002d844       ?getEscapeFlags@XMLFormatter@xercesc_3_1@@QEBA?AW4EscapeFlags@12@XZ 000000001202e844 f i LocalFileFormatTarget.obj
 0001:0002d844       ?getEmptyNamespaceId@ElemStack@xercesc_3_1@@QEAAIXZ 000000001202e844 f i XMLValidator.obj
 0001:0002d844       ?getMatcherCount@XPathMatcherStack@xercesc_3_1@@QEBA_KXZ 000000001202e844 f i IGXMLScanner.obj
 0001:0002d844       ?getCategoryId@RangeTokenElemMap@xercesc_3_1@@QEBAIXZ 000000001202e844 f i ASCIIRangeFactory.obj
 0001:0002d848       ??_ELocalFileFormatTarget@xercesc_3_1@@UEAAPEAXI@Z 000000001202e848 f i LocalFileFormatTarget.obj
 0001:0002d8bc       ??0LocalFileFormatTarget@xercesc_3_1@@QEAA@QEB_WQEAVMemoryManager@1@@Z 000000001202e8bc f   LocalFileFormatTarget.obj
 0001:0002d990       ??0LocalFileFormatTarget@xercesc_3_1@@QEAA@QEBDQEAVMemoryManager@1@@Z 000000001202e990 f   LocalFileFormatTarget.obj
 0001:0002da64       ??1LocalFileFormatTarget@xercesc_3_1@@UEAA@XZ 000000001202ea64 f   LocalFileFormatTarget.obj
 0001:0002dacc       ?flush@LocalFileFormatTarget@xercesc_3_1@@UEAAXXZ 000000001202eacc f   LocalFileFormatTarget.obj
 0001:0002daf8       ?writeChars@LocalFileFormatTarget@xercesc_3_1@@UEAAXQEBE_KQEAVXMLFormatter@2@@Z 000000001202eaf8 f   LocalFileFormatTarget.obj
 0001:0002dba8       ?ensureCapacity@LocalFileFormatTarget@xercesc_3_1@@AEAAX_K@Z 000000001202eba8 f   LocalFileFormatTarget.obj
 0001:0002dc24       ??_FInputSource@xercesc_3_1@@QEAAXXZ 000000001202ec24 f i LocalFileInputSource.obj
 0001:0002dc4c       ?setExternalElemDeclaration@XMLElementDecl@xercesc_3_1@@QEAAX_N@Z 000000001202ec4c f i XMLDTDDescription.obj
 0001:0002dc4c       ?setIssueFatalErrorIfNotFound@InputSource@xercesc_3_1@@UEAAX_N@Z 000000001202ec4c f i LocalFileInputSource.obj
 0001:0002dc4c       ?setCreateEntityReferenceNodes@AbstractDOMParser@xercesc_3_1@@QEAAX_N@Z 000000001202ec4c f i XSAnnotation.obj
 0001:0002dc4c       ?setLoadSchema@XMLScanner@xercesc_3_1@@QEAAX_N@Z 000000001202ec4c f i XMLValidator.obj
 0001:0002dc50       ??_ELocalFileInputSource@xercesc_3_1@@UEAAPEAXI@Z 000000001202ec50 f i LocalFileInputSource.obj
 0001:0002dccc       ??0LocalFileInputSource@xercesc_3_1@@QEAA@QEB_W0QEAVMemoryManager@1@@Z 000000001202eccc f   LocalFileInputSource.obj
 0001:0002ddc0       ??0LocalFileInputSource@xercesc_3_1@@QEAA@QEB_WQEAVMemoryManager@1@@Z 000000001202edc0 f   LocalFileInputSource.obj
 0001:0002df8c       ??1LocalFileInputSource@xercesc_3_1@@UEAA@XZ 000000001202ef8c f   LocalFileInputSource.obj
 0001:0002df9c       ?makeStream@LocalFileInputSource@xercesc_3_1@@UEBAPEAVBinInputStream@2@XZ 000000001202ef9c f   LocalFileInputSource.obj
 0001:0002e030       ??_FMemBufFormatTarget@xercesc_3_1@@QEAAXXZ 000000001202f030 f i MemBufFormatTarget.obj
 0001:0002e044       ??_EMemBufFormatTarget@xercesc_3_1@@UEAAPEAXI@Z 000000001202f044 f i MemBufFormatTarget.obj
 0001:0002e0b8       ??0MemBufFormatTarget@xercesc_3_1@@QEAA@_KQEAVMemoryManager@1@@Z 000000001202f0b8 f   MemBufFormatTarget.obj
 0001:0002e108       ??1MemBufFormatTarget@xercesc_3_1@@UEAA@XZ 000000001202f108 f   MemBufFormatTarget.obj
 0001:0002e148       ?writeChars@MemBufFormatTarget@xercesc_3_1@@UEAAXQEBE_KQEAVXMLFormatter@2@@Z 000000001202f148 f   MemBufFormatTarget.obj
 0001:0002e1a4       ?reset@MemBufFormatTarget@xercesc_3_1@@QEAAXXZ 000000001202f1a4 f   MemBufFormatTarget.obj
 0001:0002e1dc       ?ensureCapacity@MemBufFormatTarget@xercesc_3_1@@AEAAX_K@Z 000000001202f1dc f   MemBufFormatTarget.obj
 0001:0002e244       ??_EMemBufInputSource@xercesc_3_1@@UEAAPEAXI@Z 000000001202f244 f i MemBufInputSource.obj
 0001:0002e2b8       ??0MemBufInputSource@xercesc_3_1@@QEAA@QEBE_KQEB_W_NQEAVMemoryManager@1@@Z 000000001202f2b8 f   MemBufInputSource.obj
 0001:0002e310       ??0MemBufInputSource@xercesc_3_1@@QEAA@QEBE_KQEBD_NQEAVMemoryManager@1@@Z 000000001202f310 f   MemBufInputSource.obj
 0001:0002e368       ??1MemBufInputSource@xercesc_3_1@@UEAA@XZ 000000001202f368 f   MemBufInputSource.obj
 0001:0002e3a8       ?resetMemBufInputSource@MemBufInputSource@xercesc_3_1@@QEAAXQEBE_K@Z 000000001202f3a8 f   MemBufInputSource.obj
 0001:0002e3b4       ?makeStream@MemBufInputSource@xercesc_3_1@@UEBAPEAVBinInputStream@2@XZ 000000001202f3b4 f   MemBufInputSource.obj
 0001:0002e424       ??_FStdInInputSource@xercesc_3_1@@QEAAXXZ 000000001202f424 f i StdInInputSource.obj
 0001:0002e450       ??_EStdInInputSource@xercesc_3_1@@UEAAPEAXI@Z 000000001202f450 f i StdInInputSource.obj
 0001:0002e4cc       ??0StdInInputSource@xercesc_3_1@@QEAA@QEAVMemoryManager@1@@Z 000000001202f4cc f i StdInInputSource.obj
 0001:0002e4f8       ??1StdInInputSource@xercesc_3_1@@UEAA@XZ 000000001202f4f8 f i StdInInputSource.obj
 0001:0002e508       ?makeStream@StdInInputSource@xercesc_3_1@@UEBAPEAVBinInputStream@2@XZ 000000001202f508 f   StdInInputSource.obj
 0001:0002e59c       ??_EStdOutFormatTarget@xercesc_3_1@@UEAAPEAXI@Z 000000001202f59c f i StdOutFormatTarget.obj
 0001:0002e610       ??0StdOutFormatTarget@xercesc_3_1@@QEAA@XZ 000000001202f610 f   StdOutFormatTarget.obj
 0001:0002e620       ??1StdOutFormatTarget@xercesc_3_1@@UEAA@XZ 000000001202f620 f   StdOutFormatTarget.obj
 0001:0002e654       ?flush@StdOutFormatTarget@xercesc_3_1@@UEAAXXZ 000000001202f654 f   StdOutFormatTarget.obj
 0001:0002e670       ?writeChars@StdOutFormatTarget@xercesc_3_1@@UEAAXQEBE_KQEAVXMLFormatter@2@@Z 000000001202f670 f   StdOutFormatTarget.obj
 0001:0002e70c       ??_EURLInputSource@xercesc_3_1@@UEAAPEAXI@Z 000000001202f70c f i URLInputSource.obj
 0001:0002e780       ??0URLInputSource@xercesc_3_1@@QEAA@AEBVXMLURL@1@QEAVMemoryManager@1@@Z 000000001202f780 f   URLInputSource.obj
 0001:0002e7f4       ??0URLInputSource@xercesc_3_1@@QEAA@QEB_W0QEAVMemoryManager@1@@Z 000000001202f7f4 f   URLInputSource.obj
 0001:0002e86c       ??0URLInputSource@xercesc_3_1@@QEAA@QEB_W00QEAVMemoryManager@1@@Z 000000001202f86c f   URLInputSource.obj
 0001:0002e900       ??0URLInputSource@xercesc_3_1@@QEAA@QEB_WQEBDQEAVMemoryManager@1@@Z 000000001202f900 f   URLInputSource.obj
 0001:0002e978       ??0URLInputSource@xercesc_3_1@@QEAA@QEB_WQEBD1QEAVMemoryManager@1@@Z 000000001202f978 f   URLInputSource.obj
 0001:0002ea0c       ??1URLInputSource@xercesc_3_1@@UEAA@XZ 000000001202fa0c f   URLInputSource.obj
 0001:0002ea50       ?makeStream@URLInputSource@xercesc_3_1@@UEBAPEAVBinInputStream@2@XZ 000000001202fa50 f   URLInputSource.obj
 0001:0002ea5c       ??_EWrapper4DOMLSInput@xercesc_3_1@@UEAAPEAXI@Z 000000001202fa5c f i Wrapper4DOMLSInput.obj
 0001:0002ead0       ??0DOMLSInput@xercesc_3_1@@IEAA@XZ 000000001202fad0 f i Wrapper4DOMLSInput.obj
 0001:0002eae0       ??1DOMLSInput@xercesc_3_1@@UEAA@XZ 000000001202fae0 f i Wrapper4DOMLSInput.obj
 0001:0002eaec       ??_EDOMLSInput@xercesc_3_1@@UEAAPEAXI@Z 000000001202faec f i Wrapper4DOMLSInput.obj
 0001:0002eb58       ??0DOMLSResourceResolver@xercesc_3_1@@IEAA@XZ 000000001202fb58 f i Wrapper4DOMLSInput.obj
 0001:0002eb68       ??1DOMLSResourceResolver@xercesc_3_1@@UEAA@XZ 000000001202fb68 f i Wrapper4DOMLSInput.obj
 0001:0002eb74       ??_EDOMLSResourceResolver@xercesc_3_1@@UEAAPEAXI@Z 000000001202fb74 f i Wrapper4DOMLSInput.obj
 0001:0002ebe0       ??0Wrapper4DOMLSInput@xercesc_3_1@@QEAA@QEAVDOMLSInput@1@PEAVDOMLSResourceResolver@1@_NQEAVMemoryManager@1@@Z 000000001202fbe0 f   Wrapper4DOMLSInput.obj
 0001:0002ec80       ??1Wrapper4DOMLSInput@xercesc_3_1@@UEAA@XZ 000000001202fc80 f   Wrapper4DOMLSInput.obj
 0001:0002ecc8       ?getIssueFatalErrorIfNotFound@Wrapper4DOMLSInput@xercesc_3_1@@UEBA_NXZ 000000001202fcc8 f   Wrapper4DOMLSInput.obj
 0001:0002ecd4       ?getEncoding@Wrapper4DOMLSInput@xercesc_3_1@@UEBAPEB_WXZ 000000001202fcd4 f   Wrapper4DOMLSInput.obj
 0001:0002ecf0       ?getSystemId@Wrapper4DOMLSInput@xercesc_3_1@@UEBAPEB_WXZ 000000001202fcf0 f   Wrapper4DOMLSInput.obj
 0001:0002ecfc       ?getPublicId@Wrapper4DOMLSInput@xercesc_3_1@@UEBAPEB_WXZ 000000001202fcfc f   Wrapper4DOMLSInput.obj
 0001:0002ed08       ?setIssueFatalErrorIfNotFound@Wrapper4DOMLSInput@xercesc_3_1@@UEAAX_N@Z 000000001202fd08 f   Wrapper4DOMLSInput.obj
 0001:0002ed14       ?setEncoding@Wrapper4DOMLSInput@xercesc_3_1@@UEAAXQEB_W@Z 000000001202fd14 f   Wrapper4DOMLSInput.obj
 0001:0002ed20       ?setPublicId@Wrapper4DOMLSInput@xercesc_3_1@@UEAAXQEB_W@Z 000000001202fd20 f   Wrapper4DOMLSInput.obj
 0001:0002ed2c       ?setSystemId@Wrapper4DOMLSInput@xercesc_3_1@@UEAAXQEB_W@Z 000000001202fd2c f   Wrapper4DOMLSInput.obj
 0001:0002ed38       ?makeStream@Wrapper4DOMLSInput@xercesc_3_1@@UEBAPEAVBinInputStream@2@XZ 000000001202fd38 f   Wrapper4DOMLSInput.obj
 0001:0002efa0       ??_EWrapper4InputSource@xercesc_3_1@@UEAAPEAXI@Z 000000001202ffa0 f i Wrapper4InputSource.obj
 0001:0002f00c       ??0Wrapper4InputSource@xercesc_3_1@@QEAA@QEAVInputSource@1@_NQEAVMemoryManager@1@@Z 000000001203000c f   Wrapper4InputSource.obj
 0001:0002f084       ??1Wrapper4InputSource@xercesc_3_1@@UEAA@XZ 0000000012030084 f   Wrapper4InputSource.obj
 0001:0002f0d0       ?getIssueFatalErrorIfNotFound@Wrapper4InputSource@xercesc_3_1@@UEBA_NXZ 00000000120300d0 f   Wrapper4InputSource.obj
 0001:0002f0dc       ?getEncoding@Wrapper4InputSource@xercesc_3_1@@UEBAPEB_WXZ 00000000120300dc f   Wrapper4InputSource.obj
 0001:0002f0e8       ?getSystemId@Wrapper4InputSource@xercesc_3_1@@UEBAPEB_WXZ 00000000120300e8 f   Wrapper4InputSource.obj
 0001:0002f0e8       ?addCategory@RangeTokenMap@xercesc_3_1@@QEAAXQEB_W@Z 00000000120300e8 f   RangeTokenMap.obj
 0001:0002f0f4       ?getPublicId@Wrapper4InputSource@xercesc_3_1@@UEBAPEB_WXZ 00000000120300f4 f   Wrapper4InputSource.obj
 0001:0002f100       ?setIssueFatalErrorIfNotFound@Wrapper4InputSource@xercesc_3_1@@UEAAX_N@Z 0000000012030100 f   Wrapper4InputSource.obj
 0001:0002f10c       ?setEncoding@Wrapper4InputSource@xercesc_3_1@@UEAAXQEB_W@Z 000000001203010c f   Wrapper4InputSource.obj
 0001:0002f118       ?setPublicId@Wrapper4InputSource@xercesc_3_1@@UEAAXQEB_W@Z 0000000012030118 f   Wrapper4InputSource.obj
 0001:0002f124       ?setSystemId@Wrapper4InputSource@xercesc_3_1@@UEAAXQEB_W@Z 0000000012030124 f   Wrapper4InputSource.obj
 0001:0002f130       ??_FXMLAttDef@xercesc_3_1@@QEAAXXZ 0000000012030130 f i XMLAttDef.obj
 0001:0002f16c       ??_EXMLAttDef@xercesc_3_1@@UEAAPEAXI@Z 000000001203016c f i XMLAttDef.obj
 0001:0002f1e0       ?isDataConverted@XMLAbstractDoubleFloat@xercesc_3_1@@QEBA_NXZ 00000000120301e0 f i XMLAbstractDoubleFloat.obj
 0001:0002f1e0       ?isExternal@XMLAttDef@xercesc_3_1@@QEBA_NXZ 00000000120301e0 f i XMLAttDef.obj
 0001:0002f1e4       ?setTokenType@Token@xercesc_3_1@@QEAAXW4tokType@12@@Z 00000000120301e4 f i ASCIIRangeFactory.obj
 0001:0002f1e4       ?setDefaultType@XMLAttDef@xercesc_3_1@@QEAAXW4DefAttTypes@12@@Z 00000000120301e4 f i XMLAttDef.obj
 0001:0002f1e4       ?setFinalDefault@SchemaInfo@xercesc_3_1@@QEAAXH@Z 00000000120301e4 f i IGXMLScanner.obj
 0001:0002f1e8       ?setEnumeration@XMLAttDef@xercesc_3_1@@QEAAXQEB_W@Z 00000000120301e8 f i XMLAttDef.obj
 0001:0002f26c       ?setEntityHandler@ReaderMgr@xercesc_3_1@@QEAAXQEAVXMLEntityHandler@2@@Z 000000001203026c f i XMLValidator.obj
 0001:0002f26c       ?setId@XMLAttDef@xercesc_3_1@@QEAAX_K@Z 000000001203026c f i XMLAttDef.obj
 0001:0002f26c       ?setNextOp@Op@xercesc_3_1@@QEAAXQEBV12@@Z 000000001203026c f i Op.obj
 0001:0002f26c       ?setByteOffset@DOMLocatorImpl@xercesc_3_1@@QEAAX_K@Z 000000001203026c f i DOMLSParserImpl.obj
 0001:0002f26c       ?setDocTypeHandler@DTDScanner@xercesc_3_1@@QEAAXQEAVDocTypeHandler@2@@Z 000000001203026c f i DGXMLScanner.obj
 0001:0002f26c       ?setSchemaType@DOMConfigurationImpl@xercesc_3_1@@QEAAXPEB_W@Z 000000001203026c f i DOMConfigurationImpl.obj
 0001:0002f26c       ?setContentSpec@XercesGroupInfo@xercesc_3_1@@QEAAXQEAVContentSpecNode@2@@Z 000000001203026c f i XMLGrammarPoolImpl.obj
 0001:0002f274       ?setValue@XMLAttDef@xercesc_3_1@@QEAAXQEB_W@Z 0000000012030274 f i XMLAttDef.obj
 0001:0002f2f8       ?setExternalAttDeclaration@XMLAttDef@xercesc_3_1@@QEAAX_N@Z 00000000120302f8 f i XMLAttDef.obj
 0001:0002f2fc       ?getAttTypeString@XMLAttDef@xercesc_3_1@@SAPEB_WW4AttTypes@12@QEAVMemoryManager@2@@Z 00000000120302fc f   XMLAttDef.obj
 0001:0002f36c       ?getDefAttTypeString@XMLAttDef@xercesc_3_1@@SAPEB_WW4DefAttTypes@12@QEAVMemoryManager@2@@Z 000000001203036c f   XMLAttDef.obj
 0001:0002f3dc       ??1XMLAttDef@xercesc_3_1@@UEAA@XZ 00000000120303dc f   XMLAttDef.obj
 0001:0002f414       ??0XMLAttDef@xercesc_3_1@@IEAA@W4AttTypes@01@W4DefAttTypes@01@QEAVMemoryManager@1@@Z 0000000012030414 f   XMLAttDef.obj
 0001:0002f448       ??0XMLAttDef@xercesc_3_1@@IEAA@QEB_WW4AttTypes@01@W4DefAttTypes@01@0QEAVMemoryManager@1@@Z 0000000012030448 f   XMLAttDef.obj
 0001:0002f564       ?cleanUp@XMLAttDef@xercesc_3_1@@AEAAXXZ 0000000012030564 f   XMLAttDef.obj
 0001:0002f59c       ?getProtoType@XMLAttDef@xercesc_3_1@@UEBAPEAVXProtoType@2@XZ 000000001203059c f   XMLAttDef.obj
 0001:0002f5a4       ?serialize@XMLAttDef@xercesc_3_1@@UEAAXAEAVXSerializeEngine@2@@Z 00000000120305a4 f   XMLAttDef.obj
 0001:0002f6b8       ??_FXMLAttDefList@xercesc_3_1@@QEAAXXZ 00000000120306b8 f i XMLAttDefList.obj
 0001:0002f6d0       ??_EXMLAttDefList@xercesc_3_1@@UEAAPEAXI@Z 00000000120306d0 f i XMLAttDefList.obj
 0001:0002f6d0       ??_EXMLGrammarDescription@xercesc_3_1@@UEAAPEAXI@Z 00000000120306d0 f i XMLGrammarDescription.obj
 0001:0002f6d0       ??_EXMLDTDDescription@xercesc_3_1@@UEAAPEAXI@Z 00000000120306d0 f i XMLDTDDescription.obj
 0001:0002f6d0       ??_EXMLSchemaDescription@xercesc_3_1@@UEAAPEAXI@Z 00000000120306d0 f i XMLSchemaDescription.obj
 0001:0002f744       ??0XMLAttDefList@xercesc_3_1@@IEAA@QEAVMemoryManager@1@@Z 0000000012030744 f i XMLAttDefList.obj
 0001:0002f758       ?getProtoType@XMLAttDefList@xercesc_3_1@@UEBAPEAVXProtoType@2@XZ 0000000012030758 f   XMLAttDefList.obj
 0001:0002f760       ?getFinal@XSTypeDefinition@xercesc_3_1@@QEBAFXZ 0000000012030760 f i XMLAttr.obj
 0001:0002f768       ?getPrimitiveType@XSSimpleTypeDefinition@xercesc_3_1@@QEAAPEAV12@XZ 0000000012030768 f i XMLAttr.obj
 0001:0002f778       ?getItemType@XSSimpleTypeDefinition@xercesc_3_1@@QEAAPEAV12@XZ 0000000012030778 f i XMLAttr.obj
 0001:0002f788       ?getAnnotations@SchemaGrammar@xercesc_3_1@@QEAAPEAV?$RefHashTableOf@VXSAnnotation@xercesc_3_1@@UPtrHasher@2@@2@XZ 0000000012030788 f i XMLGrammarPoolImpl.obj
 0001:0002f788       ?getLocalName@DOMElementNSImpl@xercesc_3_1@@UEBAPEB_WXZ 0000000012030788 f i DOMElementNSImpl.obj
 0001:0002f788       ?getMaxInclusive@AbstractNumericFacetValidator@xercesc_3_1@@QEBAPEAVXMLNumber@2@XZ 0000000012030788 f i AbstractNumericFacetValidator.obj
 0001:0002f788       ?getAttDefList@ComplexTypeInfo@xercesc_3_1@@QEBAAEAVXMLAttDefList@2@XZ 0000000012030788 f i ComplexTypeInfo.obj
 0001:0002f788       ?getContentHandler@SAX2XMLReaderImpl@xercesc_3_1@@UEBAPEAVContentHandler@2@XZ 0000000012030788 f i SAX2XMLReaderImpl.obj
 0001:0002f788       ?getGrammarResolver@AbstractDOMParser@xercesc_3_1@@IEBAPEAVGrammarResolver@2@XZ 0000000012030788 f i XSAnnotation.obj
 0001:0002f788       ?getXmlEncoding@DOMEntityImpl@xercesc_3_1@@UEBAPEB_WXZ 0000000012030788 f i DOMEntityImpl.obj
 0001:0002f788       ?getMemberTypes@XSSimpleTypeDefinition@xercesc_3_1@@QEBAPEAV?$RefVectorOf@VXSSimpleTypeDefinition@xercesc_3_1@@@2@XZ 0000000012030788 f i XMLAttr.obj
 0001:0002f788       ?getEnumString@UnionDatatypeValidator@xercesc_3_1@@UEBAPEBV?$RefArrayVectorOf@_W@2@XZ 0000000012030788 f i UnionDatatypeValidator.obj
 0001:0002f788       ?getPublicId@DOMDocumentTypeImpl@xercesc_3_1@@UEBAPEB_WXZ 0000000012030788 f i DOMDocumentTypeImpl.obj
 0001:0002f788       ?getSubstitutionGroupElem@SchemaElementDecl@xercesc_3_1@@QEBAPEAV12@XZ 0000000012030788 f i XMLElementDecl.obj
 0001:0002f788       ?getAnnotations@SchemaGrammar@xercesc_3_1@@QEBAPEBV?$RefHashTableOf@VXSAnnotation@xercesc_3_1@@UPtrHasher@2@@2@XZ 0000000012030788 f i XMLGrammarPoolImpl.obj
 0001:0002f788       ?getEnumeration@UnionDatatypeValidator@xercesc_3_1@@AEBAPEAV?$RefArrayVectorOf@_W@2@XZ 0000000012030788 f i XMLElementDecl.obj
 0001:0002f788       ?getMaxLength@AbstractStringValidator@xercesc_3_1@@QEBA_KXZ 0000000012030788 f i XMLGrammarPoolImpl.obj
 0001:0002f790       ?getDefinedFacets@XSSimpleTypeDefinition@xercesc_3_1@@QEBAHXZ 0000000012030790 f i XMLAttr.obj
 0001:0002f790       ?getMinOccurs@ContentSpecNode@xercesc_3_1@@QEBAHXZ 0000000012030790 f i XMLGrammarPoolImpl.obj
 0001:0002f790       ?getEnclosingScope@SchemaElementDecl@xercesc_3_1@@QEBAIXZ 0000000012030790 f i XMLElementDecl.obj
 0001:0002f794       ?getFinalSet@SchemaElementDecl@xercesc_3_1@@QEBAHXZ 0000000012030794 f i XMLElementDecl.obj
 0001:0002f794       ?getFixedFacets@XSSimpleTypeDefinition@xercesc_3_1@@QEBAHXZ 0000000012030794 f i XMLAttr.obj
 0001:0002f794       ?getMaxOccurs@ContentSpecNode@xercesc_3_1@@QEBAHXZ 0000000012030794 f i XMLGrammarPoolImpl.obj
 0001:0002f798       ?setLength@AbstractStringValidator@xercesc_3_1@@IEAAX_K@Z 0000000012030798 f i XMLGrammarPoolImpl.obj
 0001:0002f798       ?setPrimitiveType@XSSimpleTypeDefinition@xercesc_3_1@@AEAAXQEAV12@@Z 0000000012030798 f i XMLAttr.obj
 0001:0002f7a0       ??1ValidationContext@xercesc_3_1@@UEAA@XZ 00000000120307a0 f i XMLAttr.obj
 0001:0002f7ac       ??0ValidationContext@xercesc_3_1@@IEAA@QEAVMemoryManager@1@@Z 00000000120307ac f i XMLAttr.obj
 0001:0002f7c0       ??_FValidationContext@xercesc_3_1@@QEAAXXZ 00000000120307c0 f i XMLAttr.obj
 0001:0002f7d8       ??_EValidationContext@xercesc_3_1@@UEAAPEAXI@Z 00000000120307d8 f i XMLAttr.obj
 0001:0002f84c       ?getWSFacet@DatatypeValidator@xercesc_3_1@@QEBAFXZ 000000001203084c f i XMLAttr.obj
 0001:0002f854       ?getAdoptContentSpec@ComplexTypeInfo@xercesc_3_1@@QEBA_NXZ 0000000012030854 f i XMLElementDecl.obj
 0001:0002f854       ?getBounded@DatatypeValidator@xercesc_3_1@@QEBA_NXZ 0000000012030854 f i XMLAttr.obj
 0001:0002f858       ?containsAttWithTypeId@ComplexTypeInfo@xercesc_3_1@@QEBA_NXZ 0000000012030858 f i XMLElementDecl.obj
 0001:0002f858       ?getNumeric@DatatypeValidator@xercesc_3_1@@QEBA_NXZ 0000000012030858 f i XMLAttr.obj
 0001:0002f85c       ?setWhiteSpace@DatatypeValidator@xercesc_3_1@@IEAAXF@Z 000000001203085c f i XMLAttr.obj
 0001:0002f864       ?setFacetsDefined@DatatypeValidator@xercesc_3_1@@IEAAXH@Z 0000000012030864 f i XMLAttr.obj
 0001:0002f868       ?setFixed@DatatypeValidator@xercesc_3_1@@IEAAXH@Z 0000000012030868 f i XMLAttr.obj
 0001:0002f86c       ?setPattern@DatatypeValidator@xercesc_3_1@@IEAAXPEB_W@Z 000000001203086c f i XMLAttr.obj
 0001:0002f94c       ?setAnonymous@DatatypeValidator@xercesc_3_1@@QEAAXXZ 000000001203094c f i XMLAttr.obj
 0001:0002f94c       ?setAnonymous@ComplexTypeInfo@xercesc_3_1@@QEAAXXZ 000000001203094c f i XMLElementDecl.obj
 0001:0002f954       ?setNumeric@DatatypeValidator@xercesc_3_1@@IEAAX_N@Z 0000000012030954 f i XMLAttr.obj
 0001:0002f954       ?setAttWithTypeId@ComplexTypeInfo@xercesc_3_1@@QEAAX_N@Z 0000000012030954 f i XMLElementDecl.obj
 0001:0002f958       ?isSubstitutableBy@DatatypeValidator@xercesc_3_1@@UEAA_NQEBV12@@Z 0000000012030958 f i XMLAttr.obj
 0001:0002f970       ??_FXMLAttr@xercesc_3_1@@QEAAXXZ 0000000012030970 f i XMLAttr.obj
 0001:0002f97c       ??1XMLAttr@xercesc_3_1@@QEAA@XZ 000000001203097c f i XMLAttr.obj
 0001:0002f984       ?getName@XMLAttr@xercesc_3_1@@QEBAPEB_WXZ 0000000012030984 f i XMLAttr.obj
 0001:0002f990       ?getPrefix@XMLAttr@xercesc_3_1@@QEBAPEB_WXZ 0000000012030990 f i XMLAttr.obj
 0001:0002f99c       ?getSpecified@XMLAttr@xercesc_3_1@@QEBA_NXZ 000000001203099c f i XMLAttr.obj
 0001:0002f9a0       ?getStorerLevel@XSerializeEngine@xercesc_3_1@@QEBAIXZ 00000000120309a0 f i KVStringPair.obj
 0001:0002f9a0       ?getBlockDefault@SchemaInfo@xercesc_3_1@@QEBAHXZ 00000000120309a0 f i IGXMLScanner.obj
 0001:0002f9a0       ?getType@XMLAttr@xercesc_3_1@@QEBA?AW4AttTypes@XMLAttDef@2@XZ 00000000120309a0 f i XMLAttr.obj
 0001:0002f9a4       ?getURIId@XMLAttr@xercesc_3_1@@QEBAIXZ 00000000120309a4 f i XMLAttr.obj
 0001:0002f9ac       ?set@XMLAttr@xercesc_3_1@@QEAAXIQEB_W00W4AttTypes@XMLAttDef@2@PEAVDatatypeValidator@2@_N@Z 00000000120309ac f i XMLAttr.obj
 0001:0002f9e4       ?set@XMLAttr@xercesc_3_1@@QEAAXIQEB_W0W4AttTypes@XMLAttDef@2@PEAVDatatypeValidator@2@_N@Z 00000000120309e4 f i XMLAttr.obj
 0001:0002fa28       ?setSpecified@XMLAttr@xercesc_3_1@@QEAAX_N@Z 0000000012030a28 f i XMLAttr.obj
 0001:0002fa2c       ??0XMLAttr@xercesc_3_1@@QEAA@QEAVMemoryManager@1@@Z 0000000012030a2c f   XMLAttr.obj
 0001:0002fabc       ??0XMLAttr@xercesc_3_1@@QEAA@IQEB_W00W4AttTypes@XMLAttDef@1@_NQEAVMemoryManager@1@PEAVDatatypeValidator@1@2@Z 0000000012030abc f   XMLAttr.obj
 0001:0002fb98       ??0XMLAttr@xercesc_3_1@@QEAA@IQEB_W0W4AttTypes@XMLAttDef@1@_NQEAVMemoryManager@1@PEAVDatatypeValidator@1@2@Z 0000000012030b98 f   XMLAttr.obj
 0001:0002fc68       ?getQName@XMLAttr@xercesc_3_1@@QEBAPEB_WXZ 0000000012030c68 f   XMLAttr.obj
 0001:0002fc74       ?setName@XMLAttr@xercesc_3_1@@QEAAXIQEB_W0@Z 0000000012030c74 f   XMLAttr.obj
 0001:0002fc88       ?setURIId@XMLAttr@xercesc_3_1@@QEAAXI@Z 0000000012030c88 f   XMLAttr.obj
 0001:0002fc90       ?setValue@XMLAttr@xercesc_3_1@@QEAAXQEB_W@Z 0000000012030c90 f   XMLAttr.obj
 0001:0002fd30       ?cleanUp@XMLAttr@xercesc_3_1@@AEAAXXZ 0000000012030d30 f   XMLAttr.obj
 0001:0002fd60       ?ensureCapacity@XMLBuffer@xercesc_3_1@@AEAAX_K@Z 0000000012030d60 f   XMLBuffer.obj
 0001:0002fe60       ??_FXMLBufferMgr@xercesc_3_1@@QEAAXXZ 0000000012030e60 f i XMLBufferMgr.obj
 0001:0002fe6c       ?getAvailableBufferCount@XMLBufferMgr@xercesc_3_1@@QEBA_KXZ 0000000012030e6c f i XMLBufferMgr.obj
 0001:0002fea0       ??0XMLBufferMgr@xercesc_3_1@@QEAA@QEAVMemoryManager@1@@Z 0000000012030ea0 f   XMLBufferMgr.obj
 0001:0002fef0       ??1XMLBufferMgr@xercesc_3_1@@QEAA@XZ 0000000012030ef0 f   XMLBufferMgr.obj
 0001:0002ff58       ?bidOnBuffer@XMLBufferMgr@xercesc_3_1@@QEAAAEAVXMLBuffer@2@XZ 0000000012030f58 f   XMLBufferMgr.obj
 0001:0003008c       ?releaseBuffer@XMLBufferMgr@xercesc_3_1@@QEAAXAEAVXMLBuffer@2@@Z 000000001203108c f   XMLBufferMgr.obj
 0001:00030110       ??1XMLContentModel@xercesc_3_1@@UEAA@XZ 0000000012031110 f i XMLContentModel.obj
 0001:0003011c       ??0XMLContentModel@xercesc_3_1@@IEAA@XZ 000000001203111c f i XMLContentModel.obj
 0001:0003012c       ??_EXMLContentModel@xercesc_3_1@@UEAAPEAXI@Z 000000001203112c f i XMLContentModel.obj
 0001:000301a0       ??_FXMLElementDecl@xercesc_3_1@@QEAAXXZ 00000000120311a0 f i XMLDTDDescription.obj
 0001:000301cc       ?getBaseName@XMLElementDecl@xercesc_3_1@@QEBAPEB_WXZ 00000000120311cc f i XMLDTDDescription.obj
 0001:000301cc       ?getBaseName@XMLElementDecl@xercesc_3_1@@QEAAPEA_WXZ 00000000120311cc f i XMLDTDDescription.obj
 0001:000301d8       ?getURI@XMLElementDecl@xercesc_3_1@@QEBAIXZ 00000000120311d8 f i XMLDTDDescription.obj
 0001:000301e0       ?isDeclared@XMLElementDecl@xercesc_3_1@@QEBA_NXZ 00000000120311e0 f i XMLDTDDescription.obj
 0001:000301e8       ??_FXMLEntityDecl@xercesc_3_1@@QEAAXXZ 00000000120311e8 f i XMLDTDDescription.obj
 0001:00030224       ?isExternal@XMLEntityDecl@xercesc_3_1@@QEBA_NXZ 0000000012031224 f i XMLDTDDescription.obj
 0001:00030228       ?setId@XMLNotationDecl@xercesc_3_1@@QEAAX_K@Z 0000000012031228 f i XMLDTDDescription.obj
 0001:00030228       ?setEntityExpansionLimit@SecurityManager@xercesc_3_1@@UEAAX_K@Z 0000000012031228 f i XMLValidator.obj
 0001:00030228       ?setByteStream@DOMLSOutputImpl@xercesc_3_1@@UEAAXPEAVXMLFormatTarget@2@@Z 0000000012031228 f i DOMLSOutputImpl.obj
 0001:00030228       ?setLineNumber@DOMLocatorImpl@xercesc_3_1@@QEAAX_K@Z 0000000012031228 f i DOMLSParserImpl.obj
 0001:00030228       ?setMatcherStack@FieldActivator@xercesc_3_1@@QEAAXQEAVXPathMatcherStack@2@@Z 0000000012031228 f i FieldActivator.obj
 0001:00030228       ?setId@XMLEntityDecl@xercesc_3_1@@QEAAX_K@Z 0000000012031228 f i XMLDTDDescription.obj
 0001:00030228       ?setOwnerDocument@DOMParentNode@xercesc_3_1@@QEAAXPEAVDOMDocument@2@@Z 0000000012031228 f i DOMParentNode.obj
 0001:00030230       ?setIsExternal@XMLEntityDecl@xercesc_3_1@@QEAAX_N@Z 0000000012031230 f i XMLDTDDescription.obj
 0001:00030234       ?setNotationName@XMLEntityDecl@xercesc_3_1@@QEAAXQEB_W@Z 0000000012031234 f i XMLDTDDescription.obj
 0001:000302b8       ?setPublicId@XMLEntityDecl@xercesc_3_1@@QEAAXQEB_W@Z 00000000120312b8 f i XMLDTDDescription.obj
 0001:0003033c       ?setSystemId@XMLEntityDecl@xercesc_3_1@@QEAAXQEB_W@Z 000000001203133c f i XMLDTDDescription.obj
 0001:000303c0       ?setBaseURI@XMLEntityDecl@xercesc_3_1@@QEAAXQEB_W@Z 00000000120313c0 f i XMLDTDDescription.obj
 0001:00030444       ?setValue@XMLEntityDecl@xercesc_3_1@@QEAAXQEB_W@Z 0000000012031444 f i XMLDTDDescription.obj
 0001:000304fc       ??_FXMLNotationDecl@xercesc_3_1@@QEAAXXZ 00000000120314fc f i XMLDTDDescription.obj
 0001:0003052c       ?setPublicId@XMLNotationDecl@xercesc_3_1@@QEAAXQEB_W@Z 000000001203152c f i XMLDTDDescription.obj
 0001:000305b0       ?setSystemId@XMLNotationDecl@xercesc_3_1@@QEAAXQEB_W@Z 00000000120315b0 f i XMLDTDDescription.obj
 0001:00030634       ?setBaseURI@XMLNotationDecl@xercesc_3_1@@QEAAXQEB_W@Z 0000000012031634 f i XMLDTDDescription.obj
 0001:000306b8       ??0Grammar@xercesc_3_1@@IEAA@XZ 00000000120316b8 f i XMLDTDDescription.obj
 0001:000306c8       ??_FXMLGrammarDescription@xercesc_3_1@@QEAAXXZ 00000000120316c8 f i XMLDTDDescription.obj
 0001:000306e0       ??_FXMLDTDDescription@xercesc_3_1@@QEAAXXZ 00000000120316e0 f i XMLDTDDescription.obj
 0001:000306f8       ??0XMLDTDDescription@xercesc_3_1@@IEAA@QEAVMemoryManager@1@@Z 00000000120316f8 f   XMLDTDDescription.obj
 0001:0003070c       ?getProtoType@XMLDTDDescription@xercesc_3_1@@UEBAPEAVXProtoType@2@XZ 000000001203170c f   XMLDTDDescription.obj
 0001:00030714       ??_EXMLElementDecl@xercesc_3_1@@UEAAPEAXI@Z 0000000012031714 f i XMLElementDecl.obj
 0001:00030788       ??_FUnionDatatypeValidator@xercesc_3_1@@QEAAXXZ 0000000012031788 f i XMLElementDecl.obj
 0001:000307f0       ?newInstance@UnionDatatypeValidator@xercesc_3_1@@UEAAPEAVDatatypeValidator@2@QEAV?$RefHashTableOf@VKVStringPair@xercesc_3_1@@UStringHasher@2@@2@QEAV?$RefArrayVectorOf@_W@2@HQEAVMemoryManager@2@@Z 00000000120317f0 f i XMLElementDecl.obj
 0001:00030884       ?validate@UnionDatatypeValidator@xercesc_3_1@@UEAAXQEB_WQEAVValidationContext@2@QEAVMemoryManager@2@@Z 0000000012031884 f i XMLElementDecl.obj
 0001:00030884       ?validate@BooleanDatatypeValidator@xercesc_3_1@@UEAAXQEB_WQEAVValidationContext@2@QEAVMemoryManager@2@@Z 0000000012031884 f i BooleanDatatypeValidator.obj
 0001:0003089c       ?cleanUp@UnionDatatypeValidator@xercesc_3_1@@AEAAXXZ 000000001203189c f i XMLElementDecl.obj
 0001:000308e0       ?setEnumeration@UnionDatatypeValidator@xercesc_3_1@@AEAAXPEAV?$RefArrayVectorOf@_W@2@_N@Z 00000000120318e0 f i XMLElementDecl.obj
 0001:00030934       ?isAtomic@UnionDatatypeValidator@xercesc_3_1@@UEBA_NXZ 0000000012031934 f i XMLElementDecl.obj
 0001:00030994       ?isSubstitutableBy@UnionDatatypeValidator@xercesc_3_1@@UEAA_NQEBVDatatypeValidator@2@@Z 0000000012031994 f i XMLElementDecl.obj
 0001:00030a2c       ??_FSchemaAttDef@xercesc_3_1@@QEAAXXZ 0000000012031a2c f i XMLElementDecl.obj
 0001:00030a80       ?getAnnotation@XSModelGroup@xercesc_3_1@@QEBAPEAVXSAnnotation@2@XZ 0000000012031a80 f i XSModelGroup.obj
 0001:00030a80       ?getMemoryManager@XMLNotationDecl@xercesc_3_1@@QEBAPEAVMemoryManager@2@XZ 0000000012031a80 f i XMLDTDDescription.obj
 0001:00030a80       ?getElemId@DTDAttDef@xercesc_3_1@@QEBA_KXZ 0000000012031a80 f i XMLElementDecl.obj
 0001:00030a80       ?getKey@IC_KeyRef@xercesc_3_1@@QEBAPEAVIdentityConstraint@2@XZ 0000000012031a80 f i XSIDCDefinition.obj
 0001:00030a80       ?getAnnotation@XSAttributeDeclaration@xercesc_3_1@@QEBAPEAVXSAnnotation@2@XZ 0000000012031a80 f i PSVIAttributeList.obj
 0001:00030a80       ?getSystemId@XMLEntityDecl@xercesc_3_1@@QEBAPEB_WXZ 0000000012031a80 f i XMLDTDDescription.obj
 0001:00030a80       ?getAttributes@XMLSchemaDescriptionImpl@xercesc_3_1@@UEBAPEBVXMLAttDef@2@XZ 0000000012031a80 f i XMLSchemaDescriptionImpl.obj
 0001:00030a80       ?getMaxOccurs@XSParticle@xercesc_3_1@@QEBA_KXZ 0000000012031a80 f i XSComplexTypeDefinition.obj
 0001:00030a80       ?getAttributeWildcard@XSAttributeGroupDefinition@xercesc_3_1@@QEBAPEAVXSWildcard@2@XZ 0000000012031a80 f i XSAttributeGroupDefinition.obj
 0001:00030a80       ?getPattern@DatatypeValidator@xercesc_3_1@@IEBAPEB_WXZ 0000000012031a80 f i XMLAttr.obj
 0001:00030a80       ?getTypeDefinition@XSElementDeclaration@xercesc_3_1@@QEBAPEAVXSTypeDefinition@2@XZ 0000000012031a80 f i PSVIElement.obj
 0001:00030a80       ?getAttrDeclaration@XSAttributeUse@xercesc_3_1@@QEBAPEAVXSAttributeDeclaration@2@XZ 0000000012031a80 f i XSAttributeGroupDefinition.obj
 0001:00030a80       ?getAnnotation@XSWildcard@xercesc_3_1@@QEBAPEAVXSAnnotation@2@XZ 0000000012031a80 f i XSComplexTypeDefinition.obj
 0001:00030a80       ?getTypeLocalName@ComplexTypeInfo@xercesc_3_1@@QEBAPEB_WXZ 0000000012031a80 f i XMLElementDecl.obj
 0001:00030a80       ?getFieldStrs@XSIDCDefinition@xercesc_3_1@@QEAAPEAV?$RefArrayVectorOf@_W@2@XZ 0000000012031a80 f i XSElementDeclaration.obj
 0001:00030a80       ?getDTDHandler@SAX2XMLFilterImpl@xercesc_3_1@@UEBAPEAVDTDHandler@2@XZ 0000000012031a80 f i SAX2XMLFilterImpl.obj
 0001:00030a80       ?getAnnotation@XSFacet@xercesc_3_1@@QEBAPEAVXSAnnotation@2@XZ 0000000012031a80 f i XSFacet.obj
 0001:00030a80       ?getComplexTypeRegistry@SchemaGrammar@xercesc_3_1@@QEBAPEAV?$RefHashTableOf@VComplexTypeInfo@xercesc_3_1@@UStringHasher@2@@2@XZ 0000000012031a80 f i XMLGrammarPoolImpl.obj
 0001:00030a80       ?getAnnotations@XSMultiValueFacet@xercesc_3_1@@QEAAPEAV?$RefVectorOf@VXSAnnotation@xercesc_3_1@@@2@XZ 0000000012031a80 f i XSMultiValueFacet.obj
 0001:00030a80       ?getElemId@SchemaAttDef@xercesc_3_1@@QEBA_KXZ 0000000012031a80 f i XMLElementDecl.obj
 0001:00030a80       ?getAnnotation@XSModelGroupDefinition@xercesc_3_1@@QEBAPEAVXSAnnotation@2@XZ 0000000012031a80 f i XSModel.obj
 0001:00030a80       ?getNext@XSAnnotation@xercesc_3_1@@QEAAPEAV12@XZ 0000000012031a80 f i XSAnnotation.obj
 0001:00030a80       ?getTarget@DOMProcessingInstructionImpl@xercesc_3_1@@UEBAPEB_WXZ 0000000012031a80 f i DOMProcessingInstructionImpl.obj
 0001:00030a80       ?getIdentityConstraint@XPathMatcher@xercesc_3_1@@QEBAPEAVIdentityConstraint@2@XZ 0000000012031a80 f i XMLElementDecl.obj
 0001:00030a80       ?getQueryString@XMLUri@xercesc_3_1@@QEBAPEB_WXZ 0000000012031a80 f i XMLString.obj
 0001:00030a80       ?getQuery@XMLURL@xercesc_3_1@@QEBAPEB_WXZ 0000000012031a80 f i PlatformUtils.obj
 0001:00030a80       ?getNodeName@DOMProcessingInstructionImpl@xercesc_3_1@@UEBAPEB_WXZ 0000000012031a80 f i DOMProcessingInstructionImpl.obj
 0001:00030a88       ?resetNamespaceList@SchemaAttDef@xercesc_3_1@@QEAAXXZ 0000000012031a88 f i XMLElementDecl.obj
 0001:00030aa0       ?setNamespaceList@SchemaAttDef@xercesc_3_1@@QEAAXQEBV?$ValueVectorOf@I@2@@Z 0000000012031aa0 f i XMLElementDecl.obj
 0001:00030b98       ?setBaseAttDecl@SchemaAttDef@xercesc_3_1@@QEAAXQEAV12@@Z 0000000012031b98 f i XMLElementDecl.obj
 0001:00030b98       ?setEntityRef@DOMEntityImpl@xercesc_3_1@@UEAAXPEAVDOMEntityReference@2@@Z 0000000012031b98 f i DOMEntityImpl.obj
 0001:00030ba0       ??_FComplexTypeInfo@xercesc_3_1@@QEAAXXZ 0000000012031ba0 f i XMLElementDecl.obj
 0001:00030bac       ?getUsed@XMLRefInfo@xercesc_3_1@@QEBA_NXZ 0000000012031bac f i XMLGrammarPoolImpl.obj
 0001:00030bac       ?getFinite@DatatypeValidator@xercesc_3_1@@QEBA_NXZ 0000000012031bac f i XMLAttr.obj
 0001:00030bac       ?getAbstract@ComplexTypeInfo@xercesc_3_1@@QEBA_NXZ 0000000012031bac f i XMLElementDecl.obj
 0001:00030bb0       ?getPreprocessed@ComplexTypeInfo@xercesc_3_1@@QEBA_NXZ 0000000012031bb0 f i XMLElementDecl.obj
 0001:00030bb4       ?getMax@ClosureToken@xercesc_3_1@@UEBAHXZ 0000000012031bb4 f i ClosureToken.obj
 0001:00030bb4       ?getScopeDefined@ComplexTypeInfo@xercesc_3_1@@QEBAIXZ 0000000012031bb4 f i XMLElementDecl.obj
 0001:00030bb4       ?getType@DatatypeValidator@xercesc_3_1@@QEBA?AW4ValidatorType@12@XZ 0000000012031bb4 f i XMLAttr.obj
 0001:00030bb8       ?elementCount@ComplexTypeInfo@xercesc_3_1@@QEBA_KXZ 0000000012031bb8 f i XMLElementDecl.obj
 0001:00030bc8       ?getAttDef@ComplexTypeInfo@xercesc_3_1@@QEAAPEAVSchemaAttDef@2@QEB_WH@Z 0000000012031bc8 f i XMLElementDecl.obj
 0001:00030bc8       ?getAttDef@ComplexTypeInfo@xercesc_3_1@@QEBAPEBVSchemaAttDef@2@QEB_WH@Z 0000000012031bc8 f i XMLElementDecl.obj
 0001:00030bf0       ?elementAt@ComplexTypeInfo@xercesc_3_1@@QEAAPEAVSchemaElementDecl@2@_K@Z 0000000012031bf0 f i XMLElementDecl.obj
 0001:00030bf0       ?elementAt@ComplexTypeInfo@xercesc_3_1@@QEBAPEBVSchemaElementDecl@2@_K@Z 0000000012031bf0 f i XMLElementDecl.obj
 0001:00030c04       ?getContentModel@ComplexTypeInfo@xercesc_3_1@@QEAAPEAVXMLContentModel@2@_N@Z 0000000012031c04 f i XMLElementDecl.obj
 0001:00030c38       ?getScanner@SAXParser@xercesc_3_1@@IEBAAEBVXMLScanner@2@XZ 0000000012031c38 f i SAX2XMLReaderImpl.obj
 0001:00030c38       ?getLocator@ComplexTypeInfo@xercesc_3_1@@QEBAPEAVXSDLocator@2@XZ 0000000012031c38 f i XMLElementDecl.obj
 0001:00030c38       ?getEntityHandler@XMLScanner@xercesc_3_1@@QEAAPEAVXMLEntityHandler@2@XZ 0000000012031c38 f i XMLValidator.obj
 0001:00030c38       ?getEntityHandler@XMLScanner@xercesc_3_1@@QEBAPEBVXMLEntityHandler@2@XZ 0000000012031c38 f i XMLValidator.obj
 0001:00030c38       ?getDTDHandler@SAX2XMLReaderImpl@xercesc_3_1@@UEBAPEAVDTDHandler@2@XZ 0000000012031c38 f i SAX2XMLReaderImpl.obj
 0001:00030c40       ?setAdoptContentSpec@ComplexTypeInfo@xercesc_3_1@@QEAAX_N@Z 0000000012031c40 f i XMLElementDecl.obj
 0001:00030c40       ?setBounded@DatatypeValidator@xercesc_3_1@@IEAAX_N@Z 0000000012031c40 f i XMLAttr.obj
 0001:00030c44       ?setPreprocessed@ComplexTypeInfo@xercesc_3_1@@QEAAX_N@Z 0000000012031c44 f i XMLElementDecl.obj
 0001:00030c48       ?setOptions@RegxParser@xercesc_3_1@@QEAAXH@Z 0000000012031c48 f i ParserForXMLSchema.obj
 0001:00030c48       ?setBlockSet@ComplexTypeInfo@xercesc_3_1@@QEAAXH@Z 0000000012031c48 f i XMLElementDecl.obj
 0001:00030c4c       ?setCreateReason@XMLElementDecl@xercesc_3_1@@QEAAXW4CreateReasons@12@@Z 0000000012031c4c f i XMLDTDDescription.obj
 0001:00030c4c       ?setMin@ClosureToken@xercesc_3_1@@UEAAXH@Z 0000000012031c4c f i ClosureToken.obj
 0001:00030c4c       ?setUnRepFlags@XMLFormatter@xercesc_3_1@@QEAAXW4UnRepFlags@12@@Z 0000000012031c4c f i LocalFileFormatTarget.obj
 0001:00030c4c       ?setFinalSet@ComplexTypeInfo@xercesc_3_1@@QEAAXH@Z 0000000012031c4c f i XMLElementDecl.obj
 0001:00030c50       ?setOrdered@DatatypeValidator@xercesc_3_1@@IEAAXW4ORDERING@XSSimpleTypeDefinition@2@@Z 0000000012031c50 f i XMLAttr.obj
 0001:00030c50       ?setURI@QName@xercesc_3_1@@QEAAXI@Z 0000000012031c50 f i QName.obj
 0001:00030c50       ?setContentType@ComplexTypeInfo@xercesc_3_1@@QEAAXH@Z 0000000012031c50 f i XMLElementDecl.obj
 0001:00030c54       ?setTypeName@ComplexTypeInfo@xercesc_3_1@@QEAAXQEB_W@Z 0000000012031c54 f i XMLElementDecl.obj
 0001:00030dbc       ?setBaseComplexTypeInfo@ComplexTypeInfo@xercesc_3_1@@QEAAXQEAV12@@Z 0000000012031dbc f i XMLElementDecl.obj
 0001:00030dc4       ?addElement@ComplexTypeInfo@xercesc_3_1@@QEAAXQEAVSchemaElementDecl@2@@Z 0000000012031dc4 f i XMLElementDecl.obj
 0001:00030e68       ?setAttWildCard@SchemaElementDecl@xercesc_3_1@@QEAAXQEAVSchemaAttDef@2@@Z 0000000012031e68 f i XMLElementDecl.obj
 0001:00030e68       ?setAttWildCard@ComplexTypeInfo@xercesc_3_1@@QEAAXQEAVSchemaAttDef@2@@Z 0000000012031e68 f i XMLElementDecl.obj
 0001:00030e9c       ?hasAttDefs@ComplexTypeInfo@xercesc_3_1@@QEBA_NXZ 0000000012031e9c f i XMLElementDecl.obj
 0001:00030eb0       ?contains@ComplexTypeInfo@xercesc_3_1@@QEAA_NQEB_W@Z 0000000012031eb0 f i XMLElementDecl.obj
 0001:00030f78       ?getGroupInfoRegistry@SchemaGrammar@xercesc_3_1@@QEBAPEAV?$RefHashTableOf@VXercesGroupInfo@xercesc_3_1@@UStringHasher@2@@2@XZ 0000000012031f78 f i XMLGrammarPoolImpl.obj
 0001:00030f78       ?getFragment@XMLUri@xercesc_3_1@@QEBAPEB_WXZ 0000000012031f78 f i XMLString.obj
 0001:00030f78       ?getEntityResolver@SAX2XMLFilterImpl@xercesc_3_1@@UEBAPEAVEntityResolver@2@XZ 0000000012031f78 f i SAX2XMLFilterImpl.obj
 0001:00030f78       ?getAnnotations@XSIDCDefinition@xercesc_3_1@@QEAAPEAV?$RefVectorOf@VXSAnnotation@xercesc_3_1@@@2@XZ 0000000012031f78 f i XSIDCDefinition.obj
 0001:00030f78       ?getBaseURI@XMLEntityDecl@xercesc_3_1@@QEBAPEB_WXZ 0000000012031f78 f i XMLDTDDescription.obj
 0001:00030f78       ?getString@Context@RegularExpression@xercesc_3_1@@QEBAPEB_WXZ 0000000012031f78 f i RegularExpression.obj
 0001:00030f78       ?getSystemId@XSAnnotation@xercesc_3_1@@QEBAPEB_WXZ 0000000012031f78 f i XMLGrammarPoolImpl.obj
 0001:00030f78       ?getMemoryManager@QName@xercesc_3_1@@QEBAPEAVMemoryManager@2@XZ 0000000012031f78 f i QName.obj
 0001:00030f78       ?getTypeUri@ComplexTypeInfo@xercesc_3_1@@QEBAPEB_WXZ 0000000012031f78 f i XMLElementDecl.obj
 0001:00030f78       ?getAnnotation@XSAttributeGroupDefinition@xercesc_3_1@@QEBAPEAVXSAnnotation@2@XZ 0000000012031f78 f i XSAttributeGroupDefinition.obj
 0001:00030f78       ?getFullName@DTDAttDef@xercesc_3_1@@UEBAPEB_WXZ 0000000012031f78 f i XMLElementDecl.obj
 0001:00030f78       ?getRegex@DatatypeValidator@xercesc_3_1@@IEBAPEAVRegularExpression@2@XZ 0000000012031f78 f i XMLAttr.obj
 0001:00030f78       ?getMemoryManager@XPathMatcher@xercesc_3_1@@QEBAPEAVMemoryManager@2@XZ 0000000012031f78 f i XMLElementDecl.obj
 0001:00030f78       ?getTypeDefinition@PSVIElement@xercesc_3_1@@UEAAPEAVXSTypeDefinition@2@XZ 0000000012031f78 f i PSVIElement.obj
 0001:00030f78       ?getNodeName@DOMEntityImpl@xercesc_3_1@@UEBAPEB_WXZ 0000000012031f78 f i DOMEntityImpl.obj
 0001:00030f78       ?getUser@XMLURL@xercesc_3_1@@QEBAPEB_WXZ 0000000012031f78 f i PlatformUtils.obj
 0001:00030f78       ?getName@DOMAttrImpl@xercesc_3_1@@UEBAPEB_WXZ 0000000012031f78 f i DOMAttrImpl.obj
 0001:00030f78       ?getEnclosingCTDefinition@XSElementDeclaration@xercesc_3_1@@QEBAPEAVXSComplexTypeDefinition@2@XZ 0000000012031f78 f i PSVIElement.obj
 0001:00030f78       ?getNodeName@DOMAttrImpl@xercesc_3_1@@UEBAPEB_WXZ 0000000012031f78 f i DOMAttrImpl.obj
 0001:00030f78       ?getAttributeWildcard@XSComplexTypeDefinition@xercesc_3_1@@QEBAPEAVXSWildcard@2@XZ 0000000012031f78 f i PSVIElement.obj
 0001:00030f78       ?getTypeDefinition@PSVIAttribute@xercesc_3_1@@UEAAPEAVXSTypeDefinition@2@XZ 0000000012031f78 f i PSVIAttribute.obj
 0001:00030f80       ?cleanUp@XPathMatcher@xercesc_3_1@@AEAAXXZ 0000000012031f80 f i XMLElementDecl.obj
 0001:00030fcc       ??_FIC_Field@xercesc_3_1@@QEAAXXZ 0000000012031fcc f i XMLElementDecl.obj
 0001:00030fe4       ??1FieldMatcher@xercesc_3_1@@UEAA@XZ 0000000012031fe4 f i XMLElementDecl.obj
 0001:00030ff4       ??_EFieldMatcher@xercesc_3_1@@UEAAPEAXI@Z 0000000012031ff4 f i XMLElementDecl.obj
 0001:00031070       ?getNamespaceURI@IdentityConstraint@xercesc_3_1@@QEBAHXZ 0000000012032070 f i XMLElementDecl.obj
 0001:00031070       ?getState@RegxParser@xercesc_3_1@@QEBA?AW4parserState@12@XZ 0000000012032070 f i ParserForXMLSchema.obj
 0001:00031070       ?getValidity@PSVIItem@xercesc_3_1@@QEBA?AW4VALIDITY_STATE@12@XZ 0000000012032070 f i PSVIAttribute.obj
 0001:00031070       ?getModelType@DTDElementDecl@xercesc_3_1@@QEBA?AW4ModelTypes@12@XZ 0000000012032070 f i XMLElementDecl.obj
 0001:00031070       ?getType@ContentSpecNode@xercesc_3_1@@QEBA?AW4NodeTypes@12@XZ 0000000012032070 f i XMLGrammarPoolImpl.obj
 0001:00031074       ?updateValidity@PSVIAttribute@xercesc_3_1@@QEAAXW4VALIDITY_STATE@PSVIItem@2@@Z 0000000012032074 f i PSVIAttribute.obj
 0001:00031074       ?setValidity@PSVIItem@xercesc_3_1@@QEAAXW4VALIDITY_STATE@12@@Z 0000000012032074 f i PSVIItem.obj
 0001:00031074       ?setModelType@SchemaElementDecl@xercesc_3_1@@QEAAXW4ModelTypes@12@@Z 0000000012032074 f i XMLElementDecl.obj
 0001:00031074       ?setType@ContentSpecNode@xercesc_3_1@@QEAAXW4NodeTypes@12@@Z 0000000012032074 f i XMLGrammarPoolImpl.obj
 0001:00031074       ?setModelType@DTDElementDecl@xercesc_3_1@@QEAAXW4ModelTypes@12@@Z 0000000012032074 f i XMLElementDecl.obj
 0001:00031074       ?setNamespaceURI@IdentityConstraint@xercesc_3_1@@QEAAXH@Z 0000000012032074 f i XMLElementDecl.obj
 0001:00031078       ?addField@IdentityConstraint@xercesc_3_1@@QEAAXQEAVIC_Field@2@@Z 0000000012032078 f i XMLElementDecl.obj
 0001:000310f0       ?getFieldAt@IdentityConstraint@xercesc_3_1@@QEBAPEBVIC_Field@2@_K@Z 00000000120320f0 f i XMLElementDecl.obj
 0001:000310f0       ?anyAttributeAt@XercesAttGroupInfo@xercesc_3_1@@QEBAPEBVSchemaAttDef@2@_K@Z 00000000120320f0 f i XMLGrammarPoolImpl.obj
 0001:000310f0       ?anyAttributeAt@XercesAttGroupInfo@xercesc_3_1@@QEAAPEAVSchemaAttDef@2@_K@Z 00000000120320f0 f i XMLGrammarPoolImpl.obj
 0001:000310f0       ?getFieldAt@IdentityConstraint@xercesc_3_1@@QEAAPEAVIC_Field@2@_K@Z 00000000120320f0 f i XMLElementDecl.obj
 0001:00031104       ??_FSchemaElementDecl@xercesc_3_1@@QEAAXXZ 0000000012032104 f i XMLElementDecl.obj
 0001:00031164       ?getContentSpec@SchemaElementDecl@xercesc_3_1@@UEAAPEAVContentSpecNode@2@XZ 0000000012032164 f i XMLElementDecl.obj
 0001:00031164       ?getContentSpec@SchemaElementDecl@xercesc_3_1@@UEBAPEBVContentSpecNode@2@XZ 0000000012032164 f i XMLElementDecl.obj
 0001:00031174       ?getContentModel@SchemaElementDecl@xercesc_3_1@@UEAAPEAVXMLContentModel@2@XZ 0000000012032174 f i XMLElementDecl.obj
 0001:000311b8       ?getModelType@SchemaElementDecl@xercesc_3_1@@QEBA?AW4ModelTypes@12@XZ 00000000120321b8 f i XMLElementDecl.obj
 0001:000311cc       ?getMiscFlags@SchemaElementDecl@xercesc_3_1@@QEBAHXZ 00000000120321cc f i XMLElementDecl.obj
 0001:000311d0       ?isGlobalDecl@SchemaElementDecl@xercesc_3_1@@UEBA_NXZ 00000000120321d0 f i XMLElementDecl.obj
 0001:000311d8       ?setDatatypeValidator@SchemaElementDecl@xercesc_3_1@@QEAAXPEAVDatatypeValidator@2@@Z 00000000120321d8 f i XMLElementDecl.obj
 0001:000311d8       ?setMinLength@AbstractStringValidator@xercesc_3_1@@IEAAX_K@Z 00000000120321d8 f i XMLGrammarPoolImpl.obj
 0001:000311e0       ?setMinOccurs@ContentSpecNode@xercesc_3_1@@QEAAXH@Z 00000000120321e0 f i XMLGrammarPoolImpl.obj
 0001:000311e0       ?setEnclosingScope@SchemaElementDecl@xercesc_3_1@@QEAAXI@Z 00000000120321e0 f i XMLElementDecl.obj
 0001:000311e4       ?setMaxOccurs@ContentSpecNode@xercesc_3_1@@QEAAXH@Z 00000000120321e4 f i XMLGrammarPoolImpl.obj
 0001:000311e4       ?setFinalSet@SchemaElementDecl@xercesc_3_1@@QEAAXH@Z 00000000120321e4 f i XMLElementDecl.obj
 0001:000311e8       ?setPSVIScope@SchemaAttDef@xercesc_3_1@@QEAAXW4PSVIScope@PSVIDefs@2@@Z 00000000120321e8 f i XMLElementDecl.obj
 0001:000311e8       ?setBlockSet@SchemaElementDecl@xercesc_3_1@@QEAAXH@Z 00000000120321e8 f i XMLElementDecl.obj
 0001:000311ec       ?setMiscFlags@SchemaElementDecl@xercesc_3_1@@QEAAXH@Z 00000000120321ec f i XMLElementDecl.obj
 0001:000311f0       ?setDefaultValue@SchemaElementDecl@xercesc_3_1@@QEAAXQEB_W@Z 00000000120321f0 f i XMLElementDecl.obj
 0001:00031274       ?setValidSubstitutionGroups@SchemaGrammar@xercesc_3_1@@QEAAXQEAV?$RefHash2KeysTableOf@V?$ValueVectorOf@PEAVSchemaElementDecl@xercesc_3_1@@@xercesc_3_1@@UStringHasher@2@@2@@Z 0000000012032274 f i XMLGrammarPoolImpl.obj
 0001:00031274       ?setComplexTypeInfo@SchemaElementDecl@xercesc_3_1@@QEAAXQEAVComplexTypeInfo@2@@Z 0000000012032274 f i XMLElementDecl.obj
 0001:00031274       ?setDatatypeValidator@SchemaAttDef@xercesc_3_1@@QEAAXPEAVDatatypeValidator@2@@Z 0000000012032274 f i XMLElementDecl.obj
 0001:00031274       ?setDatatypeValidator@ComplexTypeInfo@xercesc_3_1@@QEAAXQEAVDatatypeValidator@2@@Z 0000000012032274 f i XMLElementDecl.obj
 0001:0003127c       ?addIdentityConstraint@SchemaElementDecl@xercesc_3_1@@QEAAXQEAVIdentityConstraint@2@@Z 000000001203227c f i XMLElementDecl.obj
 0001:000312f4       ?getIdentityConstraintCount@SchemaElementDecl@xercesc_3_1@@QEBA_KXZ 00000000120322f4 f i XMLElementDecl.obj
 0001:00031304       ?getIdentityConstraintAt@SchemaElementDecl@xercesc_3_1@@QEBAPEAVIdentityConstraint@2@_K@Z 0000000012032304 f i XMLElementDecl.obj
 0001:00031318       ??_FDTDAttDef@xercesc_3_1@@QEAAXXZ 0000000012032318 f i XMLElementDecl.obj
 0001:0003135c       ?setComplexTypeRegistry@SchemaGrammar@xercesc_3_1@@QEAAXQEAV?$RefHashTableOf@VComplexTypeInfo@xercesc_3_1@@UStringHasher@2@@2@@Z 000000001203235c f i XMLGrammarPoolImpl.obj
 0001:0003135c       ?setAttributes@XMLSchemaDescriptionImpl@xercesc_3_1@@UEAAXQEAVXMLAttDef@2@@Z 000000001203235c f i XMLSchemaDescriptionImpl.obj
 0001:0003135c       ?setDTDHandler@SAX2XMLFilterImpl@xercesc_3_1@@UEAAXQEAVDTDHandler@2@@Z 000000001203235c f i SAX2XMLFilterImpl.obj
 0001:0003135c       ?setScanner@ValidationContextImpl@xercesc_3_1@@UEAAXPEAVXMLScanner@2@@Z 000000001203235c f i ValidationContextImpl.obj
 0001:0003135c       ?setCaseInsensitiveToken@RangeToken@xercesc_3_1@@QEAAXPEAV12@@Z 000000001203235c f i ASCIIRangeFactory.obj
 0001:0003135c       ?setElemId@DTDAttDef@xercesc_3_1@@QEAAX_K@Z 000000001203235c f i XMLElementDecl.obj
 0001:0003135c       ?setGrammarResolver@SchemaValidator@xercesc_3_1@@QEAAXPEAVGrammarResolver@2@@Z 000000001203235c f i IGXMLScanner.obj
 0001:0003135c       ?setTypeDefinition@XSElementDeclaration@xercesc_3_1@@QEAAXPEAVXSTypeDefinition@2@@Z 000000001203235c f i PSVIElement.obj
 0001:0003135c       ?setElemId@SchemaAttDef@xercesc_3_1@@QEAAX_K@Z 000000001203235c f i XMLElementDecl.obj
 0001:00031364       ??_FDTDElementDecl@xercesc_3_1@@QEAAXXZ 0000000012032364 f i XMLElementDecl.obj
 0001:000313ac       ?getContentModel@DTDElementDecl@xercesc_3_1@@UEAAPEAVXMLContentModel@2@XZ 00000000120323ac f i XMLElementDecl.obj
 0001:000313d0       ?setContentModel@DTDElementDecl@xercesc_3_1@@UEAAXQEAVXMLContentModel@2@@Z 00000000120323d0 f i XMLElementDecl.obj
 0001:0003141c       ?getFullName@XMLElementDecl@xercesc_3_1@@QEBAPEB_WXZ 000000001203241c f i XMLDTDDescription.obj
 0001:0003141c       ?getKey@DTDElementDecl@xercesc_3_1@@QEBAPEB_WXZ 000000001203241c f i XMLElementDecl.obj
 0001:00031428       ??1XMLElementDecl@xercesc_3_1@@UEAA@XZ 0000000012032428 f   XMLElementDecl.obj
 0001:0003146c       ?setElementName@XMLElementDecl@xercesc_3_1@@QEAAXQEB_W0H@Z 000000001203246c f   XMLElementDecl.obj
 0001:0003150c       ?setElementName@XMLElementDecl@xercesc_3_1@@QEAAXQEB_WH@Z 000000001203250c f   XMLElementDecl.obj
 0001:00031594       ?setElementName@XMLElementDecl@xercesc_3_1@@QEAAXQEBVQName@2@@Z 0000000012032594 f   XMLElementDecl.obj
 0001:00031608       ??0XMLElementDecl@xercesc_3_1@@IEAA@QEAVMemoryManager@1@@Z 0000000012032608 f   XMLElementDecl.obj
 0001:00031630       ?getProtoType@XMLElementDecl@xercesc_3_1@@UEBAPEAVXProtoType@2@XZ 0000000012032630 f   XMLElementDecl.obj
 0001:00031638       ?serialize@XMLElementDecl@xercesc_3_1@@UEAAXAEAVXSerializeEngine@2@@Z 0000000012032638 f   XMLElementDecl.obj
 0001:000316cc       ?storeElementDecl@XMLElementDecl@xercesc_3_1@@SAXAEAVXSerializeEngine@2@QEAV12@@Z 00000000120326cc f   XMLElementDecl.obj
 0001:00031718       ?loadElementDecl@XMLElementDecl@xercesc_3_1@@SAPEAV12@AEAVXSerializeEngine@2@@Z 0000000012032718 f   XMLElementDecl.obj
 0001:00031760       ??1?$XMLEnumerator@VSchemaAttDef@xercesc_3_1@@@xercesc_3_1@@UEAA@XZ 0000000012032760 f i XMLElementDecl.obj
 0001:0003176c       ??_G?$XMLEnumerator@VSchemaAttDef@xercesc_3_1@@@xercesc_3_1@@UEAAPEAXI@Z 000000001203276c f i XMLElementDecl.obj
 0001:0003176c       ??_E?$XMLEnumerator@VSchemaAttDef@xercesc_3_1@@@xercesc_3_1@@UEAAPEAXI@Z 000000001203276c f i  CIL library: CIL module
 0001:00031794       ??0?$ValueVectorOf@I@xercesc_3_1@@QEAA@AEBV01@@Z 0000000012032794 f i XMLElementDecl.obj
 0001:0003181c       ??1?$BaseRefVectorOf@VSchemaElementDecl@xercesc_3_1@@@xercesc_3_1@@UEAA@XZ 000000001203281c f i XMLElementDecl.obj
 0001:00031828       ??0?$RefVectorOf@VSchemaElementDecl@xercesc_3_1@@@xercesc_3_1@@QEAA@_K_NQEAVMemoryManager@1@@Z 0000000012032828 f i XMLElementDecl.obj
 0001:0003189c       ??0?$RefHash2KeysTableOfEnumerator@VSchemaAttDef@xercesc_3_1@@UStringHasher@2@@xercesc_3_1@@QEAA@QEAV?$RefHash2KeysTableOf@VSchemaAttDef@xercesc_3_1@@UStringHasher@2@@1@_NQEAVMemoryManager@1@@Z 000000001203289c f i XMLElementDecl.obj
 0001:00031934       ??1?$RefHash2KeysTableOfEnumerator@VSchemaAttDef@xercesc_3_1@@UStringHasher@2@@xercesc_3_1@@UEAA@XZ 0000000012032934 f i XMLElementDecl.obj
 0001:0003197c       ??1?$BaseRefVectorOf@VIC_Field@xercesc_3_1@@@xercesc_3_1@@UEAA@XZ 000000001203297c f i XMLElementDecl.obj
 0001:00031988       ??0?$RefVectorOf@VIC_Field@xercesc_3_1@@@xercesc_3_1@@QEAA@_K_NQEAVMemoryManager@1@@Z 0000000012032988 f i XMLElementDecl.obj
 0001:000319fc       ??1?$BaseRefVectorOf@VIdentityConstraint@xercesc_3_1@@@xercesc_3_1@@UEAA@XZ 00000000120329fc f i XMLElementDecl.obj
 0001:00031a08       ??0?$RefVectorOf@VIdentityConstraint@xercesc_3_1@@@xercesc_3_1@@QEAA@_K_NQEAVMemoryManager@1@@Z 0000000012032a08 f i XMLElementDecl.obj
 0001:00031a7c       ??_G?$BaseRefVectorOf@VSchemaElementDecl@xercesc_3_1@@@xercesc_3_1@@UEAAPEAXI@Z 0000000012032a7c f i XMLElementDecl.obj
 0001:00031a7c       ??_E?$BaseRefVectorOf@VSchemaElementDecl@xercesc_3_1@@@xercesc_3_1@@UEAAPEAXI@Z 0000000012032a7c f i  CIL library: CIL module
 0001:00031aac       ??_G?$RefVectorOf@VSchemaElementDecl@xercesc_3_1@@@xercesc_3_1@@UEAAPEAXI@Z 0000000012032aac f i XMLElementDecl.obj
 0001:00031aac       ??_E?$RefVectorOf@VSchemaElementDecl@xercesc_3_1@@@xercesc_3_1@@UEAAPEAXI@Z 0000000012032aac f i  CIL library: CIL module
 0001:00031b48       ??_E?$RefHash2KeysTableOfEnumerator@VSchemaAttDef@xercesc_3_1@@UStringHasher@2@@xercesc_3_1@@UEAAPEAXI@Z 0000000012032b48 f i  CIL library: CIL module
 0001:00031b48       ??_G?$RefHash2KeysTableOfEnumerator@VSchemaAttDef@xercesc_3_1@@UStringHasher@2@@xercesc_3_1@@UEAAPEAXI@Z 0000000012032b48 f i XMLElementDecl.obj
 0001:00031b84       ??_G?$RefHash2KeysTableOf@VSchemaAttDef@xercesc_3_1@@UStringHasher@2@@xercesc_3_1@@QEAAPEAXI@Z 0000000012032b84 f i XMLElementDecl.obj
 0001:00031c38       ??_E?$BaseRefVectorOf@VIC_Field@xercesc_3_1@@@xercesc_3_1@@UEAAPEAXI@Z 0000000012032c38 f i  CIL library: CIL module
 0001:00031c38       ??_G?$BaseRefVectorOf@VIC_Field@xercesc_3_1@@@xercesc_3_1@@UEAAPEAXI@Z 0000000012032c38 f i XMLElementDecl.obj
 0001:00031c68       ??_G?$RefVectorOf@VIC_Field@xercesc_3_1@@@xercesc_3_1@@UEAAPEAXI@Z 0000000012032c68 f i XMLElementDecl.obj
 0001:00031c68       ??_E?$RefVectorOf@VIC_Field@xercesc_3_1@@@xercesc_3_1@@UEAAPEAXI@Z 0000000012032c68 f i  CIL library: CIL module
 0001:00031d04       ??_G?$BaseRefVectorOf@VIdentityConstraint@xercesc_3_1@@@xercesc_3_1@@UEAAPEAXI@Z 0000000012032d04 f i XMLElementDecl.obj
 0001:00031d04       ??_E?$BaseRefVectorOf@VIdentityConstraint@xercesc_3_1@@@xercesc_3_1@@UEAAPEAXI@Z 0000000012032d04 f i  CIL library: CIL module
 0001:00031d34       ??_E?$RefVectorOf@VIdentityConstraint@xercesc_3_1@@@xercesc_3_1@@UEAAPEAXI@Z 0000000012032d34 f i  CIL library: CIL module
 0001:00031d34       ??_G?$RefVectorOf@VIdentityConstraint@xercesc_3_1@@@xercesc_3_1@@UEAAPEAXI@Z 0000000012032d34 f i XMLElementDecl.obj
 0001:00031dd0       ?findBucketElem@?$RefHash2KeysTableOf@VIdentityConstraint@xercesc_3_1@@UStringHasher@2@@xercesc_3_1@@AEAAPEAU?$RefHash2KeysTableBucketElem@VIdentityConstraint@xercesc_3_1@@@2@QEBXHAEA_K@Z 0000000012032dd0 f i TraverseSchema.obj
 0001:00031dd0       ?findBucketElem@?$RefHash2KeysTableOf@V?$ValueVectorOf@PEAVSchemaElementDecl@xercesc_3_1@@@xercesc_3_1@@UStringHasher@2@@xercesc_3_1@@AEAAPEAU?$RefHash2KeysTableBucketElem@V?$ValueVectorOf@PEAVSchemaElementDecl@xercesc_3_1@@@xercesc_3_1@@@2@QEBXHAEA_K@Z 0000000012032dd0 f i XTemplateSerializer.obj
 0001:00031dd0       ?findBucketElem@?$RefHash2KeysTableOf@VSchemaAttDef@xercesc_3_1@@UStringHasher@2@@xercesc_3_1@@AEAAPEAU?$RefHash2KeysTableBucketElem@VSchemaAttDef@xercesc_3_1@@@2@QEBXHAEA_K@Z 0000000012032dd0 f i XMLElementDecl.obj
 0001:00031dd0       ?findBucketElem@?$RefHash2KeysTableOf@_WUStringHasher@xercesc_3_1@@@xercesc_3_1@@AEAAPEAU?$RefHash2KeysTableBucketElem@_W@2@QEBXHAEA_K@Z 0000000012032dd0 f i TraverseSchema.obj
 0001:00031dd0       ?findBucketElem@?$RefHash2KeysTableOf@VSchemaInfo@xercesc_3_1@@UStringHasher@2@@xercesc_3_1@@AEAAPEAU?$RefHash2KeysTableBucketElem@VSchemaInfo@xercesc_3_1@@@2@QEBXHAEA_K@Z 0000000012032dd0 f i IGXMLScanner2.obj
 0001:00031eb4       ??_EXMLEntityDecl@xercesc_3_1@@UEAAPEAXI@Z 0000000012032eb4 f i XMLEntityDecl.obj
 0001:00031f28       ??0XMLEntityDecl@xercesc_3_1@@QEAA@QEAVMemoryManager@1@@Z 0000000012032f28 f   XMLEntityDecl.obj
 0001:00031f60       ??0XMLEntityDecl@xercesc_3_1@@QEAA@QEB_WQEAVMemoryManager@1@@Z 0000000012032f60 f   XMLEntityDecl.obj
 0001:00032014       ??0XMLEntityDecl@xercesc_3_1@@QEAA@QEB_W0QEAVMemoryManager@1@@Z 0000000012033014 f   XMLEntityDecl.obj
 0001:0003215c       ??0XMLEntityDecl@xercesc_3_1@@QEAA@QEB_W_WQEAVMemoryManager@1@@Z 000000001203315c f   XMLEntityDecl.obj
 0001:0003227c       ??1XMLEntityDecl@xercesc_3_1@@UEAA@XZ 000000001203327c f   XMLEntityDecl.obj
 0001:000322b4       ?setName@XMLEntityDecl@xercesc_3_1@@QEAAXQEB_W@Z 00000000120332b4 f   XMLEntityDecl.obj
 0001:00032338       ?cleanUp@XMLEntityDecl@xercesc_3_1@@AEAAXXZ 0000000012033338 f   XMLEntityDecl.obj
 0001:0003239c       ?getNoParen@Token@xercesc_3_1@@UEBAHXZ 000000001203339c f   ASCIIRangeFactory.obj
 0001:0003239c       ?getParentNode@DOMEntityImpl@xercesc_3_1@@UEBAPEAVDOMNode@2@XZ 000000001203339c f   DOMEntityImpl.obj
 0001:0003239c       ?getLocalName@DOMEntityImpl@xercesc_3_1@@UEBAPEB_WXZ 000000001203339c f   DOMEntityImpl.obj
 0001:0003239c       ?getStringData@Wrapper4InputSource@xercesc_3_1@@UEBAPEB_WXZ 000000001203339c f   Wrapper4InputSource.obj
 0001:0003239c       ?getPreviousSibling@DOMEntityImpl@xercesc_3_1@@UEBAPEAVDOMNode@2@XZ 000000001203339c f   DOMEntityImpl.obj
 0001:0003239c       ?getPrefix@DOMNodeImpl@xercesc_3_1@@QEBAPEB_WXZ 000000001203339c f   DOMNodeImpl.obj
 0001:0003239c       ?getNamespaceURI@DOMDocumentTypeImpl@xercesc_3_1@@UEBAPEB_WXZ 000000001203339c f   DOMDocumentTypeImpl.obj
 0001:0003239c       ?getPrefix@DOMEntityReferenceImpl@xercesc_3_1@@UEBAPEB_WXZ 000000001203339c f   DOMEntityReferenceImpl.obj
 0001:0003239c       ?getAttributes@DOMDocumentFragmentImpl@xercesc_3_1@@UEBAPEAVDOMNamedNodeMap@2@XZ 000000001203339c f   DOMDocumentFragmentImpl.obj
 0001:0003239c       ?resolveSystemId@XMLScanner@xercesc_3_1@@MEAAPEAVInputSource@2@QEB_W0@Z 000000001203339c f   XMLValidator.obj
 0001:0003239c       ?getLocalName@DOMElementImpl@xercesc_3_1@@UEBAPEB_WXZ 000000001203339c f   DOMElementImpl.obj
 0001:0003239c       ?getPrefix@DOMElementImpl@xercesc_3_1@@UEBAPEB_WXZ 000000001203339c f   DOMElementImpl.obj
 0001:0003239c       ?getLocalName@DOMDocumentTypeImpl@xercesc_3_1@@UEBAPEB_WXZ 000000001203339c f   DOMDocumentTypeImpl.obj
 0001:0003239c       ?getFeature@DOMEntityImpl@xercesc_3_1@@UEBAPEAXPEB_W0@Z 000000001203339c f   DOMEntityImpl.obj
 0001:0003239c       ?getPrefix@DOMCDATASectionImpl@xercesc_3_1@@UEBAPEB_WXZ 000000001203339c f   DOMCDATASectionImpl.obj
 0001:0003239c       ?getFirstChild@DOMCDATASectionImpl@xercesc_3_1@@UEBAPEAVDOMNode@2@XZ 000000001203339c f   DOMCDATASectionImpl.obj
 0001:0003239c       ?getPrefix@DOMDocumentTypeImpl@xercesc_3_1@@UEBAPEB_WXZ 000000001203339c f   DOMDocumentTypeImpl.obj
 0001:0003239c       ?getLocalName@DOMProcessingInstructionImpl@xercesc_3_1@@UEBAPEB_WXZ 000000001203339c f   DOMProcessingInstructionImpl.obj
 0001:0003239c       ?getNamespaceURI@DOMProcessingInstructionImpl@xercesc_3_1@@UEBAPEB_WXZ 000000001203339c f   DOMProcessingInstructionImpl.obj
 0001:0003239c       ?getLocalName@DOMDocumentImpl@xercesc_3_1@@UEBAPEB_WXZ 000000001203339c f   DOMDocumentImpl.obj
 0001:0003239c       ?getLastChild@DOMCDATASectionImpl@xercesc_3_1@@UEBAPEAVDOMNode@2@XZ 000000001203339c f   DOMCDATASectionImpl.obj
 0001:0003239c       ?getNamespaceURI@DOMTextImpl@xercesc_3_1@@UEBAPEB_WXZ 000000001203339c f   DOMTextImpl.obj
 0001:0003239c       ?getParentNode@DOMAttrImpl@xercesc_3_1@@UEBAPEAVDOMNode@2@XZ 000000001203339c f   DOMAttrImpl.obj
 0001:0003239c       ?getRelatedException@DOMErrorImpl@xercesc_3_1@@UEBAPEAXXZ 000000001203339c f   DOMLSParserImpl.obj
 0001:0003239c       ?getContentLeafNameTypeVector@SimpleContentModel@xercesc_3_1@@UEBAPEAVContentLeafNameTypeVector@2@XZ 000000001203339c f   SimpleContentModel.obj
 0001:0003239c       ?getEntityDeclPool@WFXMLScanner@xercesc_3_1@@UEBAPEBV?$NameIdPool@VDTDEntityDecl@xercesc_3_1@@@2@XZ 000000001203339c f   WFXMLScanner.obj
 0001:0003239c       ?createObject@DateTimeValidator@xercesc_3_1@@SAPEAVXSerializable@2@PEAVMemoryManager@2@@Z 000000001203339c f   DateTimeValidator.obj
 0001:0003239c       ?getFirstChild@DOMCommentImpl@xercesc_3_1@@UEBAPEAVDOMNode@2@XZ 000000001203339c f   DOMCommentImpl.obj
 0001:0003239c       ?getType@IC_Unique@xercesc_3_1@@UEBAFXZ 000000001203339c f   TraverseSchema.obj
 0001:0003239c       ?getLocalName@DOMNodeImpl@xercesc_3_1@@QEBAPEB_WXZ 000000001203339c f   DOMNodeImpl.obj
 0001:0003239c       ?getFeature@DOMElementImpl@xercesc_3_1@@UEBAPEAXPEB_W0@Z 000000001203339c f   DOMElementImpl.obj
 0001:0003239c       ?getGrammarType@DTDGrammar@xercesc_3_1@@UEBA?AW4GrammarType@Grammar@2@XZ 000000001203339c f   XMLGrammarPoolImpl.obj
 0001:0003239c       ?getNodeValue@DOMDocumentImpl@xercesc_3_1@@UEBAPEB_WXZ 000000001203339c f   DOMDocumentImpl.obj
 0001:0003239c       ?getOwnerDocument@DOMDocumentImpl@xercesc_3_1@@UEBAPEAVDOMDocument@2@XZ 000000001203339c f   DOMDocumentImpl.obj
 0001:0003239c       ?getLocalName@DOMTextImpl@xercesc_3_1@@UEBAPEB_WXZ 000000001203339c f   DOMTextImpl.obj
 0001:0003239c       ?getNextSibling@DOMAttrImpl@xercesc_3_1@@UEBAPEAVDOMNode@2@XZ 000000001203339c f   DOMAttrImpl.obj
 0001:0003239c       ?getFeature@DOMEntityReferenceImpl@xercesc_3_1@@UEBAPEAXPEB_W0@Z 000000001203339c f   DOMEntityReferenceImpl.obj
 0001:0003239c       ?resolveEntity@DefaultHandler@xercesc_3_1@@UEAAPEAVInputSource@2@QEB_W0@Z 000000001203339c f   sax2Dummy.obj
 0001:0003239c       ?getEntityDeclPool@SGXMLScanner@xercesc_3_1@@UEAAPEAV?$NameIdPool@VDTDEntityDecl@xercesc_3_1@@@2@XZ 000000001203339c f   SGXMLScanner.obj
 0001:0003239c       ?getContentType@BinMemInputStream@xercesc_3_1@@UEBAPEB_WXZ 000000001203339c f   BinMemInputStream.obj
 0001:0003239c       ?createObject@XMLSchemaDescription@xercesc_3_1@@SAPEAVXSerializable@2@PEAVMemoryManager@2@@Z 000000001203339c f   XMLSchemaDescription.obj
 0001:0003239c       ?createObject@Grammar@xercesc_3_1@@SAPEAVXSerializable@2@PEAVMemoryManager@2@@Z 000000001203339c f   Grammar.obj
 0001:0003239c       ?getLocalName@DOMDocumentFragmentImpl@xercesc_3_1@@UEBAPEB_WXZ 000000001203339c f   DOMDocumentFragmentImpl.obj
 0001:0003239c       ?getString@Token@xercesc_3_1@@UEBAPEB_WXZ 000000001203339c f   ASCIIRangeFactory.obj
 0001:0003239c       ?getReferenceNo@Token@xercesc_3_1@@UEBAHXZ 000000001203339c f   ASCIIRangeFactory.obj
 0001:0003239c       ?getNamespaceURI@DOMElementImpl@xercesc_3_1@@UEBAPEB_WXZ 000000001203339c f   DOMElementImpl.obj
 0001:0003239c       ?getLastChild@DOMCommentImpl@xercesc_3_1@@UEBAPEAVDOMNode@2@XZ 000000001203339c f   DOMCommentImpl.obj
 0001:0003239c       ?createObject@XMLAttDef@xercesc_3_1@@SAPEAVXSerializable@2@PEAVMemoryManager@2@@Z 000000001203339c f   XMLAttDef.obj
 0001:0003239c       ?getAttributes@DOMEntityImpl@xercesc_3_1@@UEBAPEAVDOMNamedNodeMap@2@XZ 000000001203339c f   DOMEntityImpl.obj
 0001:0003239c       ?getParentNode@DOMNodeImpl@xercesc_3_1@@QEBAPEAVDOMNode@2@XZ 000000001203339c f   DOMNodeImpl.obj
 0001:0003239c       ?getEscapedHRefAttrValue@XIncludeUtils@xercesc_3_1@@AEAAPEB_WPEB_WAEA_N@Z 000000001203339c f   XIncludeUtils.obj
 0001:0003239c       ?getNodeValue@DOMEntityImpl@xercesc_3_1@@UEBAPEB_WXZ 000000001203339c f   DOMEntityImpl.obj
 0001:0003239c       ?getAttributes@DOMDocumentImpl@xercesc_3_1@@UEBAPEAVDOMNamedNodeMap@2@XZ 000000001203339c f   DOMDocumentImpl.obj
 0001:0003239c       ?getAttributes@DOMNotationImpl@xercesc_3_1@@UEBAPEAVDOMNamedNodeMap@2@XZ 000000001203339c f   DOMNotationImpl.obj
 0001:0003239c       ?getLexicalHandler@SAX2XMLFilterImpl@xercesc_3_1@@UEBAPEAVLexicalHandler@2@XZ 000000001203339c f   SAX2XMLFilterImpl.obj
 0001:0003239c       ?size@Token@xercesc_3_1@@UEBA_KXZ 000000001203339c f   ASCIIRangeFactory.obj
 0001:0003239c       ?getFeature@DOMTextImpl@xercesc_3_1@@UEBAPEAXPEB_W0@Z 000000001203339c f   DOMTextImpl.obj
 0001:0003239c       ?getChild@Token@xercesc_3_1@@UEBAPEAV12@_K@Z 000000001203339c f   ASCIIRangeFactory.obj
 0001:0003239c       ?getNamespaceURI@DOMEntityReferenceImpl@xercesc_3_1@@UEBAPEB_WXZ 000000001203339c f   DOMEntityReferenceImpl.obj
 0001:0003239c       ?createObject@AbstractNumericValidator@xercesc_3_1@@SAPEAVXSerializable@2@PEAVMemoryManager@2@@Z 000000001203339c f   AbstractNumericValidator.obj
 0001:0003239c       ?getAttributes@DOMCommentImpl@xercesc_3_1@@UEBAPEAVDOMNamedNodeMap@2@XZ 000000001203339c f   DOMCommentImpl.obj
 0001:0003239c       ?getPreviousSibling@DOMNotationImpl@xercesc_3_1@@UEBAPEAVDOMNode@2@XZ 000000001203339c f   DOMNotationImpl.obj
 0001:0003239c       ?getPreviousSibling@DOMNodeImpl@xercesc_3_1@@QEBAPEAVDOMNode@2@XZ 000000001203339c f   DOMNodeImpl.obj
 0001:0003239c       ?getLocalName@DOMCDATASectionImpl@xercesc_3_1@@UEBAPEB_WXZ 000000001203339c f   DOMCDATASectionImpl.obj
 0001:0003239c       ?getSrcLine@OutOfMemoryException@xercesc_3_1@@QEBA_KXZ 000000001203339c f   PlatformUtils.obj
 0001:0003239c       ?getAttributes@DOMCDATASectionImpl@xercesc_3_1@@UEBAPEAVDOMNamedNodeMap@2@XZ 000000001203339c f   DOMCDATASectionImpl.obj
 0001:0003239c       ?getParentNode@DOMDocumentImpl@xercesc_3_1@@UEBAPEAVDOMNode@2@XZ 000000001203339c f   DOMDocumentImpl.obj
 0001:0003239c       ?getContentType@BinFileInputStream@xercesc_3_1@@UEBAPEB_WXZ 000000001203339c f   BinFileInputStream.obj
 0001:0003239c       ?getBaseURI@Wrapper4InputSource@xercesc_3_1@@UEBAPEB_WXZ 000000001203339c f   Wrapper4InputSource.obj
 0001:0003239c       ?getNodeValue@DOMDocumentFragmentImpl@xercesc_3_1@@UEBAPEB_WXZ 000000001203339c f   DOMDocumentFragmentImpl.obj
 0001:0003239c       ?getNodeValue@DOMElementImpl@xercesc_3_1@@UEBAPEB_WXZ 000000001203339c f   DOMElementImpl.obj
 0001:0003239c       ?getNextSibling@DOMNotationImpl@xercesc_3_1@@UEBAPEAVDOMNode@2@XZ 000000001203339c f   DOMNotationImpl.obj
 0001:0003239c       ?getAttributes@DOMProcessingInstructionImpl@xercesc_3_1@@UEBAPEAVDOMNamedNodeMap@2@XZ 000000001203339c f   DOMProcessingInstructionImpl.obj
 0001:0003239c       ?getLocalName@DOMEntityReferenceImpl@xercesc_3_1@@UEBAPEB_WXZ 000000001203339c f   DOMEntityReferenceImpl.obj
 0001:0003239c       ?getNamespaceURI@DOMNotationImpl@xercesc_3_1@@UEBAPEB_WXZ 000000001203339c f   DOMNotationImpl.obj
 0001:0003239c       ?getFeature@DOMNodeImpl@xercesc_3_1@@QEBAPEAXPEB_W0@Z 000000001203339c f   DOMNodeImpl.obj
 0001:0003239c       ?getFirstChild@DOMNodeImpl@xercesc_3_1@@QEBAPEAVDOMNode@2@XZ 000000001203339c f   DOMNodeImpl.obj
 0001:0003239c       ?getNodeValue@DOMNodeImpl@xercesc_3_1@@QEBAPEB_WXZ 000000001203339c f   DOMNodeImpl.obj
 0001:0003239c       ?getNodeValue@DOMDocumentTypeImpl@xercesc_3_1@@UEBAPEB_WXZ 000000001203339c f   DOMDocumentTypeImpl.obj
 0001:0003239c       ?getPrefix@DOMNotationImpl@xercesc_3_1@@UEBAPEB_WXZ 000000001203339c f   DOMNotationImpl.obj
 0001:0003239c       ?getEnumString@AnySimpleTypeDatatypeValidator@xercesc_3_1@@UEBAPEBV?$RefArrayVectorOf@_W@2@XZ 000000001203339c f   AnySimpleTypeDatatypeValidator.obj
 0001:0003239c       ?getParentNode@DOMNotationImpl@xercesc_3_1@@UEBAPEAVDOMNode@2@XZ 000000001203339c f   DOMNotationImpl.obj
 0001:0003239c       ?getFirstChild@DOMNotationImpl@xercesc_3_1@@UEBAPEAVDOMNode@2@XZ 000000001203339c f   DOMNotationImpl.obj
 0001:0003239c       ?getPrefix@DOMProcessingInstructionImpl@xercesc_3_1@@UEBAPEB_WXZ 000000001203339c f   DOMProcessingInstructionImpl.obj
 0001:0003239c       ?getAttributes@DOMAttrImpl@xercesc_3_1@@UEBAPEAVDOMNamedNodeMap@2@XZ 000000001203339c f   DOMAttrImpl.obj
 0001:0003239c       ?getObjectType@SchemaElementDecl@xercesc_3_1@@UEBA?AW4objectType@XMLElementDecl@2@XZ 000000001203339c f   SchemaElementDecl.obj
 0001:0003239c       ?getFeature@DOMCDATASectionImpl@xercesc_3_1@@UEBAPEAXPEB_W0@Z 000000001203339c f   DOMCDATASectionImpl.obj
 0001:0003239c       ?getNamespaceURI@DOMCommentImpl@xercesc_3_1@@UEBAPEB_WXZ 000000001203339c f   DOMCommentImpl.obj
 0001:0003239c       ?createObject@XMLEntityDecl@xercesc_3_1@@SAPEAVXSerializable@2@PEAVMemoryManager@2@@Z 000000001203339c f   XMLEntityDecl.obj
 0001:0003239c       ?getNodeValue@DOMEntityReferenceImpl@xercesc_3_1@@UEBAPEB_WXZ 000000001203339c f   DOMEntityReferenceImpl.obj
 0001:0003239c       ?getFirstChild@DOMTextImpl@xercesc_3_1@@UEBAPEAVDOMNode@2@XZ 000000001203339c f   DOMTextImpl.obj
 0001:0003239c       ?getLocalName@DOMCommentImpl@xercesc_3_1@@UEBAPEB_WXZ 000000001203339c f   DOMCommentImpl.obj
 0001:0003239c       ?getNextSibling@DOMEntityImpl@xercesc_3_1@@UEBAPEAVDOMNode@2@XZ 000000001203339c f   DOMEntityImpl.obj
 0001:0003239c       ?getPreviousSibling@DOMDocumentImpl@xercesc_3_1@@UEBAPEAVDOMNode@2@XZ 000000001203339c f   DOMDocumentImpl.obj
 0001:0003239c       ?getFeature@DOMNotationImpl@xercesc_3_1@@UEBAPEAXPEB_W0@Z 000000001203339c f   DOMNotationImpl.obj
 0001:0003239c       ?createObject@AbstractNumericFacetValidator@xercesc_3_1@@SAPEAVXSerializable@2@PEAVMemoryManager@2@@Z 000000001203339c f   AbstractNumericFacetValidator.obj
 0001:0003239c       ?getNamespaceURI@DOMDocumentFragmentImpl@xercesc_3_1@@UEBAPEB_WXZ 000000001203339c f   DOMDocumentFragmentImpl.obj
 0001:0003239c       ?getNextSibling@DOMDocumentFragmentImpl@xercesc_3_1@@UEBAPEAVDOMNode@2@XZ 000000001203339c f   DOMDocumentFragmentImpl.obj
 0001:0003239c       ?getFeature@DOMProcessingInstructionImpl@xercesc_3_1@@UEBAPEAXPEB_W0@Z 000000001203339c f   DOMProcessingInstructionImpl.obj
 0001:0003239c       ?getNamespaceURI@DOMDocumentImpl@xercesc_3_1@@UEBAPEB_WXZ 000000001203339c f   DOMDocumentImpl.obj
 0001:0003239c       ?getEntityDeclPool@SGXMLScanner@xercesc_3_1@@UEBAPEBV?$NameIdPool@VDTDEntityDecl@xercesc_3_1@@@2@XZ 000000001203339c f   SGXMLScanner.obj
 0001:0003239c       ?getNextSibling@DOMNodeImpl@xercesc_3_1@@QEBAPEAVDOMNode@2@XZ 000000001203339c f   DOMNodeImpl.obj
 0001:0003239c       ?getPrefix@DOMCommentImpl@xercesc_3_1@@UEBAPEB_WXZ 000000001203339c f   DOMCommentImpl.obj
 0001:0003239c       ?getContentLeafNameTypeVector@AllContentModel@xercesc_3_1@@UEBAPEAVContentLeafNameTypeVector@2@XZ 000000001203339c f   AllContentModel.obj
 0001:0003239c       ?resolveSystemId@WFXMLScanner@xercesc_3_1@@EEAAPEAVInputSource@2@QEB_W0@Z 000000001203339c f   WFXMLScanner.obj
 0001:0003239c       ?getNamespace@XSObject@xercesc_3_1@@UEAAPEB_WXZ 000000001203339c f   XSObject.obj
 0001:0003239c       ?getDeclarationHandler@SAX2XMLFilterImpl@xercesc_3_1@@UEBAPEAVDeclHandler@2@XZ 000000001203339c f   SAX2XMLFilterImpl.obj
 0001:0003239c       ?getNamespaceURI@DOMNodeImpl@xercesc_3_1@@QEBAPEB_WXZ 000000001203339c f   DOMNodeImpl.obj
 0001:0003239c       ?createObject@XMLDTDDescription@xercesc_3_1@@SAPEAVXSerializable@2@PEAVMemoryManager@2@@Z 000000001203339c f   XMLDTDDescription.obj
 0001:0003239c       ?getLocalName@DOMNotationImpl@xercesc_3_1@@UEBAPEB_WXZ 000000001203339c f   DOMNotationImpl.obj
 0001:0003239c       ?getFeature@DOMCommentImpl@xercesc_3_1@@UEBAPEAXPEB_W0@Z 000000001203339c f   DOMCommentImpl.obj
 0001:0003239c       ?getFeature@DOMDocumentFragmentImpl@xercesc_3_1@@UEBAPEAXPEB_W0@Z 000000001203339c f   DOMDocumentFragmentImpl.obj
 0001:0003239c       ?getSystemId@XMLDTDDescription@xercesc_3_1@@UEBAPEB_WXZ 000000001203339c f   XMLDTDDescription.obj
 0001:0003239c       ?createObject@XMLNumber@xercesc_3_1@@SAPEAVXSerializable@2@PEAVMemoryManager@2@@Z 000000001203339c f   XMLNumber.obj
 0001:0003239c       ?getFeature@DOMImplementationImpl@xercesc_3_1@@UEBAPEAXPEB_W0@Z 000000001203339c f   DOMImplementationImpl.obj
 0001:0003239c       ?getLocalName@DOMAttrImpl@xercesc_3_1@@UEBAPEB_WXZ 000000001203339c f   DOMAttrImpl.obj
 0001:0003239c       ?getLastChild@DOMNotationImpl@xercesc_3_1@@UEBAPEAVDOMNode@2@XZ 000000001203339c f   DOMNotationImpl.obj
 0001:0003239c       ?createObject@IdentityConstraint@xercesc_3_1@@SAPEAVXSerializable@2@PEAVMemoryManager@2@@Z 000000001203339c f   IdentityConstraint.obj
 0001:0003239c       ?getNamespaceItem@XSObject@xercesc_3_1@@UEAAPEAVXSNamespaceItem@2@XZ 000000001203339c f   XSObject.obj
 0001:0003239c       ?getParentNode@DOMDocumentFragmentImpl@xercesc_3_1@@UEBAPEAVDOMNode@2@XZ 000000001203339c f   DOMDocumentFragmentImpl.obj
 0001:0003239c       ?createObject@XMLAttDefList@xercesc_3_1@@SAPEAVXSerializable@2@PEAVMemoryManager@2@@Z 000000001203339c f   XMLAttDefList.obj
 0001:0003239c       ?getPrefix@DOMTextImpl@xercesc_3_1@@UEBAPEB_WXZ 000000001203339c f   DOMTextImpl.obj
 0001:0003239c       ?getNamespaceURI@DOMAttrImpl@xercesc_3_1@@UEBAPEB_WXZ 000000001203339c f   DOMAttrImpl.obj
 0001:0003239c       ?getPreviousSibling@DOMAttrImpl@xercesc_3_1@@UEBAPEAVDOMNode@2@XZ 000000001203339c f   DOMAttrImpl.obj
 0001:0003239c       ?createObject@XMLElementDecl@xercesc_3_1@@SAPEAVXSerializable@2@PEAVMemoryManager@2@@Z 000000001203339c f   XMLElementDecl.obj
 0001:0003239c       ?getAttributes@DOMEntityReferenceImpl@xercesc_3_1@@UEBAPEAVDOMNamedNodeMap@2@XZ 000000001203339c f   DOMEntityReferenceImpl.obj
 0001:0003239c       ?createObject@AbstractStringValidator@xercesc_3_1@@SAPEAVXSerializable@2@PEAVMemoryManager@2@@Z 000000001203339c f   AbstractStringValidator.obj
 0001:0003239c       ?getLastChild@DOMTextImpl@xercesc_3_1@@UEBAPEAVDOMNode@2@XZ 000000001203339c f   DOMTextImpl.obj
 0001:0003239c       ?resolveEntity@HandlerBase@xercesc_3_1@@UEAAPEAVInputSource@2@QEB_W0@Z 000000001203339c f   Dummy.obj
 0001:0003239c       ?createObject@DatatypeValidator@xercesc_3_1@@SAPEAVXSerializable@2@PEAVMemoryManager@2@@Z 000000001203339c f   DatatypeValidator.obj
 0001:0003239c       ?getLastChild@DOMNodeImpl@xercesc_3_1@@QEBAPEAVDOMNode@2@XZ 000000001203339c f   DOMNodeImpl.obj
 0001:0003239c       ?getPrefix@DOMAttrImpl@xercesc_3_1@@UEBAPEB_WXZ 000000001203339c f   DOMAttrImpl.obj
 0001:0003239c       ?getEnumString@BooleanDatatypeValidator@xercesc_3_1@@UEBAPEBV?$RefArrayVectorOf@_W@2@XZ 000000001203339c f   BooleanDatatypeValidator.obj
 0001:0003239c       ?getURIForPrefix@ValidationContext@xercesc_3_1@@UEAAPEB_WPEA_W@Z 000000001203339c f   XMLAttr.obj
 0001:0003239c       ?getFirstChild@DOMProcessingInstructionImpl@xercesc_3_1@@UEBAPEAVDOMNode@2@XZ 000000001203339c f   DOMProcessingInstructionImpl.obj
 0001:0003239c       ?getPrefix@DOMDocumentFragmentImpl@xercesc_3_1@@UEBAPEB_WXZ 000000001203339c f   DOMDocumentFragmentImpl.obj
 0001:0003239c       ?getGrammarType@XMLDTDDescription@xercesc_3_1@@UEBA?AW4GrammarType@Grammar@2@XZ 000000001203339c f   XMLDTDDescription.obj
 0001:0003239c       ?createObject@XMLGrammarDescription@xercesc_3_1@@SAPEAVXSerializable@2@PEAVMemoryManager@2@@Z 000000001203339c f   XMLGrammarDescription.obj
 0001:0003239c       ?createObject@XMLAbstractDoubleFloat@xercesc_3_1@@SAPEAVXSerializable@2@PEAVMemoryManager@2@@Z 000000001203339c f   XMLAbstractDoubleFloat.obj
 0001:0003239c       ?getAttributes@DOMNodeImpl@xercesc_3_1@@QEBAPEAVDOMNamedNodeMap@2@XZ 000000001203339c f   DOMNodeImpl.obj
 0001:0003239c       ?getNextSibling@DOMDocumentImpl@xercesc_3_1@@UEBAPEAVDOMNode@2@XZ 000000001203339c f   DOMDocumentImpl.obj
 0001:0003239c       ?getPrefix@DOMDocumentImpl@xercesc_3_1@@UEBAPEB_WXZ 000000001203339c f   DOMDocumentImpl.obj
 0001:0003239c       ?getNamespaceURI@DOMCDATASectionImpl@xercesc_3_1@@UEBAPEB_WXZ 000000001203339c f   DOMCDATASectionImpl.obj
 0001:0003239c       ?getNodeValue@DOMNotationImpl@xercesc_3_1@@UEBAPEB_WXZ 000000001203339c f   DOMNotationImpl.obj
 0001:0003239c       ?getName@XSObject@xercesc_3_1@@UEBAPEB_WXZ 000000001203339c f   XSObject.obj
 0001:0003239c       ?getPrefix@DOMEntityImpl@xercesc_3_1@@UEBAPEB_WXZ 000000001203339c f   DOMEntityImpl.obj
 0001:0003239c       ?getContentLeafNameTypeVector@MixedContentModel@xercesc_3_1@@UEBAPEAVContentLeafNameTypeVector@2@XZ 000000001203339c f   MixedContentModel.obj
 0001:0003239c       ?getCurrentGrammarType@DGXMLScanner@xercesc_3_1@@UEBA?AW4GrammarType@Grammar@2@XZ 000000001203339c f   DGXMLScanner.obj
 0001:0003239c       ?getNamespaceURI@DOMEntityImpl@xercesc_3_1@@UEBAPEB_WXZ 000000001203339c f   DOMEntityImpl.obj
 0001:0003239c       ?getSign@XMLDateTime@xercesc_3_1@@UEBAHXZ 000000001203339c f   XMLDateTime.obj
 0001:0003239c       ?getLastChild@DOMProcessingInstructionImpl@xercesc_3_1@@UEBAPEAVDOMNode@2@XZ 000000001203339c f   DOMProcessingInstructionImpl.obj
 0001:0003239c       ?loadGrammar@WFXMLScanner@xercesc_3_1@@UEAAPEAVGrammar@2@AEBVInputSource@2@F_N@Z 000000001203339c f   WFXMLScanner.obj
 0001:0003239c       ?getAttributes@DOMDocumentTypeImpl@xercesc_3_1@@UEBAPEAVDOMNamedNodeMap@2@XZ 000000001203339c f   DOMDocumentTypeImpl.obj
 0001:0003239c       ?getPreviousSibling@DOMDocumentFragmentImpl@xercesc_3_1@@UEBAPEAVDOMNode@2@XZ 000000001203339c f   DOMDocumentFragmentImpl.obj
 0001:0003239c       ?getEntityDeclPool@WFXMLScanner@xercesc_3_1@@UEAAPEAV?$NameIdPool@VDTDEntityDecl@xercesc_3_1@@@2@XZ 000000001203339c f   WFXMLScanner.obj
 0001:0003239c       ?getAttributes@DOMTextImpl@xercesc_3_1@@UEBAPEAVDOMNamedNodeMap@2@XZ 000000001203339c f   DOMTextImpl.obj
 0001:000323a0       ?getProtoType@XMLEntityDecl@xercesc_3_1@@UEBAPEAVXProtoType@2@XZ 00000000120333a0 f   XMLEntityDecl.obj
 0001:000323a8       ?serialize@XMLEntityDecl@xercesc_3_1@@UEAAXAEAVXSerializeEngine@2@@Z 00000000120333a8 f   XMLEntityDecl.obj
 0001:00032528       ?inEscapeList@XMLFormatter@xercesc_3_1@@AEAA_NW4EscapeFlags@12@_W@Z 0000000012033528 f   XMLFormatter.obj
 0001:0003257c       ??0XMLFormatter@xercesc_3_1@@QEAA@QEBD0QEAVXMLFormatTarget@1@W4EscapeFlags@01@W4UnRepFlags@01@QEAVMemoryManager@1@@Z 000000001203357c f   XMLFormatter.obj
 0001:00032764       ??0XMLFormatter@xercesc_3_1@@QEAA@QEB_W0QEAVXMLFormatTarget@1@W4EscapeFlags@01@W4UnRepFlags@01@QEAVMemoryManager@1@@Z 0000000012033764 f   XMLFormatter.obj
 0001:00032944       ??0XMLFormatter@xercesc_3_1@@QEAA@QEBDQEAVXMLFormatTarget@1@W4EscapeFlags@01@W4UnRepFlags@01@QEAVMemoryManager@1@@Z 0000000012033944 f   XMLFormatter.obj
 0001:00032aa8       ??0XMLFormatter@xercesc_3_1@@QEAA@QEB_WQEAVXMLFormatTarget@1@W4EscapeFlags@01@W4UnRepFlags@01@QEAVMemoryManager@1@@Z 0000000012033aa8 f   XMLFormatter.obj
 0001:00032c34       ??1XMLFormatter@xercesc_3_1@@QEAA@XZ 0000000012033c34 f   XMLFormatter.obj
 0001:00032ccc       ?formatBuf@XMLFormatter@xercesc_3_1@@QEAAXQEB_W_KW4EscapeFlags@12@W4UnRepFlags@12@@Z 0000000012033ccc f   XMLFormatter.obj
 0001:00032ec8       ?handleUnEscapedChars@XMLFormatter@xercesc_3_1@@AEAA_KPEB_W_KW4UnRepFlags@12@@Z 0000000012033ec8 f   XMLFormatter.obj
 0001:00032f8c       ??6XMLFormatter@xercesc_3_1@@QEAAAEAV01@QEB_W@Z 0000000012033f8c f   XMLFormatter.obj
 0001:00032fd4       ??6XMLFormatter@xercesc_3_1@@QEAAAEAV01@_W@Z 0000000012033fd4 f   XMLFormatter.obj
 0001:0003300c       ?writeBOM@XMLFormatter@xercesc_3_1@@QEAAXQEBE_K@Z 000000001203400c f   XMLFormatter.obj
 0001:00033020       ?writeCharRef@XMLFormatter@xercesc_3_1@@AEAAXAEB_W@Z 0000000012034020 f   XMLFormatter.obj
 0001:000330d8       ?writeCharRef@XMLFormatter@xercesc_3_1@@AEAAX_K@Z 00000000120340d8 f   XMLFormatter.obj
 0001:00033198       ?getCharRef@XMLFormatter@xercesc_3_1@@AEAAPEBEAEA_KAEAPEAEPEB_W@Z 0000000012034198 f   XMLFormatter.obj
 0001:00033260       ?specialFormat@XMLFormatter@xercesc_3_1@@AEAAXQEB_W_KW4EscapeFlags@12@@Z 0000000012034260 f   XMLFormatter.obj
 0001:00033360       ??0XMLGrammarDescription@xercesc_3_1@@IEAA@QEAVMemoryManager@1@@Z 0000000012034360 f   XMLGrammarDescription.obj
 0001:00033374       ?getProtoType@XMLGrammarDescription@xercesc_3_1@@UEBAPEAVXProtoType@2@XZ 0000000012034374 f   XMLGrammarDescription.obj
 0001:0003337c       ??1XMLGrammarPool@xercesc_3_1@@UEAA@XZ 000000001203437c f i XMLGrammarPoolImpl.obj
 0001:00033388       ?setIgnoreSerializedAnnotations@XMLGrammarPool@xercesc_3_1@@QEAAX_N@Z 0000000012034388 f i XMLGrammarPoolImpl.obj
 0001:0003338c       ?hasBackReferences@RegxParser@xercesc_3_1@@QEBA_NXZ 000000001203438c f i ParserForXMLSchema.obj
 0001:0003338c       ?getIgnoreSerializedAnnotations@XMLGrammarPool@xercesc_3_1@@QEBA_NXZ 000000001203438c f i XMLGrammarPoolImpl.obj
 0001:00033390       ??0XMLGrammarPool@xercesc_3_1@@IEAA@QEAVMemoryManager@1@@Z 0000000012034390 f i XMLGrammarPoolImpl.obj
 0001:000333a8       ??_FXMLGrammarPool@xercesc_3_1@@QEAAXXZ 00000000120343a8 f i XMLGrammarPoolImpl.obj
 0001:000333c4       ??_EXMLGrammarPool@xercesc_3_1@@UEAAPEAXI@Z 00000000120343c4 f i XMLGrammarPoolImpl.obj
 0001:00033438       ??_FXMLGrammarPoolImpl@xercesc_3_1@@QEAAXXZ 0000000012034438 f i XMLGrammarPoolImpl.obj
 0001:00033444       ??_EXMLGrammarPoolImpl@xercesc_3_1@@UEAAPEAXI@Z 0000000012034444 f i XMLGrammarPoolImpl.obj
 0001:000334b8       ??_FXMLRefInfo@xercesc_3_1@@QEAAXXZ 00000000120344b8 f i XMLGrammarPoolImpl.obj
 0001:000334d8       ??_EXMLRefInfo@xercesc_3_1@@UEAAPEAXI@Z 00000000120344d8 f i XMLGrammarPoolImpl.obj
 0001:00033574       ??0XMLRefInfo@xercesc_3_1@@QEAA@QEB_W_N1QEAVMemoryManager@1@@Z 0000000012034574 f i XMLGrammarPoolImpl.obj
 0001:00033610       ??1XMLRefInfo@xercesc_3_1@@UEAA@XZ 0000000012034610 f i XMLGrammarPoolImpl.obj
 0001:00033650       ?getAnonymous@DatatypeValidator@xercesc_3_1@@QEBA_NXZ 0000000012034650 f i XMLAttr.obj
 0001:00033650       ?getCheckElementConsistency@XercesGroupInfo@xercesc_3_1@@QEBA_NXZ 0000000012034650 f i XMLGrammarPoolImpl.obj
 0001:00033650       ?getExitOnFirstFatal@XSDErrorReporter@xercesc_3_1@@QEBA_NXZ 0000000012034650 f i IGXMLScanner.obj
 0001:00033650       ?getAnonymous@ComplexTypeInfo@xercesc_3_1@@QEBA_NXZ 0000000012034650 f i XMLElementDecl.obj
 0001:00033650       ?containsTypeWithId@XercesAttGroupInfo@xercesc_3_1@@QEBA_NXZ 0000000012034650 f i XMLGrammarPoolImpl.obj
 0001:00033650       ?getDeclared@XMLRefInfo@xercesc_3_1@@QEBA_NXZ 0000000012034650 f i XMLGrammarPoolImpl.obj
 0001:00033654       ?setAbstract@ComplexTypeInfo@xercesc_3_1@@QEAAX_N@Z 0000000012034654 f i XMLElementDecl.obj
 0001:00033654       ?setFinite@DatatypeValidator@xercesc_3_1@@IEAAX_N@Z 0000000012034654 f i XMLAttr.obj
 0001:00033654       ?setUsed@XMLRefInfo@xercesc_3_1@@QEAAX_N@Z 0000000012034654 f i XMLGrammarPoolImpl.obj
 0001:00033658       ??_FContentSpecNode@xercesc_3_1@@QEAAXXZ 0000000012034658 f i XMLGrammarPoolImpl.obj
 0001:00033694       ??_EContentSpecNode@xercesc_3_1@@UEAAPEAXI@Z 0000000012034694 f i XMLGrammarPoolImpl.obj
 0001:00033708       ??0ContentSpecNode@xercesc_3_1@@QEAA@QEAVMemoryManager@1@@Z 0000000012034708 f i XMLGrammarPoolImpl.obj
 0001:00033740       ??0ContentSpecNode@xercesc_3_1@@QEAA@QEAVQName@1@QEAVMemoryManager@1@@Z 0000000012034740 f i XMLGrammarPoolImpl.obj
 0001:000337d8       ??0ContentSpecNode@xercesc_3_1@@QEAA@QEAVXMLElementDecl@1@QEAVMemoryManager@1@@Z 00000000120347d8 f i XMLGrammarPoolImpl.obj
 0001:00033874       ??0ContentSpecNode@xercesc_3_1@@QEAA@QEAVQName@1@_NQEAVMemoryManager@1@@Z 0000000012034874 f i XMLGrammarPoolImpl.obj
 0001:00033918       ??0ContentSpecNode@xercesc_3_1@@QEAA@W4NodeTypes@01@QEAV01@1_N2QEAVMemoryManager@1@@Z 0000000012034918 f i XMLGrammarPoolImpl.obj
 0001:00033960       ??1ContentSpecNode@xercesc_3_1@@UEAA@XZ 0000000012034960 f i XMLGrammarPoolImpl.obj
 0001:000339d8       ?orphanFirst@ContentSpecNode@xercesc_3_1@@QEAAPEAV12@XZ 00000000120349d8 f i XMLGrammarPoolImpl.obj
 0001:000339e4       ?orphanSecond@ContentSpecNode@xercesc_3_1@@QEAAPEAV12@XZ 00000000120349e4 f i XMLGrammarPoolImpl.obj
 0001:000339f0       ?isFirstAdopted@ContentSpecNode@xercesc_3_1@@QEBA_NXZ 00000000120349f0 f i XMLGrammarPoolImpl.obj
 0001:000339f4       ?isSecondAdopted@ContentSpecNode@xercesc_3_1@@QEBA_NXZ 00000000120349f4 f i XMLGrammarPoolImpl.obj
 0001:000339f8       ?setElement@ContentSpecNode@xercesc_3_1@@QEAAXQEAVQName@2@@Z 00000000120349f8 f i XMLGrammarPoolImpl.obj
 0001:00033a74       ?setFirst@ContentSpecNode@xercesc_3_1@@QEAAXQEAV12@@Z 0000000012034a74 f i XMLGrammarPoolImpl.obj
 0001:00033aac       ?setSecond@ContentSpecNode@xercesc_3_1@@QEAAXQEAV12@@Z 0000000012034aac f i XMLGrammarPoolImpl.obj
 0001:00033ae4       ?setAdoptFirst@ContentSpecNode@xercesc_3_1@@QEAAX_N@Z 0000000012034ae4 f i XMLGrammarPoolImpl.obj
 0001:00033ae8       ?setAdoptSecond@ContentSpecNode@xercesc_3_1@@QEAAX_N@Z 0000000012034ae8 f i XMLGrammarPoolImpl.obj
 0001:00033aec       ?hasAllContent@ContentSpecNode@xercesc_3_1@@QEAA_NXZ 0000000012034aec f i XMLGrammarPoolImpl.obj
 0001:00033b04       ??_FDTDEntityDecl@xercesc_3_1@@QEAAXXZ 0000000012034b04 f i XMLGrammarPoolImpl.obj
 0001:00033b48       ??_EDTDEntityDecl@xercesc_3_1@@UEAAPEAXI@Z 0000000012034b48 f i XMLGrammarPoolImpl.obj
 0001:00033bc4       ??0DTDEntityDecl@xercesc_3_1@@QEAA@QEAVMemoryManager@1@@Z 0000000012034bc4 f i XMLGrammarPoolImpl.obj
 0001:00033c08       ??0DTDEntityDecl@xercesc_3_1@@QEAA@QEB_W_NQEAVMemoryManager@1@@Z 0000000012034c08 f i XMLGrammarPoolImpl.obj
 0001:00033c44       ??0DTDEntityDecl@xercesc_3_1@@QEAA@QEB_W0_NQEAVMemoryManager@1@@Z 0000000012034c44 f i XMLGrammarPoolImpl.obj
 0001:00033c80       ??0DTDEntityDecl@xercesc_3_1@@QEAA@QEB_W_W_N2@Z 0000000012034c80 f i XMLGrammarPoolImpl.obj
 0001:00033cc4       ??1DTDEntityDecl@xercesc_3_1@@UEAA@XZ 0000000012034cc4 f i XMLGrammarPoolImpl.obj
 0001:00033cd4       ?getDeclaredInIntSubset@DTDEntityDecl@xercesc_3_1@@UEBA_NXZ 0000000012034cd4 f i XMLGrammarPoolImpl.obj
 0001:00033cd8       ?getIsParameter@DTDEntityDecl@xercesc_3_1@@UEBA_NXZ 0000000012034cd8 f i XMLGrammarPoolImpl.obj
 0001:00033cdc       ?getIsSpecialChar@DTDEntityDecl@xercesc_3_1@@UEBA_NXZ 0000000012034cdc f i XMLGrammarPoolImpl.obj
 0001:00033ce0       ?setDeclaredInIntSubset@DTDEntityDecl@xercesc_3_1@@QEAAX_N@Z 0000000012034ce0 f i XMLGrammarPoolImpl.obj
 0001:00033ce4       ?setIsParameter@DTDEntityDecl@xercesc_3_1@@QEAAX_N@Z 0000000012034ce4 f i XMLGrammarPoolImpl.obj
 0001:00033ce8       ?setIsSpecialChar@DTDEntityDecl@xercesc_3_1@@QEAAX_N@Z 0000000012034ce8 f i XMLGrammarPoolImpl.obj
 0001:00033cec       ??_FXercesGroupInfo@xercesc_3_1@@QEAAXXZ 0000000012034cec f i XMLGrammarPoolImpl.obj
 0001:00033cf8       ?getTotalDigit@XMLBigDecimal@xercesc_3_1@@QEBAIXZ 0000000012034cf8 f i XMLAbstractDoubleFloat.obj
 0001:00033cf8       ?getScope@XercesGroupInfo@xercesc_3_1@@QEBAIXZ 0000000012034cf8 f i XMLGrammarPoolImpl.obj
 0001:00033cf8       ?getType@XMLAttDef@xercesc_3_1@@QEBA?AW4AttTypes@12@XZ 0000000012034cf8 f i XMLAttDef.obj
 0001:00033cf8       ?getSeverity@DOMErrorImpl@xercesc_3_1@@UEBA?AW4ErrorSeverity@DOMError@2@XZ 0000000012034cf8 f i DOMLSParserImpl.obj
 0001:00033cf8       ?getNameId@XercesAttGroupInfo@xercesc_3_1@@QEBAIXZ 0000000012034cf8 f i XMLGrammarPoolImpl.obj
 0001:00033cf8       ?getTargetNSURI@SchemaInfo@xercesc_3_1@@QEBAHXZ 0000000012034cf8 f i IGXMLScanner.obj
 0001:00033cfc       ?getSize@UnionOp@xercesc_3_1@@UEBA_KXZ 0000000012034cfc f i Op.obj
 0001:00033cfc       ?elementCount@XercesGroupInfo@xercesc_3_1@@QEBA_KXZ 0000000012034cfc f i XMLGrammarPoolImpl.obj
 0001:00033d08       ?elementAt@XercesGroupInfo@xercesc_3_1@@QEAAPEAVSchemaElementDecl@2@_K@Z 0000000012034d08 f i XMLGrammarPoolImpl.obj
 0001:00033d08       ?elementAt@XercesGroupInfo@xercesc_3_1@@QEBAPEBVSchemaElementDecl@2@_K@Z 0000000012034d08 f i XMLGrammarPoolImpl.obj
 0001:00033d14       ?getNamespaceId@XercesGroupInfo@xercesc_3_1@@QEBAIXZ 0000000012034d14 f i XMLGrammarPoolImpl.obj
 0001:00033d14       ?getFacetsDefined@DatatypeValidator@xercesc_3_1@@IEBAHXZ 0000000012034d14 f i XMLAttr.obj
 0001:00033d14       ?getBlockSet@ComplexTypeInfo@xercesc_3_1@@QEBAHXZ 0000000012034d14 f i XMLElementDecl.obj
 0001:00033d14       ?getOptions@RegxParser@xercesc_3_1@@QEBAHXZ 0000000012034d14 f i ParserForXMLSchema.obj
 0001:00033d18       ?setSeverity@DOMErrorImpl@xercesc_3_1@@QEAAXW4ErrorSeverity@DOMError@2@@Z 0000000012034d18 f i DOMLSParserImpl.obj
 0001:00033d18       ?setScope@XercesGroupInfo@xercesc_3_1@@QEAAXI@Z 0000000012034d18 f i XMLGrammarPoolImpl.obj
 0001:00033d18       ?setType@XMLAttDef@xercesc_3_1@@QEAAXW4AttTypes@12@@Z 0000000012034d18 f i XMLAttDef.obj
 0001:00033d1c       ?addElement@XercesGroupInfo@xercesc_3_1@@QEAAXQEAVSchemaElementDecl@2@@Z 0000000012034d1c f i XMLGrammarPoolImpl.obj
 0001:00033d50       ?setExitOnFirstFatal@XSDErrorReporter@xercesc_3_1@@QEAAX_N@Z 0000000012034d50 f i IGXMLScanner.obj
 0001:00033d50       ?setAdoptLocation@DOMErrorImpl@xercesc_3_1@@QEAAX_N@Z 0000000012034d50 f i DOMLSParserImpl.obj
 0001:00033d50       ?setCheckElementConsistency@XercesGroupInfo@xercesc_3_1@@QEAAX_N@Z 0000000012034d50 f i XMLGrammarPoolImpl.obj
 0001:00033d50       ?setDeclared@XMLRefInfo@xercesc_3_1@@QEAAX_N@Z 0000000012034d50 f i XMLGrammarPoolImpl.obj
 0001:00033d50       ?setTypeWithId@XercesAttGroupInfo@xercesc_3_1@@QEAAX_N@Z 0000000012034d50 f i XMLGrammarPoolImpl.obj
 0001:00033d54       ??_FXercesAttGroupInfo@xercesc_3_1@@QEAAXXZ 0000000012034d54 f i XMLGrammarPoolImpl.obj
 0001:00033d80       ?attributeCount@XercesAttGroupInfo@xercesc_3_1@@QEBA_KXZ 0000000012034d80 f i XMLGrammarPoolImpl.obj
 0001:00033d90       ?getFieldCount@IdentityConstraint@xercesc_3_1@@QEBA_KXZ 0000000012034d90 f i XMLElementDecl.obj
 0001:00033d90       ?anyAttributeCount@XercesAttGroupInfo@xercesc_3_1@@QEBA_KXZ 0000000012034d90 f i XMLGrammarPoolImpl.obj
 0001:00033da0       ?attributeAt@XercesAttGroupInfo@xercesc_3_1@@QEBAPEBVSchemaAttDef@2@_K@Z 0000000012034da0 f i XMLGrammarPoolImpl.obj
 0001:00033da0       ?attributeAt@XercesAttGroupInfo@xercesc_3_1@@QEAAPEAVSchemaAttDef@2@_K@Z 0000000012034da0 f i XMLGrammarPoolImpl.obj
 0001:00033db4       ?addAttDef@XercesAttGroupInfo@xercesc_3_1@@QEAAXQEAVSchemaAttDef@2@_N@Z 0000000012034db4 f i XMLGrammarPoolImpl.obj
 0001:00033e7c       ?addAnyAttDef@XercesAttGroupInfo@xercesc_3_1@@QEAAXQEAVSchemaAttDef@2@_N@Z 0000000012034e7c f i XMLGrammarPoolImpl.obj
 0001:00033f44       ?setCompleteWildCard@XercesAttGroupInfo@xercesc_3_1@@QEAAXQEAVSchemaAttDef@2@@Z 0000000012034f44 f i XMLGrammarPoolImpl.obj
 0001:00033f78       ?setSubstitutionGroupElem@SchemaElementDecl@xercesc_3_1@@QEAAXQEAV12@@Z 0000000012034f78 f i XMLElementDecl.obj
 0001:00033f78       ?setMaxLength@AbstractStringValidator@xercesc_3_1@@IEAAX_K@Z 0000000012034f78 f i XMLGrammarPoolImpl.obj
 0001:00033f80       ?setEnumeration@AbstractStringValidator@xercesc_3_1@@IEAAXPEAV?$RefArrayVectorOf@_W@2@_N@Z 0000000012034f80 f i XMLGrammarPoolImpl.obj
 0001:00033fe0       ??_FStringDatatypeValidator@xercesc_3_1@@QEAAXXZ 0000000012034fe0 f i XMLGrammarPoolImpl.obj
 0001:00033fec       ??_FIDDatatypeValidator@xercesc_3_1@@QEAAXXZ 0000000012034fec f i XMLGrammarPoolImpl.obj
 0001:00033ff8       ??_FDatatypeValidatorFactory@xercesc_3_1@@QEAAXXZ 0000000012034ff8 f i XMLGrammarPoolImpl.obj
 0001:00034014       ?getDatatypeValidator@DatatypeValidatorFactory@xercesc_3_1@@QEBAPEAVDatatypeValidator@2@QEB_W@Z 0000000012035014 f i XMLGrammarPoolImpl.obj
 0001:00034098       ?getBuiltInRegistry@DatatypeValidatorFactory@xercesc_3_1@@SAPEAV?$RefHashTableOf@VDatatypeValidator@xercesc_3_1@@UStringHasher@2@@2@XZ 0000000012035098 f i XMLGrammarPoolImpl.obj
 0001:000340a0       ?cleanUp@DatatypeValidatorFactory@xercesc_3_1@@AEAAXXZ 00000000120350a0 f i XMLGrammarPoolImpl.obj
 0001:000340f0       ??_FXMLSchemaDescription@xercesc_3_1@@QEAAXXZ 00000000120350f0 f i XMLGrammarPoolImpl.obj
 0001:00034108       ??_FSchemaGrammar@xercesc_3_1@@QEAAXXZ 0000000012035108 f i XMLGrammarPoolImpl.obj
 0001:00034114       ?getElemEnumerator@SchemaGrammar@xercesc_3_1@@QEBA?AV?$RefHash3KeysIdPoolEnumerator@VSchemaElementDecl@xercesc_3_1@@UStringHasher@2@@2@XZ 0000000012035114 f i XMLGrammarPoolImpl.obj
 0001:0003413c       ?getNotationEnumerator@SchemaGrammar@xercesc_3_1@@QEBA?AV?$NameIdPoolEnumerator@VXMLNotationDecl@xercesc_3_1@@@2@XZ 000000001203513c f i XMLGrammarPoolImpl.obj
 0001:00034168       ?getDatatypeRegistry@SchemaGrammar@xercesc_3_1@@QEAAPEAVDatatypeValidatorFactory@2@XZ 0000000012035168 f i XMLGrammarPoolImpl.obj
 0001:00034170       ?getAnnotation@SchemaGrammar@xercesc_3_1@@QEBAPEBVXSAnnotation@2@QEBX@Z 0000000012035170 f i XMLGrammarPoolImpl.obj
 0001:00034170       ?getAnnotation@SchemaGrammar@xercesc_3_1@@QEAAPEAVXSAnnotation@2@QEBX@Z 0000000012035170 f i XMLGrammarPoolImpl.obj
 0001:000341a8       ?getAnnotation@SchemaGrammar@xercesc_3_1@@QEBAPEBVXSAnnotation@2@XZ 00000000120351a8 f i XMLGrammarPoolImpl.obj
 0001:000341a8       ?getAnnotation@SchemaGrammar@xercesc_3_1@@QEAAPEAVXSAnnotation@2@XZ 00000000120351a8 f i XMLGrammarPoolImpl.obj
 0001:000341dc       ?setTargetNamespace@SchemaGrammar@xercesc_3_1@@QEAAXQEB_W@Z 00000000120351dc f i XMLGrammarPoolImpl.obj
 0001:00034260       ?getElemId@SchemaGrammar@xercesc_3_1@@UEBA_KIQEB_W0I@Z 0000000012035260 f i XMLGrammarPoolImpl.obj
 0001:000342e8       ?getElemDecl@SchemaGrammar@xercesc_3_1@@UEBAPEBVXMLElementDecl@2@IQEB_W0I@Z 00000000120352e8 f i XMLGrammarPoolImpl.obj
 0001:000342e8       ?getElemDecl@SchemaGrammar@xercesc_3_1@@UEAAPEAVXMLElementDecl@2@IQEB_W0I@Z 00000000120352e8 f i XMLGrammarPoolImpl.obj
 0001:00034390       ?getElemDecl@SchemaGrammar@xercesc_3_1@@UEAAPEAVXMLElementDecl@2@I@Z 0000000012035390 f i XMLGrammarPoolImpl.obj
 0001:00034390       ?getElemDecl@SchemaGrammar@xercesc_3_1@@UEBAPEBVXMLElementDecl@2@I@Z 0000000012035390 f i XMLGrammarPoolImpl.obj
 0001:000343c4       ?putElemDecl@SchemaGrammar@xercesc_3_1@@UEAA_KQEAVXMLElementDecl@2@_N@Z 00000000120353c4 f i XMLGrammarPoolImpl.obj
 0001:00034474       ?putGroupElemDecl@SchemaGrammar@xercesc_3_1@@QEBA_KQEAVXMLElementDecl@2@@Z 0000000012035474 f i XMLGrammarPoolImpl.obj
 0001:0003449c       ?getNotationDecl@DTDGrammar@xercesc_3_1@@UEBAPEBVXMLNotationDecl@2@QEB_W@Z 000000001203549c f i XMLGrammarPoolImpl.obj
 0001:0003449c       ?getNotationDecl@SchemaGrammar@xercesc_3_1@@UEBAPEBVXMLNotationDecl@2@QEB_W@Z 000000001203549c f i XMLGrammarPoolImpl.obj
 0001:0003449c       ?getNotationDecl@SchemaGrammar@xercesc_3_1@@UEAAPEAVXMLNotationDecl@2@QEB_W@Z 000000001203549c f i XMLGrammarPoolImpl.obj
 0001:0003449c       ?getNotationDecl@DTDGrammar@xercesc_3_1@@UEAAPEAVXMLNotationDecl@2@QEB_W@Z 000000001203549c f i XMLGrammarPoolImpl.obj
 0001:000344d0       ?putNotationDecl@SchemaGrammar@xercesc_3_1@@UEBA_KQEAVXMLNotationDecl@2@@Z 00000000120354d0 f i XMLGrammarPoolImpl.obj
 0001:000344d0       ?putNotationDecl@DTDGrammar@xercesc_3_1@@UEBA_KQEAVXMLNotationDecl@2@@Z 00000000120354d0 f i XMLGrammarPoolImpl.obj
 0001:000344dc       ?getValidated@SchemaGrammar@xercesc_3_1@@UEBA_NXZ 00000000120354dc f i XMLGrammarPoolImpl.obj
 0001:000344e0       ?setValidated@SchemaGrammar@xercesc_3_1@@UEAAX_N@Z 00000000120354e0 f i XMLGrammarPoolImpl.obj
 0001:000344e4       ?getScopeCount@SchemaGrammar@xercesc_3_1@@QEBAIXZ 00000000120354e4 f i XMLGrammarPoolImpl.obj
 0001:000344ec       ?setScopeCount@SchemaGrammar@xercesc_3_1@@QEAAXI@Z 00000000120354ec f i XMLGrammarPoolImpl.obj
 0001:000344f4       ?getAnonTypeCount@SchemaGrammar@xercesc_3_1@@QEBAIXZ 00000000120354f4 f i XMLGrammarPoolImpl.obj
 0001:000344fc       ?setAnonTypeCount@SchemaGrammar@xercesc_3_1@@QEAAXI@Z 00000000120354fc f i XMLGrammarPoolImpl.obj
 0001:00034504       ??0XercesNamespaceResolver@xercesc_3_1@@QEAA@AEBV01@@Z 0000000012035504 f i XMLGrammarPoolImpl.obj
 0001:00034504       ??0XercesNamespaceResolver@xercesc_3_1@@QEAA@XZ 0000000012035504 f i XMLGrammarPoolImpl.obj
 0001:00034514       ??_FNamespaceScope@xercesc_3_1@@QEAAXXZ 0000000012035514 f i XMLGrammarPoolImpl.obj
 0001:00034520       ?isEmpty@NamespaceScope@xercesc_3_1@@QEBA_NXZ 0000000012035520 f i XMLGrammarPoolImpl.obj
 0001:0003452c       ??1XercesNodeTest@xercesc_3_1@@UEAA@XZ 000000001203552c f i XMLGrammarPoolImpl.obj
 0001:00034570       ?getAxisType@XercesStep@xercesc_3_1@@QEBAGXZ 0000000012035570 f i XMLGrammarPoolImpl.obj
 0001:00034570       ?getType@XercesNodeTest@xercesc_3_1@@QEBAFXZ 0000000012035570 f i XMLGrammarPoolImpl.obj
 0001:00034578       ??_FXercesNodeTest@xercesc_3_1@@QEAAXXZ 0000000012035578 f i XMLGrammarPoolImpl.obj
 0001:00034594       ??_EXercesNodeTest@xercesc_3_1@@UEAAPEAXI@Z 0000000012035594 f i XMLGrammarPoolImpl.obj
 0001:00034634       ??1XercesStep@xercesc_3_1@@UEAA@XZ 0000000012035634 f i XMLGrammarPoolImpl.obj
 0001:00034678       ??_FXercesStep@xercesc_3_1@@QEAAXXZ 0000000012035678 f i XMLGrammarPoolImpl.obj
 0001:00034694       ??_EXercesStep@xercesc_3_1@@UEAAPEAXI@Z 0000000012035694 f i XMLGrammarPoolImpl.obj
 0001:00034734       ??1XercesLocationPath@xercesc_3_1@@UEAA@XZ 0000000012035734 f i XMLGrammarPoolImpl.obj
 0001:00034778       ??_FXercesLocationPath@xercesc_3_1@@QEAAXXZ 0000000012035778 f i XMLGrammarPoolImpl.obj
 0001:00034788       ??_EXercesLocationPath@xercesc_3_1@@UEAAPEAXI@Z 0000000012035788 f i XMLGrammarPoolImpl.obj
 0001:00034828       ??_FXercesXPath@xercesc_3_1@@QEAAXXZ 0000000012035828 f i XMLGrammarPoolImpl.obj
 0001:0003484c       ??1XPathScanner@xercesc_3_1@@UEAA@XZ 000000001203584c f i XMLGrammarPoolImpl.obj
 0001:0003484c       ??1XPathScannerForSchema@xercesc_3_1@@UEAA@XZ 000000001203584c f i XMLGrammarPoolImpl.obj
 0001:00034858       ??_EXPathScannerForSchema@xercesc_3_1@@UEAAPEAXI@Z 0000000012035858 f i XMLGrammarPoolImpl.obj
 0001:00034858       ??_EXPathScanner@xercesc_3_1@@UEAAPEAXI@Z 0000000012035858 f i XMLGrammarPoolImpl.obj
 0001:000348cc       ?getStepSize@XercesLocationPath@xercesc_3_1@@QEBA_KXZ 00000000120358cc f i XMLGrammarPoolImpl.obj
 0001:000348dc       ?addStep@XercesLocationPath@xercesc_3_1@@QEAAXQEAVXercesStep@2@@Z 00000000120358dc f i XMLGrammarPoolImpl.obj
 0001:000348e8       ?getStep@XercesLocationPath@xercesc_3_1@@QEBAPEAVXercesStep@2@_K@Z 00000000120358e8 f i XMLGrammarPoolImpl.obj
 0001:00034908       ?addToken@XPathScanner@xercesc_3_1@@MEAAXQEAV?$ValueVectorOf@H@2@H@Z 0000000012035908 f i XMLGrammarPoolImpl.obj
 0001:00034924       ?getLineCol@XSAnnotation@xercesc_3_1@@QEBAXAEA_K0@Z 0000000012035924 f i XMLGrammarPoolImpl.obj
 0001:00034934       ?setLineCol@XSAnnotation@xercesc_3_1@@QEAAX_K0@Z 0000000012035934 f i XMLGrammarPoolImpl.obj
 0001:00034940       ??_FDTDGrammar@xercesc_3_1@@QEAAXXZ 0000000012035940 f i XMLGrammarPoolImpl.obj
 0001:0003494c       ?getElemEnumerator@DTDGrammar@xercesc_3_1@@QEBA?AV?$NameIdPoolEnumerator@VDTDElementDecl@xercesc_3_1@@@2@XZ 000000001203594c f i XMLGrammarPoolImpl.obj
 0001:00034978       ?getEntityEnumerator@DTDGrammar@xercesc_3_1@@QEBA?AV?$NameIdPoolEnumerator@VDTDEntityDecl@xercesc_3_1@@@2@XZ 0000000012035978 f i XMLGrammarPoolImpl.obj
 0001:000349a4       ?getNotationEnumerator@DTDGrammar@xercesc_3_1@@QEBA?AV?$NameIdPoolEnumerator@VXMLNotationDecl@xercesc_3_1@@@2@XZ 00000000120359a4 f i XMLGrammarPoolImpl.obj
 0001:000349d0       ?getEntityDecl@DTDGrammar@xercesc_3_1@@QEBAPEBVDTDEntityDecl@2@QEB_W@Z 00000000120359d0 f i XMLGrammarPoolImpl.obj
 0001:000349d0       ?getEntityDecl@DTDGrammar@xercesc_3_1@@QEAAPEAVDTDEntityDecl@2@QEB_W@Z 00000000120359d0 f i XMLGrammarPoolImpl.obj
 0001:00034a4c       ?putEntityDecl@DTDGrammar@xercesc_3_1@@QEBA_KQEAVDTDEntityDecl@2@@Z 0000000012035a4c f i XMLGrammarPoolImpl.obj
 0001:00034a58       ?getTargetNamespace@DTDGrammar@xercesc_3_1@@UEBAPEB_WXZ 0000000012035a58 f i XMLGrammarPoolImpl.obj
 0001:00034a60       ?getElemId@DTDGrammar@xercesc_3_1@@UEBA_KIQEB_W0I@Z 0000000012035a60 f i XMLGrammarPoolImpl.obj
 0001:00034aa0       ?getElemDecl@DTDGrammar@xercesc_3_1@@UEAAPEAVXMLElementDecl@2@IQEB_W0I@Z 0000000012035aa0 f i XMLGrammarPoolImpl.obj
 0001:00034aa0       ?getElemDecl@DTDGrammar@xercesc_3_1@@UEBAPEBVXMLElementDecl@2@IQEB_W0I@Z 0000000012035aa0 f i XMLGrammarPoolImpl.obj
 0001:00034b18       ?getElemDecl@DTDGrammar@xercesc_3_1@@UEBAPEBVXMLElementDecl@2@I@Z 0000000012035b18 f i XMLGrammarPoolImpl.obj
 0001:00034b18       ?getElemDecl@DTDGrammar@xercesc_3_1@@UEAAPEAVXMLElementDecl@2@I@Z 0000000012035b18 f i XMLGrammarPoolImpl.obj
 0001:00034b90       ?putElemDecl@DTDGrammar@xercesc_3_1@@UEAA_KQEAVXMLElementDecl@2@_N@Z 0000000012035b90 f i XMLGrammarPoolImpl.obj
 0001:00034c14       ??_FXMLDTDDescriptionImpl@xercesc_3_1@@QEAAXXZ 0000000012035c14 f i XMLGrammarPoolImpl.obj
 0001:00034c34       ??_FXMLSchemaDescriptionImpl@xercesc_3_1@@QEAAXXZ 0000000012035c34 f i XMLGrammarPoolImpl.obj
 0001:00034c68       ?createXSModel@XMLGrammarPoolImpl@xercesc_3_1@@EEAAXXZ 0000000012035c68 f   XMLGrammarPoolImpl.obj
 0001:00034cf8       ??_GXSModel@xercesc_3_1@@QEAAPEAXI@Z 0000000012035cf8 f i XMLGrammarPoolImpl.obj
 0001:00034d34       ??1XMLGrammarPoolImpl@xercesc_3_1@@UEAA@XZ 0000000012035d34 f   XMLGrammarPoolImpl.obj
 0001:00034de4       ??0XMLGrammarPoolImpl@xercesc_3_1@@QEAA@QEAVMemoryManager@1@@Z 0000000012035de4 f   XMLGrammarPoolImpl.obj
 0001:00034ea0       ?cacheGrammar@XMLGrammarPoolImpl@xercesc_3_1@@UEAA_NQEAVGrammar@2@@Z 0000000012035ea0 f   XMLGrammarPoolImpl.obj
 0001:00034f28       ?retrieveGrammar@XMLGrammarPoolImpl@xercesc_3_1@@UEAAPEAVGrammar@2@QEAVXMLGrammarDescription@2@@Z 0000000012035f28 f   XMLGrammarPoolImpl.obj
 0001:00034f70       ?orphanGrammar@XMLGrammarPoolImpl@xercesc_3_1@@UEAAPEAVGrammar@2@QEB_W@Z 0000000012035f70 f   XMLGrammarPoolImpl.obj
 0001:00034fc0       ?getGrammarEnumerator@XMLGrammarPoolImpl@xercesc_3_1@@UEBA?AV?$RefHashTableOfEnumerator@VGrammar@xercesc_3_1@@UStringHasher@2@@2@XZ 0000000012035fc0 f   XMLGrammarPoolImpl.obj
 0001:00034fe8       ?clear@XMLGrammarPoolImpl@xercesc_3_1@@UEAA_NXZ 0000000012035fe8 f   XMLGrammarPoolImpl.obj
 0001:0003503c       ?lockPool@XMLGrammarPoolImpl@xercesc_3_1@@UEAAXXZ 000000001203603c f   XMLGrammarPoolImpl.obj
 0001:000350c4       ?unlockPool@XMLGrammarPoolImpl@xercesc_3_1@@UEAAXXZ 00000000120360c4 f   XMLGrammarPoolImpl.obj
 0001:00035134       ?createDTDGrammar@XMLGrammarPoolImpl@xercesc_3_1@@UEAAPEAVDTDGrammar@2@XZ 0000000012036134 f   XMLGrammarPoolImpl.obj
 0001:0003518c       ?createSchemaGrammar@XMLGrammarPoolImpl@xercesc_3_1@@UEAAPEAVSchemaGrammar@2@XZ 000000001203618c f   XMLGrammarPoolImpl.obj
 0001:000351e4       ?createDTDDescription@XMLGrammarPoolImpl@xercesc_3_1@@UEAAPEAVXMLDTDDescription@2@QEB_W@Z 00000000120361e4 f   XMLGrammarPoolImpl.obj
 0001:0003524c       ?createSchemaDescription@XMLGrammarPoolImpl@xercesc_3_1@@UEAAPEAVXMLSchemaDescription@2@QEB_W@Z 000000001203624c f   XMLGrammarPoolImpl.obj
 0001:000352b4       ?getXSModel@XMLGrammarPoolImpl@xercesc_3_1@@UEAAPEAVXSModel@2@AEA_N@Z 00000000120362b4 f   XMLGrammarPoolImpl.obj
 0001:000352f4       ?getURIStringPool@XMLGrammarPoolImpl@xercesc_3_1@@UEAAPEAVXMLStringPool@2@XZ 00000000120362f4 f   XMLGrammarPoolImpl.obj
 0001:00035304       ?serializeGrammars@XMLGrammarPoolImpl@xercesc_3_1@@UEAAXQEAVBinOutputStream@2@@Z 0000000012036304 f   XMLGrammarPoolImpl.obj
 0001:00035410       ?deserializeGrammars@XMLGrammarPoolImpl@xercesc_3_1@@UEAAXQEAVBinInputStream@2@@Z 0000000012036410 f   XMLGrammarPoolImpl.obj
 0001:000356f8       ?cleanUp@XMLGrammarPoolImpl@xercesc_3_1@@AEAAXXZ 00000000120366f8 f   XMLGrammarPoolImpl.obj
 0001:00035704       ??1?$XMLEnumerator@VSchemaElementDecl@xercesc_3_1@@@xercesc_3_1@@UEAA@XZ 0000000012036704 f i XMLGrammarPoolImpl.obj
 0001:00035710       ??1?$XMLEnumerator@VGrammar@xercesc_3_1@@@xercesc_3_1@@UEAA@XZ 0000000012036710 f i XMLGrammarPoolImpl.obj
 0001:0003571c       ??_E?$XMLEnumerator@VSchemaElementDecl@xercesc_3_1@@@xercesc_3_1@@UEAAPEAXI@Z 000000001203671c f i  CIL library: CIL module
 0001:0003571c       ??_G?$XMLEnumerator@VSchemaElementDecl@xercesc_3_1@@@xercesc_3_1@@UEAAPEAXI@Z 000000001203671c f i XMLGrammarPoolImpl.obj
 0001:00035744       ??_E?$XMLEnumerator@VXMLNotationDecl@xercesc_3_1@@@xercesc_3_1@@UEAAPEAXI@Z 0000000012036744 f i  CIL library: CIL module
 0001:00035744       ??_G?$XMLEnumerator@VXMLNotationDecl@xercesc_3_1@@@xercesc_3_1@@UEAAPEAXI@Z 0000000012036744 f i XMLGrammarPoolImpl.obj
 0001:0003576c       ??_E?$XMLEnumerator@VDTDElementDecl@xercesc_3_1@@@xercesc_3_1@@UEAAPEAXI@Z 000000001203676c f i  CIL library: CIL module
 0001:0003576c       ??_G?$XMLEnumerator@VDTDElementDecl@xercesc_3_1@@@xercesc_3_1@@UEAAPEAXI@Z 000000001203676c f i XMLGrammarPoolImpl.obj
 0001:00035794       ??_G?$XMLEnumerator@VDTDEntityDecl@xercesc_3_1@@@xercesc_3_1@@UEAAPEAXI@Z 0000000012036794 f i XMLGrammarPoolImpl.obj
 0001:00035794       ??_E?$XMLEnumerator@VDTDEntityDecl@xercesc_3_1@@@xercesc_3_1@@UEAAPEAXI@Z 0000000012036794 f i  CIL library: CIL module
 0001:000357bc       ??_G?$XMLEnumerator@VGrammar@xercesc_3_1@@@xercesc_3_1@@UEAAPEAXI@Z 00000000120367bc f i XMLGrammarPoolImpl.obj
 0001:000357bc       ??_E?$XMLEnumerator@VGrammar@xercesc_3_1@@@xercesc_3_1@@UEAAPEAXI@Z 00000000120367bc f i  CIL library: CIL module
 0001:000357e4       ??1?$BaseRefVectorOf@VSchemaAttDef@xercesc_3_1@@@xercesc_3_1@@UEAA@XZ 00000000120367e4 f i XMLGrammarPoolImpl.obj
 0001:000357f0       ??0?$RefVectorOf@VSchemaAttDef@xercesc_3_1@@@xercesc_3_1@@QEAA@_K_NQEAVMemoryManager@1@@Z 00000000120367f0 f i XMLGrammarPoolImpl.obj
 0001:00035864       ??0?$RefHash3KeysIdPoolEnumerator@VSchemaElementDecl@xercesc_3_1@@UStringHasher@2@@xercesc_3_1@@QEAA@QEAV?$RefHash3KeysIdPool@VSchemaElementDecl@xercesc_3_1@@UStringHasher@2@@1@_NQEAVMemoryManager@1@@Z 0000000012036864 f i XMLGrammarPoolImpl.obj
 0001:0003590c       ??1?$RefHash3KeysIdPoolEnumerator@VSchemaElementDecl@xercesc_3_1@@UStringHasher@2@@xercesc_3_1@@UEAA@XZ 000000001203690c f i XMLGrammarPoolImpl.obj
 0001:00035990       ?hasMoreElements@?$RefHash3KeysIdPoolEnumerator@VSchemaElementDecl@xercesc_3_1@@UStringHasher@2@@xercesc_3_1@@UEBA_NXZ 0000000012036990 f i XMLGrammarPoolImpl.obj
 0001:000359ac       ?nextElement@?$RefHash3KeysIdPoolEnumerator@VSchemaElementDecl@xercesc_3_1@@UStringHasher@2@@xercesc_3_1@@UEAAAEAVSchemaElementDecl@2@XZ 00000000120369ac f i XMLGrammarPoolImpl.obj
 0001:00035a2c       ?Reset@?$RefHash3KeysIdPoolEnumerator@VSchemaElementDecl@xercesc_3_1@@UStringHasher@2@@xercesc_3_1@@UEAAXXZ 0000000012036a2c f i XMLGrammarPoolImpl.obj
 0001:00035a40       ??1?$NameIdPoolEnumerator@VXMLNotationDecl@xercesc_3_1@@@xercesc_3_1@@UEAA@XZ 0000000012036a40 f i XMLGrammarPoolImpl.obj
 0001:00035a4c       ?hasMoreElements@?$NameIdPoolEnumerator@VDTDEntityDecl@xercesc_3_1@@@xercesc_3_1@@UEBA_NXZ 0000000012036a4c f i XMLGrammarPoolImpl.obj
 0001:00035a4c       ?hasMoreElements@?$NameIdPoolEnumerator@VXMLNotationDecl@xercesc_3_1@@@xercesc_3_1@@UEBA_NXZ 0000000012036a4c f i XMLGrammarPoolImpl.obj
 0001:00035a4c       ?hasMoreElements@?$NameIdPoolEnumerator@VDTDElementDecl@xercesc_3_1@@@xercesc_3_1@@UEBA_NXZ 0000000012036a4c f i XMLGrammarPoolImpl.obj
 0001:00035a68       ?nextElement@?$NameIdPoolEnumerator@VDTDEntityDecl@xercesc_3_1@@@xercesc_3_1@@UEAAAEAVDTDEntityDecl@2@XZ 0000000012036a68 f i XMLGrammarPoolImpl.obj
 0001:00035a68       ?nextElement@?$NameIdPoolEnumerator@VXMLNotationDecl@xercesc_3_1@@@xercesc_3_1@@UEAAAEAVXMLNotationDecl@2@XZ 0000000012036a68 f i XMLGrammarPoolImpl.obj
 0001:00035a68       ?nextElement@?$NameIdPoolEnumerator@VDTDElementDecl@xercesc_3_1@@@xercesc_3_1@@UEAAAEAVDTDElementDecl@2@XZ 0000000012036a68 f i XMLGrammarPoolImpl.obj
 0001:00035ae8       ??0?$RefHash3KeysIdPool@VSchemaElementDecl@xercesc_3_1@@UStringHasher@2@@xercesc_3_1@@QEAA@_K_N0QEAVMemoryManager@1@@Z 0000000012036ae8 f i XMLGrammarPoolImpl.obj
 0001:00035bc0       ?getById@?$RefHash3KeysIdPool@VSchemaElementDecl@xercesc_3_1@@UStringHasher@2@@xercesc_3_1@@QEAAPEAVSchemaElementDecl@2@I@Z 0000000012036bc0 f i XMLGrammarPoolImpl.obj
 0001:00035c34       ?put@?$RefHash3KeysIdPool@VSchemaElementDecl@xercesc_3_1@@UStringHasher@2@@xercesc_3_1@@QEAA_KPEAXHHQEAVSchemaElementDecl@2@@Z 0000000012036c34 f i XMLGrammarPoolImpl.obj
 0001:00035dc0       ?put@?$NameIdPool@VXMLNotationDecl@xercesc_3_1@@@xercesc_3_1@@QEAA_KQEAVXMLNotationDecl@2@@Z 0000000012036dc0 f i XMLGrammarPoolImpl.obj
 0001:00035fd8       ?addElement@?$BaseRefVectorOf@VXercesStep@xercesc_3_1@@@xercesc_3_1@@QEAAXQEAVXercesStep@2@@Z 0000000012036fd8 f i XMLGrammarPoolImpl.obj
 0001:00036008       ??1?$NameIdPoolEnumerator@VDTDElementDecl@xercesc_3_1@@@xercesc_3_1@@UEAA@XZ 0000000012037008 f i XMLGrammarPoolImpl.obj
 0001:00036014       ??1?$NameIdPoolEnumerator@VDTDEntityDecl@xercesc_3_1@@@xercesc_3_1@@UEAA@XZ 0000000012037014 f i XMLGrammarPoolImpl.obj
 0001:00036020       ?Reset@?$NameIdPoolEnumerator@VDTDElementDecl@xercesc_3_1@@@xercesc_3_1@@UEAAXXZ 0000000012037020 f i XMLGrammarPoolImpl.obj
 0001:00036020       ?Reset@?$NameIdPoolEnumerator@VDTDEntityDecl@xercesc_3_1@@@xercesc_3_1@@UEAAXXZ 0000000012037020 f i XMLGrammarPoolImpl.obj
 0001:00036020       ?Reset@?$NameIdPoolEnumerator@VXMLNotationDecl@xercesc_3_1@@@xercesc_3_1@@UEAAXXZ 0000000012037020 f i XMLGrammarPoolImpl.obj
 0001:00036034       ?put@?$NameIdPool@VDTDEntityDecl@xercesc_3_1@@@xercesc_3_1@@QEAA_KQEAVDTDEntityDecl@2@@Z 0000000012037034 f i XMLGrammarPoolImpl.obj
 0001:000361ac       ??0?$NameIdPool@VXMLNotationDecl@xercesc_3_1@@@xercesc_3_1@@QEAA@_K0QEAVMemoryManager@1@@Z 00000000120371ac f i XTemplateSerializer.obj
 0001:000361ac       ??0?$NameIdPool@VDTDElementDecl@xercesc_3_1@@@xercesc_3_1@@QEAA@_K0QEAVMemoryManager@1@@Z 00000000120371ac f i XMLGrammarPoolImpl.obj
 0001:000361ac       ??0?$NameIdPool@VDTDEntityDecl@xercesc_3_1@@@xercesc_3_1@@QEAA@_K0QEAVMemoryManager@1@@Z 00000000120371ac f i XTemplateSerializer.obj
 0001:00036298       ?put@?$NameIdPool@VDTDElementDecl@xercesc_3_1@@@xercesc_3_1@@QEAA_KQEAVDTDElementDecl@2@@Z 0000000012037298 f i XMLGrammarPoolImpl.obj
 0001:000364d0       ?orphanKey@?$RefHashTableOf@VGrammar@xercesc_3_1@@UStringHasher@2@@xercesc_3_1@@QEAAPEAVGrammar@2@QEBX@Z 00000000120374d0 f i XMLGrammarPoolImpl.obj
 0001:00036634       ?put@?$RefHashTableOf@VGrammar@xercesc_3_1@@UStringHasher@2@@xercesc_3_1@@QEAAXPEAXQEAVGrammar@2@@Z 0000000012037634 f i XMLGrammarPoolImpl.obj
 0001:00036634       ?put@?$RefHashTableOf@VComplexTypeInfo@xercesc_3_1@@UStringHasher@2@@xercesc_3_1@@QEAAXPEAXQEAVComplexTypeInfo@2@@Z 0000000012037634 f i XTemplateSerializer.obj
 0001:00036634       ?put@?$RefHashTableOf@VDTDEntityDecl@xercesc_3_1@@UStringHasher@2@@xercesc_3_1@@QEAAXPEAXQEAVDTDEntityDecl@2@@Z 0000000012037634 f i XMLGrammarPoolImpl.obj
 0001:00036634       ?put@?$RefHashTableOf@VXMLElementDecl@xercesc_3_1@@UStringHasher@2@@xercesc_3_1@@QEAAXPEAXQEAVXMLElementDecl@2@@Z 0000000012037634 f i WFXMLScanner.obj
 0001:00036634       ?put@?$RefHashTableOf@VDTDAttDef@xercesc_3_1@@UStringHasher@2@@xercesc_3_1@@QEAAXPEAXQEAVDTDAttDef@2@@Z 0000000012037634 f i XTemplateSerializer.obj
 0001:00036634       ?put@?$RefHashTableOf@VDOMElement@xercesc_3_1@@UStringHasher@2@@xercesc_3_1@@QEAAXPEAXQEAVDOMElement@2@@Z 0000000012037634 f i SchemaInfo.obj
 0001:00036634       ?put@?$RefHashTableOf@VKVStringPair@xercesc_3_1@@UStringHasher@2@@xercesc_3_1@@QEAAXPEAXQEAVKVStringPair@2@@Z 0000000012037634 f i XTemplateSerializer.obj
 0001:00036634       ?put@?$RefHashTableOf@VDatatypeValidator@xercesc_3_1@@UStringHasher@2@@xercesc_3_1@@QEAAXPEAXQEAVDatatypeValidator@2@@Z 0000000012037634 f i XTemplateSerializer.obj
 0001:00036634       ?put@?$RefHashTableOf@VXercesAttGroupInfo@xercesc_3_1@@UStringHasher@2@@xercesc_3_1@@QEAAXPEAXQEAVXercesAttGroupInfo@2@@Z 0000000012037634 f i XTemplateSerializer.obj
 0001:00036634       ?put@?$RefHashTableOf@VDTDElementDecl@xercesc_3_1@@UStringHasher@2@@xercesc_3_1@@QEAAXPEAXQEAVDTDElementDecl@2@@Z 0000000012037634 f i XMLGrammarPoolImpl.obj
 0001:00036634       ?put@?$RefHashTableOf@VXMLRefInfo@xercesc_3_1@@UStringHasher@2@@xercesc_3_1@@QEAAXPEAXQEAVXMLRefInfo@2@@Z 0000000012037634 f i ValidationContextImpl.obj
 0001:00036634       ?put@?$RefHashTableOf@VRangeFactory@xercesc_3_1@@UStringHasher@2@@xercesc_3_1@@QEAAXPEAXQEAVRangeFactory@2@@Z 0000000012037634 f i RangeTokenMap.obj
 0001:00036634       ?put@?$RefHashTableOf@VXMLNotationDecl@xercesc_3_1@@UStringHasher@2@@xercesc_3_1@@QEAAXPEAXQEAVXMLNotationDecl@2@@Z 0000000012037634 f i XMLGrammarPoolImpl.obj
 0001:00036634       ?put@?$RefHashTableOf@VXMLAttDef@xercesc_3_1@@UStringHasher@2@@xercesc_3_1@@QEAAXPEAXQEAVXMLAttDef@2@@Z 0000000012037634 f i XTemplateSerializer.obj
 0001:00036634       ?put@?$RefHashTableOf@VXercesGroupInfo@xercesc_3_1@@UStringHasher@2@@xercesc_3_1@@QEAAXPEAXQEAVXercesGroupInfo@2@@Z 0000000012037634 f i XTemplateSerializer.obj
 0001:000366f8       ??0?$RefHashTableOfEnumerator@VGrammar@xercesc_3_1@@UStringHasher@2@@xercesc_3_1@@QEAA@QEAV?$RefHashTableOf@VGrammar@xercesc_3_1@@UStringHasher@2@@1@_NQEAVMemoryManager@1@@Z 00000000120376f8 f i XMLGrammarPoolImpl.obj
 0001:0003678c       ??1?$RefHashTableOfEnumerator@VGrammar@xercesc_3_1@@UStringHasher@2@@xercesc_3_1@@UEAA@XZ 000000001203778c f i XMLGrammarPoolImpl.obj
 0001:00036800       ?Reset@?$RefHashTableOfEnumerator@VValueStore@xercesc_3_1@@UPtrHasher@2@@xercesc_3_1@@UEAAXXZ 0000000012037800 f i ValueStoreCache.obj
 0001:00036800       ?Reset@?$RefHashTableOfEnumerator@_WUStringHasher@xercesc_3_1@@@xercesc_3_1@@UEAAXXZ 0000000012037800 f i DOMNormalizer.obj
 0001:00036800       ?Reset@?$RefHashTableOfEnumerator@VComplexTypeInfo@xercesc_3_1@@UStringHasher@2@@xercesc_3_1@@UEAAXXZ 0000000012037800 f i XSModel.obj
 0001:00036800       ?Reset@?$RefHashTableOfEnumerator@VXSAnnotation@xercesc_3_1@@UPtrHasher@2@@xercesc_3_1@@UEAAXXZ 0000000012037800 f i XTemplateSerializer.obj
 0001:00036800       ?Reset@?$RefHashTableOfEnumerator@VGrammar@xercesc_3_1@@UStringHasher@2@@xercesc_3_1@@UEAAXXZ 0000000012037800 f i XMLGrammarPoolImpl.obj
 0001:00036800       ?Reset@?$RefHashTableOfEnumerator@VXercesGroupInfo@xercesc_3_1@@UStringHasher@2@@xercesc_3_1@@UEAAXXZ 0000000012037800 f i XSModel.obj
 0001:00036800       ?Reset@?$RefHashTableOfEnumerator@VFieldValueMap@xercesc_3_1@@UICValueHasher@2@@xercesc_3_1@@UEAAXXZ 0000000012037800 f i ValueStore.obj
 0001:00036800       ?Reset@?$RefHashTableOfEnumerator@VXMLRefInfo@xercesc_3_1@@UStringHasher@2@@xercesc_3_1@@UEAAXXZ 0000000012037800 f i XMLScanner.obj
 0001:00036800       ?Reset@?$RefHashTableOfEnumerator@VDTDAttDef@xercesc_3_1@@UStringHasher@2@@xercesc_3_1@@UEAAXXZ 0000000012037800 f i XTemplateSerializer.obj
 0001:00036800       ?Reset@?$RefHashTableOfEnumerator@VXMLAttDef@xercesc_3_1@@UStringHasher@2@@xercesc_3_1@@UEAAXXZ 0000000012037800 f i XSModel.obj
 0001:00036800       ?Reset@?$RefHashTableOfEnumerator@VDatatypeValidator@xercesc_3_1@@UStringHasher@2@@xercesc_3_1@@UEAAXXZ 0000000012037800 f i XSModel.obj
 0001:00036800       ?Reset@?$RefHashTableOfEnumerator@VXercesAttGroupInfo@xercesc_3_1@@UStringHasher@2@@xercesc_3_1@@UEAAXXZ 0000000012037800 f i XSModel.obj
 0001:00036800       ?Reset@?$RefHashTableOfEnumerator@VKVStringPair@xercesc_3_1@@UStringHasher@2@@xercesc_3_1@@UEAAXXZ 0000000012037800 f i XSObjectFactory.obj
 0001:00036810       ??_E?$BaseRefVectorOf@VSchemaAttDef@xercesc_3_1@@@xercesc_3_1@@UEAAPEAXI@Z 0000000012037810 f i  CIL library: CIL module
 0001:00036810       ??_G?$BaseRefVectorOf@VSchemaAttDef@xercesc_3_1@@@xercesc_3_1@@UEAAPEAXI@Z 0000000012037810 f i XMLGrammarPoolImpl.obj
 0001:00036840       ??_E?$RefVectorOf@VSchemaAttDef@xercesc_3_1@@@xercesc_3_1@@UEAAPEAXI@Z 0000000012037840 f i  CIL library: CIL module
 0001:00036840       ??_G?$RefVectorOf@VSchemaAttDef@xercesc_3_1@@@xercesc_3_1@@UEAAPEAXI@Z 0000000012037840 f i XMLGrammarPoolImpl.obj
 0001:000368dc       ??_E?$RefHash3KeysIdPoolEnumerator@VSchemaElementDecl@xercesc_3_1@@UStringHasher@2@@xercesc_3_1@@UEAAPEAXI@Z 00000000120378dc f i  CIL library: CIL module
 0001:000368dc       ??_G?$RefHash3KeysIdPoolEnumerator@VSchemaElementDecl@xercesc_3_1@@UStringHasher@2@@xercesc_3_1@@UEAAPEAXI@Z 00000000120378dc f i XMLGrammarPoolImpl.obj
 0001:00036918       ??_G?$NameIdPoolEnumerator@VXMLNotationDecl@xercesc_3_1@@@xercesc_3_1@@UEAAPEAXI@Z 0000000012037918 f i XMLGrammarPoolImpl.obj
 0001:00036918       ??_E?$NameIdPoolEnumerator@VXMLNotationDecl@xercesc_3_1@@@xercesc_3_1@@UEAAPEAXI@Z 0000000012037918 f i  CIL library: CIL module
 0001:00036948       ??_E?$NameIdPoolEnumerator@VDTDElementDecl@xercesc_3_1@@@xercesc_3_1@@UEAAPEAXI@Z 0000000012037948 f i  CIL library: CIL module
 0001:00036948       ??_G?$NameIdPoolEnumerator@VDTDElementDecl@xercesc_3_1@@@xercesc_3_1@@UEAAPEAXI@Z 0000000012037948 f i XMLGrammarPoolImpl.obj
 0001:00036978       ??_G?$NameIdPoolEnumerator@VDTDEntityDecl@xercesc_3_1@@@xercesc_3_1@@UEAAPEAXI@Z 0000000012037978 f i XMLGrammarPoolImpl.obj
 0001:00036978       ??_E?$NameIdPoolEnumerator@VDTDEntityDecl@xercesc_3_1@@@xercesc_3_1@@UEAAPEAXI@Z 0000000012037978 f i  CIL library: CIL module
 0001:000369a8       ??_G?$RefHashTableOfEnumerator@VGrammar@xercesc_3_1@@UStringHasher@2@@xercesc_3_1@@UEAAPEAXI@Z 00000000120379a8 f i XMLGrammarPoolImpl.obj
 0001:000369a8       ??_E?$RefHashTableOfEnumerator@VGrammar@xercesc_3_1@@UStringHasher@2@@xercesc_3_1@@UEAAPEAXI@Z 00000000120379a8 f i  CIL library: CIL module
 0001:000369e4       ?findBucketElem@?$RefHash3KeysIdPool@VSchemaElementDecl@xercesc_3_1@@UStringHasher@2@@xercesc_3_1@@AEAAPEAU?$RefHash3KeysTableBucketElem@VSchemaElementDecl@xercesc_3_1@@@2@QEBXHHAEA_K@Z 00000000120379e4 f i XMLGrammarPoolImpl.obj
 0001:00036ad4       ??1?$RefHashTableOf@VXMLNotationDecl@xercesc_3_1@@UStringHasher@2@@xercesc_3_1@@QEAA@XZ 0000000012037ad4 f i XTemplateSerializer.obj
 0001:00036ad4       ??1?$RefHashTableOf@VDTDEntityDecl@xercesc_3_1@@UStringHasher@2@@xercesc_3_1@@QEAA@XZ 0000000012037ad4 f i XTemplateSerializer.obj
 0001:00036ad4       ??1?$RefHashTableOf@VDTDElementDecl@xercesc_3_1@@UStringHasher@2@@xercesc_3_1@@QEAA@XZ 0000000012037ad4 f i XMLGrammarPoolImpl.obj
 0001:00036afc       ?findNext@?$RefHashTableOfEnumerator@VXercesAttGroupInfo@xercesc_3_1@@UStringHasher@2@@xercesc_3_1@@AEAAXXZ 0000000012037afc f i XSModel.obj
 0001:00036afc       ?findNext@?$RefHashTableOfEnumerator@VValueStore@xercesc_3_1@@UPtrHasher@2@@xercesc_3_1@@AEAAXXZ 0000000012037afc f i ValueStoreCache.obj
 0001:00036afc       ?findNext@?$RefHashTableOfEnumerator@VXercesGroupInfo@xercesc_3_1@@UStringHasher@2@@xercesc_3_1@@AEAAXXZ 0000000012037afc f i XSModel.obj
 0001:00036afc       ?findNext@?$RefHashTableOfEnumerator@VFieldValueMap@xercesc_3_1@@UICValueHasher@2@@xercesc_3_1@@AEAAXXZ 0000000012037afc f i ValueStore.obj
 0001:00036afc       ?findNext@?$RefHashTableOfEnumerator@VGrammar@xercesc_3_1@@UStringHasher@2@@xercesc_3_1@@AEAAXXZ 0000000012037afc f i XMLGrammarPoolImpl.obj
 0001:00036afc       ?findNext@?$RefHashTableOfEnumerator@VXMLAttDef@xercesc_3_1@@UStringHasher@2@@xercesc_3_1@@AEAAXXZ 0000000012037afc f i XSModel.obj
 0001:00036afc       ?findNext@?$RefHashTableOfEnumerator@VXSAnnotation@xercesc_3_1@@UPtrHasher@2@@xercesc_3_1@@AEAAXXZ 0000000012037afc f i XTemplateSerializer.obj
 0001:00036afc       ?findNext@?$RefHashTableOfEnumerator@VKVStringPair@xercesc_3_1@@UStringHasher@2@@xercesc_3_1@@AEAAXXZ 0000000012037afc f i XSObjectFactory.obj
 0001:00036afc       ?findNext@?$RefHashTableOfEnumerator@_WUStringHasher@xercesc_3_1@@@xercesc_3_1@@AEAAXXZ 0000000012037afc f i DOMNormalizer.obj
 0001:00036afc       ?findNext@?$RefHashTableOfEnumerator@VDTDAttDef@xercesc_3_1@@UStringHasher@2@@xercesc_3_1@@AEAAXXZ 0000000012037afc f i XTemplateSerializer.obj
 0001:00036afc       ?findNext@?$RefHashTableOfEnumerator@VComplexTypeInfo@xercesc_3_1@@UStringHasher@2@@xercesc_3_1@@AEAAXXZ 0000000012037afc f i XSModel.obj
 0001:00036afc       ?findNext@?$RefHashTableOfEnumerator@VDatatypeValidator@xercesc_3_1@@UStringHasher@2@@xercesc_3_1@@AEAAXXZ 0000000012037afc f i XSModel.obj
 0001:00036afc       ?findNext@?$RefHashTableOfEnumerator@VXMLRefInfo@xercesc_3_1@@UStringHasher@2@@xercesc_3_1@@AEAAXXZ 0000000012037afc f i XMLScanner.obj
 0001:00036b48       ?removeAll@?$RefHashTableOf@VXMLRefInfo@xercesc_3_1@@UStringHasher@2@@xercesc_3_1@@QEAAXXZ 0000000012037b48 f i ValidationContextImpl.obj
 0001:00036b48       ?removeAll@?$RefHashTableOf@VXMLElementDecl@xercesc_3_1@@UStringHasher@2@@xercesc_3_1@@QEAAXXZ 0000000012037b48 f i WFXMLScanner.obj
 0001:00036b48       ?removeAll@?$RefHashTableOf@VDTDElementDecl@xercesc_3_1@@UStringHasher@2@@xercesc_3_1@@QEAAXXZ 0000000012037b48 f i XMLGrammarPoolImpl.obj
 0001:00036b48       ?removeAll@?$RefHashTableOf@VGrammar@xercesc_3_1@@UStringHasher@2@@xercesc_3_1@@QEAAXXZ 0000000012037b48 f i XMLGrammarPoolImpl.obj
 0001:00036b48       ?removeAll@?$RefHashTableOf@VXSAnnotation@xercesc_3_1@@UPtrHasher@2@@xercesc_3_1@@QEAAXXZ 0000000012037b48 f i XTemplateSerializer.obj
 0001:00036b48       ?removeAll@?$RefHashTableOf@VDatatypeValidator@xercesc_3_1@@UStringHasher@2@@xercesc_3_1@@QEAAXXZ 0000000012037b48 f i XMLGrammarPoolImpl.obj
 0001:00036b48       ?removeAll@?$RefHashTableOf@VXMLNotationDecl@xercesc_3_1@@UStringHasher@2@@xercesc_3_1@@QEAAXXZ 0000000012037b48 f i XTemplateSerializer.obj
 0001:00036b48       ?removeAll@?$RefHashTableOf@VDTDEntityDecl@xercesc_3_1@@UStringHasher@2@@xercesc_3_1@@QEAAXXZ 0000000012037b48 f i XTemplateSerializer.obj
 0001:00036bd8       ?findNext@?$RefHash3KeysIdPoolEnumerator@VSchemaElementDecl@xercesc_3_1@@UStringHasher@2@@xercesc_3_1@@AEAAXXZ 0000000012037bd8 f i XMLGrammarPoolImpl.obj
 0001:00036c24       ?removeAll@?$RefHash3KeysIdPool@VSchemaElementDecl@xercesc_3_1@@UStringHasher@2@@xercesc_3_1@@QEAAXXZ 0000000012037c24 f i XMLGrammarPoolImpl.obj
 0001:00036cb4       ??_EXMLNotationDecl@xercesc_3_1@@UEAAPEAXI@Z 0000000012037cb4 f i XMLNotationDecl.obj
 0001:00036d28       ??0XMLNotationDecl@xercesc_3_1@@QEAA@QEAVMemoryManager@1@@Z 0000000012037d28 f   XMLNotationDecl.obj
 0001:00036d54       ??0XMLNotationDecl@xercesc_3_1@@QEAA@QEB_W000QEAVMemoryManager@1@@Z 0000000012037d54 f   XMLNotationDecl.obj
 0001:00036f00       ??1XMLNotationDecl@xercesc_3_1@@UEAA@XZ 0000000012037f00 f   XMLNotationDecl.obj
 0001:00036f38       ?setName@XMLNotationDecl@xercesc_3_1@@QEAAXQEB_W@Z 0000000012037f38 f   XMLNotationDecl.obj
 0001:00036fbc       ?cleanUp@XMLNotationDecl@xercesc_3_1@@AEAAXXZ 0000000012037fbc f   XMLNotationDecl.obj
 0001:00037004       ?createObject@XMLNotationDecl@xercesc_3_1@@SAPEAVXSerializable@2@PEAVMemoryManager@2@@Z 0000000012038004 f   XMLNotationDecl.obj
 0001:00037054       ?getProtoType@XMLNotationDecl@xercesc_3_1@@UEBAPEAVXProtoType@2@XZ 0000000012038054 f   XMLNotationDecl.obj
 0001:0003705c       ?serialize@XMLNotationDecl@xercesc_3_1@@UEAAXAEAVXSerializeEngine@2@@Z 000000001203805c f   XMLNotationDecl.obj
 0001:00037168       ?basicEncodingProbe@XMLRecognizer@xercesc_3_1@@SA?AW4Encodings@12@QEBE_K@Z 0000000012038168 f   XMLRecognizer.obj
 0001:000372e0       ?encodingForName@XMLRecognizer@xercesc_3_1@@SA?AW4Encodings@12@QEB_W@Z 00000000120382e0 f   XMLRecognizer.obj
 0001:000374b8       ?nameForEncoding@XMLRecognizer@xercesc_3_1@@SAPEB_WW4Encodings@12@QEAVMemoryManager@2@@Z 00000000120384b8 f   XMLRecognizer.obj
 0001:00037528       ?createObject@XMLRefInfo@xercesc_3_1@@SAPEAVXSerializable@2@PEAVMemoryManager@2@@Z 0000000012038528 f   XMLRefInfo.obj
 0001:00037568       ?isSerializable@IDDatatypeValidator@xercesc_3_1@@UEBA_NXZ 0000000012038568 f   IDDatatypeValidator.obj
 0001:00037568       ?isSerializable@DateTimeDatatypeValidator@xercesc_3_1@@UEBA_NXZ 0000000012038568 f   DateTimeDatatypeValidator.obj
 0001:00037568       ?isSerializable@FloatDatatypeValidator@xercesc_3_1@@UEBA_NXZ 0000000012038568 f   FloatDatatypeValidator.obj
 0001:00037568       ?isSerializable@IC_Field@xercesc_3_1@@UEBA_NXZ 0000000012038568 f   IC_Field.obj
 0001:00037568       ?isSerializable@XercesLocationPath@xercesc_3_1@@UEBA_NXZ 0000000012038568 f   XercesXPath.obj
 0001:00037568       ?isSerializable@IdentityConstraint@xercesc_3_1@@UEBA_NXZ 0000000012038568 f   IdentityConstraint.obj
 0001:00037568       ?canTranscodeTo@XMLUTF16Transcoder@xercesc_3_1@@UEAA_NI@Z 0000000012038568 f   XMLUTF16Transcoder.obj
 0001:00037568       ?isSerializable@DateDatatypeValidator@xercesc_3_1@@UEBA_NXZ 0000000012038568 f   DateDatatypeValidator.obj
 0001:00037568       ?isSerializable@Base64BinaryDatatypeValidator@xercesc_3_1@@UEBA_NXZ 0000000012038568 f   Base64BinaryDatatypeValidator.obj
 0001:00037568       ?isAtomic@DatatypeValidator@xercesc_3_1@@UEBA_NXZ 0000000012038568 f   XMLAttr.obj
 0001:00037568       ?isSerializable@XMLBigDecimal@xercesc_3_1@@UEBA_NXZ 0000000012038568 f   XMLBigDecimal.obj
 0001:00037568       ?isSerializable@TimeDatatypeValidator@xercesc_3_1@@UEBA_NXZ 0000000012038568 f   TimeDatatypeValidator.obj
 0001:00037568       ?isSerializable@XMLAttDefList@xercesc_3_1@@UEBA_NXZ 0000000012038568 f   XMLAttDefList.obj
 0001:00037568       ?isSerializable@XMLDouble@xercesc_3_1@@UEBA_NXZ 0000000012038568 f   XMLDouble.obj
 0001:00037568       ?handlesDTD@DTDValidator@xercesc_3_1@@UEBA_NXZ 0000000012038568 f   DGXMLScanner.obj
 0001:00037568       ?isSerializable@UnionDatatypeValidator@xercesc_3_1@@UEBA_NXZ 0000000012038568 f   UnionDatatypeValidator.obj
 0001:00037568       ?isSerializable@XMLElementDecl@xercesc_3_1@@UEBA_NXZ 0000000012038568 f   XMLElementDecl.obj
 0001:00037568       ?isSerializable@BooleanDatatypeValidator@xercesc_3_1@@UEBA_NXZ 0000000012038568 f   BooleanDatatypeValidator.obj
 0001:00037568       ?isSerializable@NOTATIONDatatypeValidator@xercesc_3_1@@UEBA_NXZ 0000000012038568 f   NOTATIONDatatypeValidator.obj
 0001:00037568       ?isSerializable@XMLDTDDescriptionImpl@xercesc_3_1@@UEBA_NXZ 0000000012038568 f   XMLDTDDescriptionImpl.obj
 0001:00037568       ?isSerializable@MonthDatatypeValidator@xercesc_3_1@@UEBA_NXZ 0000000012038568 f   MonthDatatypeValidator.obj
 0001:00037568       ?isSerializable@XMLFloat@xercesc_3_1@@UEBA_NXZ 0000000012038568 f   XMLFloat.obj
 0001:00037568       ?isSerializable@XMLAbstractDoubleFloat@xercesc_3_1@@UEBA_NXZ 0000000012038568 f   XMLAbstractDoubleFloat.obj
 0001:00037568       ?isRepeatableLeaf@CMRepeatingLeaf@xercesc_3_1@@UEBA_NXZ 0000000012038568 f   DFAContentModel.obj
 0001:00037568       ?isSerializable@SchemaAttDef@xercesc_3_1@@UEBA_NXZ 0000000012038568 f   SchemaAttDef.obj
 0001:00037568       ?isSerializable@XercesAttGroupInfo@xercesc_3_1@@UEBA_NXZ 0000000012038568 f   XercesAttGroupInfo.obj
 0001:00037568       ?isSerializable@XMLAttDef@xercesc_3_1@@UEBA_NXZ 0000000012038568 f   XMLAttDef.obj
 0001:00037568       ?isSerializable@DTDAttDefList@xercesc_3_1@@UEBA_NXZ 0000000012038568 f   DTDAttDefList.obj
 0001:00037568       ?isSerializable@ContentSpecNode@xercesc_3_1@@UEBA_NXZ 0000000012038568 f   ContentSpecNode.obj
 0001:00037568       ?isSerializable@NCNameDatatypeValidator@xercesc_3_1@@UEBA_NXZ 0000000012038568 f   NCNameDatatypeValidator.obj
 0001:00037568       ?isSerializable@SchemaElementDecl@xercesc_3_1@@UEBA_NXZ 0000000012038568 f   SchemaElementDecl.obj
 0001:00037568       ?isSerializable@ListDatatypeValidator@xercesc_3_1@@UEBA_NXZ 0000000012038568 f   ListDatatypeValidator.obj
 0001:00037568       ?isSerializable@XMLNotationDecl@xercesc_3_1@@UEBA_NXZ 0000000012038568 f   XMLNotationDecl.obj
 0001:00037568       ?isSerializable@XMLDateTime@xercesc_3_1@@UEBA_NXZ 0000000012038568 f   XMLDateTime.obj
 0001:00037568       ?isSerializable@XercesGroupInfo@xercesc_3_1@@UEBA_NXZ 0000000012038568 f   XercesGroupInfo.obj
 0001:00037568       ?isSerializable@ENTITYDatatypeValidator@xercesc_3_1@@UEBA_NXZ 0000000012038568 f   ENTITYDatatypeValidator.obj
 0001:00037568       ?handleRepetitions@AllContentModel@xercesc_3_1@@UEBA_NQEBVQName@2@IIAEAI1_KPEAVSubstitutionGroupComparator@2@@Z 0000000012038568 f   AllContentModel.obj
 0001:00037568       ?supportsSrcOfs@Win32TransService@xercesc_3_1@@UEBA_NXZ 0000000012038568 f   Win32TransService.obj
 0001:00037568       ?isSerializable@IC_Selector@xercesc_3_1@@UEBA_NXZ 0000000012038568 f   IC_Selector.obj
 0001:00037568       ?isSerializable@AbstractNumericValidator@xercesc_3_1@@UEBA_NXZ 0000000012038568 f   AbstractNumericValidator.obj
 0001:00037568       ?isSerializable@HexBinaryDatatypeValidator@xercesc_3_1@@UEBA_NXZ 0000000012038568 f   HexBinaryDatatypeValidator.obj
 0001:00037568       ?isSerializable@DateTimeValidator@xercesc_3_1@@UEBA_NXZ 0000000012038568 f   DateTimeValidator.obj
 0001:00037568       ?isSerializable@XMLEntityDecl@xercesc_3_1@@UEBA_NXZ 0000000012038568 f   XMLEntityDecl.obj
 0001:00037568       ?canTranscodeTo@XMLChTranscoder@xercesc_3_1@@UEAA_NI@Z 0000000012038568 f   XMLChTranscoder.obj
 0001:00037568       ?isSerializable@DatatypeValidatorFactory@xercesc_3_1@@UEBA_NXZ 0000000012038568 f   DatatypeValidatorFactory.obj
 0001:00037568       ?isSerializable@XercesXPath@xercesc_3_1@@UEBA_NXZ 0000000012038568 f   XercesXPath.obj
 0001:00037568       ?isPrefixUnknown@ValidationContext@xercesc_3_1@@UEAA_NPEA_W@Z 0000000012038568 f   XMLAttr.obj
 0001:00037568       ?isSerializable@DayDatatypeValidator@xercesc_3_1@@UEBA_NXZ 0000000012038568 f   DayDatatypeValidator.obj
 0001:00037568       ?isSerializable@DurationDatatypeValidator@xercesc_3_1@@UEBA_NXZ 0000000012038568 f   DurationDatatypeValidator.obj
 0001:00037568       ?isSerializable@AbstractStringValidator@xercesc_3_1@@UEBA_NXZ 0000000012038568 f   AbstractStringValidator.obj
 0001:00037568       ?isSubstitutableBy@AnySimpleTypeDatatypeValidator@xercesc_3_1@@UEAA_NQEBVDatatypeValidator@2@@Z 0000000012038568 f   AnySimpleTypeDatatypeValidator.obj
 0001:00037568       ?isSerializable@XMLSchemaDescriptionImpl@xercesc_3_1@@UEBA_NXZ 0000000012038568 f   XMLSchemaDescriptionImpl.obj
 0001:00037568       ?isSerializable@XMLSchemaDescription@xercesc_3_1@@UEBA_NXZ 0000000012038568 f   XMLSchemaDescription.obj
 0001:00037568       ?isSerializable@YearMonthDatatypeValidator@xercesc_3_1@@UEBA_NXZ 0000000012038568 f   YearMonthDatatypeValidator.obj
 0001:00037568       ?isSerializable@AnySimpleTypeDatatypeValidator@xercesc_3_1@@UEBA_NXZ 0000000012038568 f   AnySimpleTypeDatatypeValidator.obj
 0001:00037568       ?isSerializable@XMLRefInfo@xercesc_3_1@@UEBA_NXZ 0000000012038568 f   XMLRefInfo.obj
 0001:00037568       ?isSerializable@DTDElementDecl@xercesc_3_1@@UEBA_NXZ 0000000012038568 f   DTDElementDecl.obj
 0001:00037568       ?isSerializable@XercesStep@xercesc_3_1@@UEBA_NXZ 0000000012038568 f   XercesXPath.obj
 0001:00037568       ?isSerializable@IC_Key@xercesc_3_1@@UEBA_NXZ 0000000012038568 f   IC_Key.obj
 0001:00037568       ?isSerializable@AnyURIDatatypeValidator@xercesc_3_1@@UEBA_NXZ 0000000012038568 f   AnyURIDatatypeValidator.obj
 0001:00037568       ?isSerializable@QNameDatatypeValidator@xercesc_3_1@@UEBA_NXZ 0000000012038568 f   QNameDatatypeValidator.obj
 0001:00037568       ?isSerializable@IC_Unique@xercesc_3_1@@UEBA_NXZ 0000000012038568 f   IC_Unique.obj
 0001:00037568       ?handleRepetitions@SimpleContentModel@xercesc_3_1@@UEBA_NQEBVQName@2@IIAEAI1_KPEAVSubstitutionGroupComparator@2@@Z 0000000012038568 f   DTDElementDecl.obj
 0001:00037568       ?requiresNamespaces@SchemaValidator@xercesc_3_1@@UEBA_NXZ 0000000012038568 f   SchemaValidator.obj
 0001:00037568       ?isSerializable@XMLStringPool@xercesc_3_1@@UEBA_NXZ 0000000012038568 f   StringPool.obj
 0001:00037568       ?isSerializable@DTDAttDef@xercesc_3_1@@UEBA_NXZ 0000000012038568 f   DTDAttDef.obj
 0001:00037568       ?isSerializable@KVStringPair@xercesc_3_1@@UEBA_NXZ 0000000012038568 f   KVStringPair.obj
 0001:00037568       ?isSerializable@Grammar@xercesc_3_1@@UEBA_NXZ 0000000012038568 f   Grammar.obj
 0001:00037568       ?isSerializable@IC_KeyRef@xercesc_3_1@@UEBA_NXZ 0000000012038568 f   IC_KeyRef.obj
 0001:00037568       ?isSerializable@QName@xercesc_3_1@@UEBA_NXZ 0000000012038568 f   QName.obj
 0001:00037568       ?isSerializable@YearDatatypeValidator@xercesc_3_1@@UEBA_NXZ 0000000012038568 f   YearDatatypeValidator.obj
 0001:00037568       ?isSerializable@XMLGrammarDescription@xercesc_3_1@@UEBA_NXZ 0000000012038568 f   XMLGrammarDescription.obj
 0001:00037568       ?isSerializable@XMLDTDDescription@xercesc_3_1@@UEBA_NXZ 0000000012038568 f   XMLDTDDescription.obj
 0001:00037568       ?isSerializable@DoubleDatatypeValidator@xercesc_3_1@@UEBA_NXZ 0000000012038568 f   DoubleDatatypeValidator.obj
 0001:00037568       ?isSerializable@AbstractNumericFacetValidator@xercesc_3_1@@UEBA_NXZ 0000000012038568 f   AbstractNumericFacetValidator.obj
 0001:00037568       ?isSerializable@SchemaGrammar@xercesc_3_1@@UEBA_NXZ 0000000012038568 f   SchemaGrammar.obj
 0001:00037568       ?isSerializable@DTDGrammar@xercesc_3_1@@UEBA_NXZ 0000000012038568 f   DTDGrammar.obj
 0001:00037568       ?isSerializable@XMLUri@xercesc_3_1@@UEBA_NXZ 0000000012038568 f   XMLUri.obj
 0001:00037568       ?isSerializable@ComplexTypeInfo@xercesc_3_1@@UEBA_NXZ 0000000012038568 f   ComplexTypeInfo.obj
 0001:00037568       ?isSerializable@NameDatatypeValidator@xercesc_3_1@@UEBA_NXZ 0000000012038568 f   NameDatatypeValidator.obj
 0001:00037568       ?handlesSchema@SchemaValidator@xercesc_3_1@@UEBA_NXZ 0000000012038568 f   IGXMLScanner.obj
 0001:00037568       ?isSerializable@DTDEntityDecl@xercesc_3_1@@UEBA_NXZ 0000000012038568 f   DTDEntityDecl.obj
 0001:00037568       ?isSerializable@XSAnnotation@xercesc_3_1@@UEBA_NXZ 0000000012038568 f   XSAnnotation.obj
 0001:00037568       ?isSerializable@DatatypeValidator@xercesc_3_1@@UEBA_NXZ 0000000012038568 f   DatatypeValidator.obj
 0001:00037568       ?isSerializable@SchemaAttDefList@xercesc_3_1@@UEBA_NXZ 0000000012038568 f   SchemaAttDefList.obj
 0001:00037568       ?isSerializable@DecimalDatatypeValidator@xercesc_3_1@@UEBA_NXZ 0000000012038568 f   DecimalDatatypeValidator.obj
 0001:00037568       ?isSerializable@XercesNodeTest@xercesc_3_1@@UEBA_NXZ 0000000012038568 f   XercesXPath.obj
 0001:00037568       ?isSerializable@MonthDayDatatypeValidator@xercesc_3_1@@UEBA_NXZ 0000000012038568 f   MonthDayDatatypeValidator.obj
 0001:00037568       ?canTranscodeTo@XMLUCS4Transcoder@xercesc_3_1@@UEAA_NI@Z 0000000012038568 f   XMLUCS4Transcoder.obj
 0001:00037568       ?isSerializable@IDREFDatatypeValidator@xercesc_3_1@@UEBA_NXZ 0000000012038568 f   IDREFDatatypeValidator.obj
 0001:00037568       ?handleRepetitions@MixedContentModel@xercesc_3_1@@UEBA_NQEBVQName@2@IIAEAI1_KPEAVSubstitutionGroupComparator@2@@Z 0000000012038568 f   MixedContentModel.obj
 0001:00037568       ?isSerializable@XMLNumber@xercesc_3_1@@UEBA_NXZ 0000000012038568 f   XMLNumber.obj
 0001:00037568       ?isSerializable@StringDatatypeValidator@xercesc_3_1@@UEBA_NXZ 0000000012038568 f   StringDatatypeValidator.obj
 0001:0003756c       ?getProtoType@XMLRefInfo@xercesc_3_1@@UEBAPEAVXProtoType@2@XZ 000000001203856c f   XMLRefInfo.obj
 0001:00037574       ?serialize@XMLRefInfo@xercesc_3_1@@UEAAXAEAVXSerializeEngine@2@@Z 0000000012038574 f   XMLRefInfo.obj
 0001:000375f4       ??0XMLRefInfo@xercesc_3_1@@QEAA@QEAVMemoryManager@1@@Z 00000000120385f4 f   XMLRefInfo.obj
 0001:00037610       ??1XMLDTDDescription@xercesc_3_1@@UEAA@XZ 0000000012038610 f   XMLDTDDescription.obj
 0001:00037610       ??1XMLNumber@xercesc_3_1@@UEAA@XZ 0000000012038610 f   XMLNumber.obj
 0001:00037610       ??1XMLGrammarDescription@xercesc_3_1@@UEAA@XZ 0000000012038610 f   XMLGrammarDescription.obj
 0001:00037610       ??1XMLAttDefList@xercesc_3_1@@UEAA@XZ 0000000012038610 f   XMLAttDefList.obj
 0001:00037610       ??1Grammar@xercesc_3_1@@UEAA@XZ 0000000012038610 f   XMLDTDDescription.obj
 0001:00037610       ??1XSerializable@xercesc_3_1@@UEAA@XZ 0000000012038610 f   KVStringPair.obj
 0001:00037610       ??1XMLSchemaDescription@xercesc_3_1@@UEAA@XZ 0000000012038610 f   XMLSchemaDescription.obj
 0001:0003761c       ??0XMLSchemaDescription@xercesc_3_1@@IEAA@QEAVMemoryManager@1@@Z 000000001203861c f   XMLSchemaDescription.obj
 0001:00037630       ?getProtoType@XMLSchemaDescription@xercesc_3_1@@UEBAPEAVXProtoType@2@XZ 0000000012038630 f   XMLSchemaDescription.obj
 0001:00037638       ??1XMLValidator@xercesc_3_1@@UEAA@XZ 0000000012038638 f i XMLValidator.obj
 0001:00037638       ??1DTDValidator@xercesc_3_1@@UEAA@XZ 0000000012038638 f i DTDValidator.obj
 0001:00037644       ??_FXMLValidator@xercesc_3_1@@QEAAXXZ 0000000012038644 f i XMLValidator.obj
 0001:00037664       ??_EXMLValidator@xercesc_3_1@@UEAAPEAXI@Z 0000000012038664 f i XMLValidator.obj
 0001:000376d8       ?setScannerInfo@XMLValidator@xercesc_3_1@@QEAAXQEAVXMLScanner@2@QEAVReaderMgr@2@QEAVXMLBufferMgr@2@@Z 00000000120386d8 f i XMLValidator.obj
 0001:000376e8       ??0SecurityManager@xercesc_3_1@@QEAA@XZ 00000000120386e8 f i XMLValidator.obj
 0001:00037700       ??1SecurityManager@xercesc_3_1@@UEAA@XZ 0000000012038700 f i XMLValidator.obj
 0001:0003770c       ??_ESecurityManager@xercesc_3_1@@UEAAPEAXI@Z 000000001203870c f i XMLValidator.obj
 0001:00037778       ??0Locator@xercesc_3_1@@QEAA@XZ 0000000012038778 f i XMLValidator.obj
 0001:00037788       ??_ELocator@xercesc_3_1@@UEAAPEAXI@Z 0000000012038788 f i XMLValidator.obj
 0001:000377f4       ??_FReaderMgr@xercesc_3_1@@QEAAXXZ 00000000120387f4 f i XMLValidator.obj
 0001:00037830       ?getCurrentReaderNum@ReaderMgr@xercesc_3_1@@QEBA_KXZ 0000000012038830 f i XMLValidator.obj
 0001:0003783c       ?getName@ReaderMgr@xercesc_3_1@@QEAA_NAEAVXMLBuffer@2@@Z 000000001203883c f i XMLValidator.obj
 0001:0003784c       ?getQName@ReaderMgr@xercesc_3_1@@QEAA_NAEAVXMLBuffer@2@PEAH@Z 000000001203884c f i XMLValidator.obj
 0001:0003785c       ?getNameToken@ReaderMgr@xercesc_3_1@@QEAA_NAEAVXMLBuffer@2@@Z 000000001203885c f i XMLValidator.obj
 0001:0003786c       ?getNextCharIfNot@ReaderMgr@xercesc_3_1@@QEAA_N_WAEA_W@Z 000000001203886c f i XMLValidator.obj
 0001:00037878       ?movePlainContentChars@ReaderMgr@xercesc_3_1@@QEAAXAEAVXMLBuffer@2@@Z 0000000012038878 f i XMLValidator.obj
 0001:00037884       ?getSrcOffset@ReaderMgr@xercesc_3_1@@QEBA_KXZ 0000000012038884 f i XMLValidator.obj
 0001:000378a0       ?lookingAtChar@ReaderMgr@xercesc_3_1@@QEAA_N_W@Z 00000000120388a0 f i XMLValidator.obj
 0001:000378bc       ?lookingAtSpace@ReaderMgr@xercesc_3_1@@QEAA_NXZ 00000000120388bc f i XMLValidator.obj
 0001:000378e8       ?setValidated@DTDGrammar@xercesc_3_1@@UEAAX_N@Z 00000000120388e8 f i XMLGrammarPoolImpl.obj
 0001:000378e8       ?setIssueFatalErrorIfNotFound@DOMLSInputImpl@xercesc_3_1@@UEAAX_N@Z 00000000120388e8 f i DOMLSInputImpl.obj
 0001:000378e8       ?setThrowEOE@ReaderMgr@xercesc_3_1@@QEAAX_N@Z 00000000120388e8 f i XMLValidator.obj
 0001:000378ec       ?setStandardUriConformant@ReaderMgr@xercesc_3_1@@QEAAX_N@Z 00000000120388ec f i XMLValidator.obj
 0001:000378ec       ?setCopyBufToStream@MemBufInputSource@xercesc_3_1@@QEAAX_N@Z 00000000120388ec f i MemBufInputSource.obj
 0001:000378f0       ?skippedString@ReaderMgr@xercesc_3_1@@QEAA_NQEB_W@Z 00000000120388f0 f i XMLValidator.obj
 0001:000378fc       ?skippedStringLong@ReaderMgr@xercesc_3_1@@QEAA_NQEB_W@Z 00000000120388fc f i XMLValidator.obj
 0001:00037908       ?skipToChar@ReaderMgr@xercesc_3_1@@QEAAX_W@Z 0000000012038908 f i XMLValidator.obj
 0001:00037908       ?skipPastChar@ReaderMgr@xercesc_3_1@@QEAAX_W@Z 0000000012038908 f i XMLValidator.obj
 0001:00037938       ?peekString@ReaderMgr@xercesc_3_1@@QEAA_NQEB_W@Z 0000000012038938 f i XMLValidator.obj
 0001:00037944       ?setXMLVersion@ReaderMgr@xercesc_3_1@@QEAAXW4XMLVersion@XMLReader@2@@Z 0000000012038944 f i XMLValidator.obj
 0001:00037984       ??0ThrowEOEJanitor@xercesc_3_1@@QEAA@PEAVReaderMgr@1@_N@Z 0000000012038984 f i XMLValidator.obj
 0001:00037998       ??1ThrowEOEJanitor@xercesc_3_1@@QEAA@XZ 0000000012038998 f i XMLValidator.obj
 0001:000379a4       ??_FElemStack@xercesc_3_1@@QEAAXXZ 00000000120389a4 f i XMLValidator.obj
 0001:000379b0       ??_FWFElemStack@xercesc_3_1@@QEAAXXZ 00000000120389b0 f i XMLValidator.obj
 0001:000379bc       ?isEmpty@ElemStack@xercesc_3_1@@QEBA_NXZ 00000000120389bc f i XMLValidator.obj
 0001:000379c8       ?getValidationFlag@ElemStack@xercesc_3_1@@QEAA_NXZ 00000000120389c8 f i XMLValidator.obj
 0001:000379dc       ?setValidationFlag@ElemStack@xercesc_3_1@@QEAAX_N@Z 00000000120389dc f i XMLValidator.obj
 0001:000379f0       ?getCommentOrPISeen@ElemStack@xercesc_3_1@@QEBA_NXZ 00000000120389f0 f i XMLValidator.obj
 0001:00037a04       ?setCommentOrPISeen@ElemStack@xercesc_3_1@@QEAAXXZ 0000000012038a04 f i XMLValidator.obj
 0001:00037a18       ?getReferenceEscaped@ElemStack@xercesc_3_1@@QEBA_NXZ 0000000012038a18 f i XMLValidator.obj
 0001:00037a2c       ?setReferenceEscaped@ElemStack@xercesc_3_1@@QEAAXXZ 0000000012038a2c f i XMLValidator.obj
 0001:00037a40       ?setCurrentSchemaElemName@ElemStack@xercesc_3_1@@QEAAXQEB_W@Z 0000000012038a40 f i XMLValidator.obj
 0001:00037b28       ?getCurrentSchemaElemName@ElemStack@xercesc_3_1@@QEAAPEA_WXZ 0000000012038b28 f i XMLValidator.obj
 0001:00037b3c       ?getCurrentScope@ElemStack@xercesc_3_1@@QEAAHXZ 0000000012038b3c f i XMLValidator.obj
 0001:00037b50       ?setCurrentScope@ElemStack@xercesc_3_1@@QEAAXH@Z 0000000012038b50 f i XMLValidator.obj
 0001:00037b64       ?getCurrentGrammar@ElemStack@xercesc_3_1@@QEAAPEAVGrammar@2@XZ 0000000012038b64 f i XMLValidator.obj
 0001:00037b78       ?setCurrentGrammar@ElemStack@xercesc_3_1@@QEAAXPEAVGrammar@2@@Z 0000000012038b78 f i XMLValidator.obj
 0001:00037b8c       ?getCurrentURI@ElemStack@xercesc_3_1@@QEAAIXZ 0000000012038b8c f i XMLValidator.obj
 0001:00037ba0       ?setCurrentURI@ElemStack@xercesc_3_1@@QEAAXI@Z 0000000012038ba0 f i XMLValidator.obj
 0001:00037bb4       ?getPrefixId@ElemStack@xercesc_3_1@@QEBAIQEB_W@Z 0000000012038bb4 f i XMLValidator.obj
 0001:00037bc0       ?getPrefixForId@ElemStack@xercesc_3_1@@QEBAPEB_WI@Z 0000000012038bc0 f i XMLValidator.obj
 0001:00037bcc       ?setPrefixColonPos@ElemStack@xercesc_3_1@@QEAAXH@Z 0000000012038bcc f i XMLValidator.obj
 0001:00037be0       ?getPrefixColonPos@ElemStack@xercesc_3_1@@QEBAHXZ 0000000012038be0 f i XMLValidator.obj
 0001:00037bf4       ?isEmpty@WFElemStack@xercesc_3_1@@QEBA_NXZ 0000000012038bf4 f i XMLValidator.obj
 0001:00037c00       ?getCurrentURI@WFElemStack@xercesc_3_1@@QEAAIXZ 0000000012038c00 f i XMLValidator.obj
 0001:00037c14       ?setCurrentURI@WFElemStack@xercesc_3_1@@QEAAXI@Z 0000000012038c14 f i XMLValidator.obj
 0001:00037c28       ?useCachedGrammarInParse@GrammarResolver@xercesc_3_1@@QEAAX_N@Z 0000000012038c28 f i XMLValidator.obj
 0001:00037c28       ?setProcessed@SchemaInfo@xercesc_3_1@@QEAAX_N@Z 0000000012038c28 f i IGXMLScanner.obj
 0001:00037c2c       ?getGrammarPoolMemoryManager@GrammarResolver@xercesc_3_1@@QEBAPEAVMemoryManager@2@XZ 0000000012038c2c f i XMLValidator.obj
 0001:00037c38       ?getNextSibling@DOMDocumentTypeImpl@xercesc_3_1@@UEBAPEAVDOMNode@2@XZ 0000000012038c38 f i DOMDocumentTypeImpl.obj
 0001:00037c38       ?getMemberTypeDefinition@PSVIAttribute@xercesc_3_1@@UEAAPEAVXSSimpleTypeDefinition@2@XZ 0000000012038c38 f i PSVIAttribute.obj
 0001:00037c38       ?getBaseDatatypeValidator@ComplexTypeInfo@xercesc_3_1@@QEBAPEAVDatatypeValidator@2@XZ 0000000012038c38 f i XMLElementDecl.obj
 0001:00037c38       ?getNextSibling@DOMElementImpl@xercesc_3_1@@UEBAPEAVDOMNode@2@XZ 0000000012038c38 f i DOMElementImpl.obj
 0001:00037c38       ?getTokenFactory@RegxParser@xercesc_3_1@@QEBAPEAVTokenFactory@2@XZ 0000000012038c38 f i ParserForXMLSchema.obj
 0001:00037c38       ?getAttributeUses@XSComplexTypeDefinition@xercesc_3_1@@QEAAPEAV?$RefVectorOf@VXSAttributeUse@xercesc_3_1@@@2@XZ 0000000012038c38 f i PSVIElement.obj
 0001:00037c38       ?getTypeName@DatatypeValidator@xercesc_3_1@@QEBAPEB_WXZ 0000000012038c38 f i XMLAttr.obj
 0001:00037c38       ?getErrorHandler@SAX2XMLFilterImpl@xercesc_3_1@@UEBAPEAVErrorHandler@2@XZ 0000000012038c38 f i SAX2XMLFilterImpl.obj
 0001:00037c38       ?getAttName@SchemaAttDef@xercesc_3_1@@QEBAPEAVQName@2@XZ 0000000012038c38 f i XMLElementDecl.obj
 0001:00037c38       ?getValueStore@FieldMatcher@xercesc_3_1@@QEBAPEAVValueStore@2@XZ 0000000012038c38 f i XMLElementDecl.obj
 0001:00037c38       ?getCurrentNode@AbstractDOMParser@xercesc_3_1@@IEAAPEAVDOMNode@2@XZ 0000000012038c38 f i XSAnnotation.obj
 0001:00037c38       ?getContentSpec@DTDElementDecl@xercesc_3_1@@UEAAPEAVContentSpecNode@2@XZ 0000000012038c38 f i XMLElementDecl.obj
 0001:00037c38       ?getDefaultValue@SchemaElementDecl@xercesc_3_1@@QEBAPEA_WXZ 0000000012038c38 f i XMLElementDecl.obj
 0001:00037c38       ?getSubstitutionGroupAffiliation@XSElementDeclaration@xercesc_3_1@@QEBAPEAV12@XZ 0000000012038c38 f i PSVIElement.obj
 0001:00037c38       ?getGrammarsToAddToXSModel@GrammarResolver@xercesc_3_1@@QEAAPEAV?$ValueVectorOf@PEAVSchemaGrammar@xercesc_3_1@@@2@XZ 0000000012038c38 f i XMLValidator.obj
 0001:00037c38       ?getMemberTypeDefinition@PSVIElement@xercesc_3_1@@UEAAPEAVXSSimpleTypeDefinition@2@XZ 0000000012038c38 f i PSVIElement.obj
 0001:00037c38       ?getAttGroupInfoRegistry@SchemaGrammar@xercesc_3_1@@QEBAPEAV?$RefHashTableOf@VXercesAttGroupInfo@xercesc_3_1@@UStringHasher@2@@2@XZ 0000000012038c38 f i XMLGrammarPoolImpl.obj
 0001:00037c38       ?getContentSpec@DTDElementDecl@xercesc_3_1@@UEBAPEBVContentSpecNode@2@XZ 0000000012038c38 f i XMLElementDecl.obj
 0001:00037c38       ?getDatatypeValidator@XSSimpleTypeDefinition@xercesc_3_1@@QEBAPEAVDatatypeValidator@2@XZ 0000000012038c38 f i XMLAttr.obj
 0001:00037c38       ?getEnclosingCTDefinition@XSAttributeDeclaration@xercesc_3_1@@QEAAPEAVXSComplexTypeDefinition@2@XZ 0000000012038c38 f i PSVIAttributeList.obj
 0001:00037c38       ?getNextSibling@DOMEntityReferenceImpl@xercesc_3_1@@UEBAPEAVDOMNode@2@XZ 0000000012038c38 f i DOMEntityReferenceImpl.obj
 0001:00037c38       ?getPublicId@DOMEntityImpl@xercesc_3_1@@UEBAPEB_WXZ 0000000012038c38 f i DOMEntityImpl.obj
 0001:00037c40       ?bufferFull@XMLScanner@xercesc_3_1@@UEAA_NAEAVXMLBuffer@2@@Z 0000000012038c40 f i XMLValidator.obj
 0001:00037c54       ?getDocTypeHandler@XMLScanner@xercesc_3_1@@QEBAPEBVDocTypeHandler@2@XZ 0000000012038c54 f i XMLValidator.obj
 0001:00037c54       ?getDocTypeHandler@XMLScanner@xercesc_3_1@@QEAAPEAVDocTypeHandler@2@XZ 0000000012038c54 f i XMLValidator.obj
 0001:00037c5c       ?getDoNamespaces@XMLScanner@xercesc_3_1@@QEBA_NXZ 0000000012038c5c f i XMLValidator.obj
 0001:00037c60       ?getErrorReporter@XMLScanner@xercesc_3_1@@QEBAPEBVXMLErrorReporter@2@XZ 0000000012038c60 f i XMLValidator.obj
 0001:00037c60       ?getGrammarResolver@SAXParser@xercesc_3_1@@IEBAPEAVGrammarResolver@2@XZ 0000000012038c60 f i SAX2XMLReaderImpl.obj
 0001:00037c60       ?getErrorReporter@XMLScanner@xercesc_3_1@@QEAAPEAVXMLErrorReporter@2@XZ 0000000012038c60 f i XMLValidator.obj
 0001:00037c60       ?getEntityResolver@SAX2XMLReaderImpl@xercesc_3_1@@UEBAPEAVEntityResolver@2@XZ 0000000012038c60 f i SAX2XMLReaderImpl.obj
 0001:00037c68       ?getErrorHandler@XMLScanner@xercesc_3_1@@QEBAPEBVErrorHandler@2@XZ 0000000012038c68 f i XMLValidator.obj
 0001:00037c68       ?getXMLEntityResolver@SAX2XMLReaderImpl@xercesc_3_1@@UEBAPEAVXMLEntityResolver@2@XZ 0000000012038c68 f i SAX2XMLReaderImpl.obj
 0001:00037c68       ?getErrorHandler@XMLScanner@xercesc_3_1@@QEAAPEAVErrorHandler@2@XZ 0000000012038c68 f i XMLValidator.obj
 0001:00037c70       ?getPSVIHandler@AbstractDOMParser@xercesc_3_1@@QEBAPEBVPSVIHandler@2@XZ 0000000012038c70 f i XSAnnotation.obj
 0001:00037c70       ?getPSVIHandler@XMLScanner@xercesc_3_1@@QEBAPEBVPSVIHandler@2@XZ 0000000012038c70 f i XMLValidator.obj
 0001:00037c70       ?getErrorHandler@SAX2XMLReaderImpl@xercesc_3_1@@UEBAPEAVErrorHandler@2@XZ 0000000012038c70 f i SAX2XMLReaderImpl.obj
 0001:00037c70       ?getPSVIHandler@XMLScanner@xercesc_3_1@@QEAAPEAVPSVIHandler@2@XZ 0000000012038c70 f i XMLValidator.obj
 0001:00037c70       ?getPSVIHandler@AbstractDOMParser@xercesc_3_1@@QEAAPEAVPSVIHandler@2@XZ 0000000012038c70 f i XSAnnotation.obj
 0001:00037c78       ?getExitOnFirstFatal@XMLScanner@xercesc_3_1@@QEBA_NXZ 0000000012038c78 f i XMLValidator.obj
 0001:00037c7c       ?getValidationConstraintFatal@XMLScanner@xercesc_3_1@@QEBA_NXZ 0000000012038c7c f i XMLValidator.obj
 0001:00037c80       ?getInException@XMLScanner@xercesc_3_1@@QEBA_NXZ 0000000012038c80 f i XMLValidator.obj
 0001:00037c84       ?getIDRefList@XMLScanner@xercesc_3_1@@QEAAPEAV?$RefHashTableOf@VXMLRefInfo@xercesc_3_1@@UStringHasher@2@@2@XZ 0000000012038c84 f i XMLValidator.obj
 0001:00037c84       ?getIDRefList@XMLScanner@xercesc_3_1@@QEBAPEBV?$RefHashTableOf@VXMLRefInfo@xercesc_3_1@@UStringHasher@2@@2@XZ 0000000012038c84 f i XMLValidator.obj
 0001:00037c94       ?getValidationContext@XMLScanner@xercesc_3_1@@QEAAPEAVValidationContext@2@XZ 0000000012038c94 f i XMLValidator.obj
 0001:00037ce0       ?getLocator@XMLScanner@xercesc_3_1@@QEBAPEBVLocator@2@XZ 0000000012038ce0 f i XMLValidator.obj
 0001:00037ce0       ?getReaderMgr@XMLScanner@xercesc_3_1@@QEBAPEBVReaderMgr@2@XZ 0000000012038ce0 f i XMLValidator.obj
 0001:00037ce8       ?getSrcOffset@XMLScanner@xercesc_3_1@@QEBA_KXZ 0000000012038ce8 f i XMLValidator.obj
 0001:00037d04       ?getStandalone@XMLScanner@xercesc_3_1@@QEBA_NXZ 0000000012038d04 f i XMLValidator.obj
 0001:00037d08       ?getValidationScheme@XMLScanner@xercesc_3_1@@QEBA?AW4ValSchemes@12@XZ 0000000012038d08 f i XMLValidator.obj
 0001:00037d10       ?getValidator@XMLScanner@xercesc_3_1@@QEBAPEBVXMLValidator@2@XZ 0000000012038d10 f i XMLValidator.obj
 0001:00037d10       ?getValidator@XMLScanner@xercesc_3_1@@QEAAPEAVXMLValidator@2@XZ 0000000012038d10 f i XMLValidator.obj
 0001:00037d18       ?getDoSchema@XMLScanner@xercesc_3_1@@QEBA_NXZ 0000000012038d18 f i XMLValidator.obj
 0001:00037d1c       ?getValidationSchemaFullChecking@XMLScanner@xercesc_3_1@@QEBA_NXZ 0000000012038d1c f i XMLValidator.obj
 0001:00037d20       ?getIdentityConstraintChecking@XMLScanner@xercesc_3_1@@QEBA_NXZ 0000000012038d20 f i XMLValidator.obj
 0001:00037d24       ?isValidatorFromUser@XMLScanner@xercesc_3_1@@QEAA_NXZ 0000000012038d24 f i XMLValidator.obj
 0001:00037d28       ?getInitialDepth@SelectorMatcher@xercesc_3_1@@UEBAHXZ 0000000012038d28 f i XSIDCDefinition.obj
 0001:00037d28       ?getEmptyNamespaceId@XMLScanner@xercesc_3_1@@QEBAIXZ 0000000012038d28 f i XMLValidator.obj
 0001:00037d2c       ?getUnknownNamespaceId@XMLScanner@xercesc_3_1@@QEBAIXZ 0000000012038d2c f i XMLValidator.obj
 0001:00037d30       ?getXMLNamespaceId@XMLScanner@xercesc_3_1@@QEBAIXZ 0000000012038d30 f i XMLValidator.obj
 0001:00037d34       ?getXMLNSNamespaceId@XMLScanner@xercesc_3_1@@QEBAIXZ 0000000012038d34 f i XMLValidator.obj
 0001:00037d38       ?getURIStringPool@XMLScanner@xercesc_3_1@@QEAAPEAVXMLStringPool@2@XZ 0000000012038d38 f i XMLValidator.obj
 0001:00037d38       ?getURIStringPool@XMLScanner@xercesc_3_1@@QEBAPEBVXMLStringPool@2@XZ 0000000012038d38 f i XMLValidator.obj
 0001:00037d40       ?getHasNoDTD@XMLScanner@xercesc_3_1@@QEBA_NXZ 0000000012038d40 f i XMLValidator.obj
 0001:00037d44       ?getExternalSchemaLocation@XMLScanner@xercesc_3_1@@QEBAPEA_WXZ 0000000012038d44 f i XMLValidator.obj
 0001:00037d4c       ?getExternalNoNamespaceSchemaLocation@XMLScanner@xercesc_3_1@@QEBAPEA_WXZ 0000000012038d4c f i XMLValidator.obj
 0001:00037d54       ?getSecurityManager@XMLScanner@xercesc_3_1@@QEBAPEAVSecurityManager@2@XZ 0000000012038d54 f i XMLValidator.obj
 0001:00037d5c       ?getLoadExternalDTD@XMLScanner@xercesc_3_1@@QEBA_NXZ 0000000012038d5c f i XMLValidator.obj
 0001:00037d60       ?isCachingGrammarFromParse@XMLScanner@xercesc_3_1@@QEBA_NXZ 0000000012038d60 f i XMLValidator.obj
 0001:00037d64       ?isUsingCachedGrammarInParse@XMLScanner@xercesc_3_1@@QEBA_NXZ 0000000012038d64 f i XMLValidator.obj
 0001:00037d68       ?getCalculateSrcOfs@XMLScanner@xercesc_3_1@@QEBA_NXZ 0000000012038d68 f i XMLValidator.obj
 0001:00037d6c       ?getRootGrammar@XMLScanner@xercesc_3_1@@QEBAPEAVGrammar@2@XZ 0000000012038d6c f i XMLValidator.obj
 0001:00037d74       ?getInUse@XMLBuffer@xercesc_3_1@@QEBA_NXZ 0000000012038d74 f i Base64.obj
 0001:00037d74       ?getStandardUriConformant@XMLScanner@xercesc_3_1@@QEBA_NXZ 0000000012038d74 f i XMLValidator.obj
 0001:00037d74       ?hasDefaults@DOMAttrMapImpl@xercesc_3_1@@UEAA_NXZ 0000000012038d74 f i AbstractDOMParser.obj
 0001:00037d78       ?getXMLVersion@XMLScanner@xercesc_3_1@@QEBA?AW4XMLVersion@XMLReader@2@XZ 0000000012038d78 f i XMLValidator.obj
 0001:00037d80       ?getMemoryManager@XMLScanner@xercesc_3_1@@QEBAPEAVMemoryManager@2@XZ 0000000012038d80 f i XMLValidator.obj
 0001:00037d88       ?getNamespaceContext@XMLScanner@xercesc_3_1@@QEBAPEAV?$ValueVectorOf@PEAUPrefMapElem@xercesc_3_1@@@2@XZ 0000000012038d88 f i XMLValidator.obj
 0001:00037d94       ?getPrefixId@XMLScanner@xercesc_3_1@@QEBAIQEB_W@Z 0000000012038d94 f i XMLValidator.obj
 0001:00037da4       ?getPrefixForId@XMLScanner@xercesc_3_1@@QEBAPEB_WI@Z 0000000012038da4 f i XMLValidator.obj
 0001:00037db4       ?getGenerateSyntheticAnnotations@XMLScanner@xercesc_3_1@@QEBA_NXZ 0000000012038db4 f i XMLValidator.obj
 0001:00037db8       ?getParseInProgress@AbstractDOMParser@xercesc_3_1@@IEBA_NXZ 0000000012038db8 f i XSAnnotation.obj
 0001:00037db8       ?getValidateAnnotations@XMLScanner@xercesc_3_1@@QEBA_NXZ 0000000012038db8 f i XMLValidator.obj
 0001:00037dbc       ?getLowWaterMark@XMLScanner@xercesc_3_1@@QEBAAEB_KXZ 0000000012038dbc f i XMLValidator.obj
 0001:00037dc4       ?getIgnoreAnnotations@XMLScanner@xercesc_3_1@@QEBA_NXZ 0000000012038dc4 f i XMLValidator.obj
 0001:00037dc4       ?isDocumentAdopted@AbstractDOMParser@xercesc_3_1@@IEBA_NXZ 0000000012038dc4 f i AbstractDOMParser.obj
 0001:00037dc8       ?getDoXInclude@AbstractDOMParser@xercesc_3_1@@QEBA_NXZ 0000000012038dc8 f i XSAnnotation.obj
 0001:00037dc8       ?getSkipDTDValidation@XMLScanner@xercesc_3_1@@QEBA_NXZ 0000000012038dc8 f i XMLValidator.obj
 0001:00037dcc       ?getHandleMultipleImports@XMLScanner@xercesc_3_1@@QEBA_NXZ 0000000012038dcc f i XMLValidator.obj
 0001:00037dd0       ?addGlobalPrefix@XMLScanner@xercesc_3_1@@QEAAXQEB_WI@Z 0000000012038dd0 f i XMLValidator.obj
 0001:00037ddc       ?setDocHandler@XMLScanner@xercesc_3_1@@QEAAXQEAVXMLDocumentHandler@2@@Z 0000000012038ddc f i XMLValidator.obj
 0001:00037ddc       ?setContent@ListDatatypeValidator@xercesc_3_1@@AEAAXQEB_W@Z 0000000012038ddc f i DatatypeValidator.obj
 0001:00037de4       ?setDocTypeHandler@XMLScanner@xercesc_3_1@@QEAAXQEAVDocTypeHandler@2@@Z 0000000012038de4 f i XMLValidator.obj
 0001:00037dec       ?setErrorHandler@XMLScanner@xercesc_3_1@@QEAAXQEAVErrorHandler@2@@Z 0000000012038dec f i XMLValidator.obj
 0001:00037df4       ?setPSVIHandler@XMLScanner@xercesc_3_1@@QEAAXQEAVPSVIHandler@2@@Z 0000000012038df4 f i XMLValidator.obj
 0001:00037dfc       ?setEntityHandler@XMLScanner@xercesc_3_1@@QEAAXQEAVXMLEntityHandler@2@@Z 0000000012038dfc f i XMLValidator.obj
 0001:00037e0c       ?setErrorReporter@XMLScanner@xercesc_3_1@@QEAAXQEAVXMLErrorReporter@2@@Z 0000000012038e0c f i XMLValidator.obj
 0001:00037e14       ?setExitOnFirstFatal@XMLScanner@xercesc_3_1@@QEAAX_N@Z 0000000012038e14 f i XMLValidator.obj
 0001:00037e18       ?setValidationConstraintFatal@XMLScanner@xercesc_3_1@@QEAAX_N@Z 0000000012038e18 f i XMLValidator.obj
 0001:00037e1c       ?setValidationScheme@XMLScanner@xercesc_3_1@@QEAAXW4ValSchemes@12@@Z 0000000012038e1c f i XMLValidator.obj
 0001:00037e2c       ?setDoSchema@XMLScanner@xercesc_3_1@@QEAAX_N@Z 0000000012038e2c f i XMLValidator.obj
 0001:00037e30       ?setDoNamespaces@XMLScanner@xercesc_3_1@@QEAAX_N@Z 0000000012038e30 f i XMLValidator.obj
 0001:00037e34       ?setValidationSchemaFullChecking@XMLScanner@xercesc_3_1@@QEAAX_N@Z 0000000012038e34 f i XMLValidator.obj
 0001:00037e38       ?setIdentityConstraintChecking@XMLScanner@xercesc_3_1@@QEAAX_N@Z 0000000012038e38 f i XMLValidator.obj
 0001:00037e3c       ?setHasNoDTD@XMLScanner@xercesc_3_1@@QEAAX_N@Z 0000000012038e3c f i XMLValidator.obj
 0001:00037e40       ?setRootElemName@XMLScanner@xercesc_3_1@@QEAAXPEA_W@Z 0000000012038e40 f i XMLValidator.obj
 0001:00037ecc       ?setExternalSchemaLocation@XMLScanner@xercesc_3_1@@QEAAXQEB_W@Z 0000000012038ecc f i XMLValidator.obj
 0001:00037f58       ?setExternalNoNamespaceSchemaLocation@XMLScanner@xercesc_3_1@@QEAAXQEB_W@Z 0000000012038f58 f i XMLValidator.obj
 0001:00037fe4       ?setExternalSchemaLocation@XMLScanner@xercesc_3_1@@QEAAXQEBD@Z 0000000012038fe4 f i XMLValidator.obj
 0001:00038034       ?setExternalNoNamespaceSchemaLocation@XMLScanner@xercesc_3_1@@QEAAXQEBD@Z 0000000012039034 f i XMLValidator.obj
 0001:00038084       ?setSecurityManager@XMLScanner@xercesc_3_1@@QEAAXQEAVSecurityManager@2@@Z 0000000012039084 f i XMLValidator.obj
 0001:000380b4       ?setLoadExternalDTD@XMLScanner@xercesc_3_1@@QEAAX_N@Z 00000000120390b4 f i XMLValidator.obj
 0001:000380b8       ?setNormalizeData@XMLScanner@xercesc_3_1@@QEAAX_N@Z 00000000120390b8 f i XMLValidator.obj
 0001:000380b8       ?setIncludeIgnorableWhitespace@AbstractDOMParser@xercesc_3_1@@QEAAX_N@Z 00000000120390b8 f i XSAnnotation.obj
 0001:000380bc       ?cacheGrammarFromParse@XMLScanner@xercesc_3_1@@QEAAX_N@Z 00000000120390bc f i XMLValidator.obj
 0001:000380c0       ?useCachedGrammarInParse@XMLScanner@xercesc_3_1@@QEAAX_N@Z 00000000120390c0 f i XMLValidator.obj
 0001:000380c4       ?setCalculateSrcOfs@XMLScanner@xercesc_3_1@@QEAAX_N@Z 00000000120390c4 f i XMLValidator.obj
 0001:000380c8       ?setStandardUriConformant@XMLScanner@xercesc_3_1@@QEAAX_N@Z 00000000120390c8 f i XMLValidator.obj
 0001:000380d4       ?setGenerateSyntheticAnnotations@XMLScanner@xercesc_3_1@@QEAAX_N@Z 00000000120390d4 f i XMLValidator.obj
 0001:000380d8       ?setParseInProgress@AbstractDOMParser@xercesc_3_1@@IEAAX_N@Z 00000000120390d8 f i XSAnnotation.obj
 0001:000380d8       ?setValidateAnnotations@XMLScanner@xercesc_3_1@@QEAAX_N@Z 00000000120390d8 f i XMLValidator.obj
 0001:000380dc       ?setInputBufferSize@XMLScanner@xercesc_3_1@@QEAAX_K@Z 00000000120390dc f i XMLValidator.obj
 0001:00038124       ?setIgnoredCachedDTD@XMLScanner@xercesc_3_1@@QEAAX_N@Z 0000000012039124 f i XMLValidator.obj
 0001:00038124       ?setCreateCommentNodes@AbstractDOMParser@xercesc_3_1@@QEAAX_N@Z 0000000012039124 f i XSAnnotation.obj
 0001:00038128       ?setIgnoreAnnotations@XMLScanner@xercesc_3_1@@QEAAX_N@Z 0000000012039128 f i XMLValidator.obj
 0001:0003812c       ?setDisableDefaultEntityResolution@XMLScanner@xercesc_3_1@@QEAAX_N@Z 000000001203912c f i XMLValidator.obj
 0001:00038130       ?setHandleMultipleImports@XMLScanner@xercesc_3_1@@QEAAX_N@Z 0000000012039130 f i XMLValidator.obj
 0001:00038134       ?incrementErrorCount@XMLScanner@xercesc_3_1@@QEAAXXZ 0000000012039134 f i XMLValidator.obj
 0001:00038138       ?resetValidationContext@XMLScanner@xercesc_3_1@@IEAAXXZ 0000000012039138 f i XMLValidator.obj
 0001:0003816c       ?setAttrDupChkRegistry@XMLScanner@xercesc_3_1@@IEAAXAEB_KAEA_N@Z 000000001203916c f i XMLValidator.obj
 0001:00038288       ?initializeXMLValidator@XMLInitializer@xercesc_3_1@@CAXXZ 0000000012039288 f   XMLValidator.obj
 0001:000382c8       ?terminateXMLValidator@XMLInitializer@xercesc_3_1@@CAXXZ 00000000120392c8 f   XMLValidator.obj
 0001:000382f0       ?emitError@XMLValidator@xercesc_3_1@@QEAAXW4Codes@XMLValid@2@@Z 00000000120392f0 f   XMLValidator.obj
 0001:0003843c       ?emitError@XMLValidator@xercesc_3_1@@QEAAXW4Codes@XMLValid@2@QEB_W111@Z 000000001203943c f   XMLValidator.obj
 0001:000385bc       ?emitError@XMLValidator@xercesc_3_1@@QEAAXW4Codes@XMLValid@2@QEBD111@Z 00000000120395bc f   XMLValidator.obj
 0001:0003873c       ?emitError@XMLValidator@xercesc_3_1@@QEAAXW4Codes@XMLValid@2@W43XMLExcepts@2@QEB_W222@Z 000000001203973c f   XMLValidator.obj
 0001:000388c8       ??0XMLValidator@xercesc_3_1@@IEAA@QEAVXMLErrorReporter@1@@Z 00000000120398c8 f   XMLValidator.obj
 0001:000388e8       ?removeAll@?$RefHash2KeysTableOf@VXMLAttr@xercesc_3_1@@UStringHasher@2@@xercesc_3_1@@QEAAXXZ 00000000120398e8 f i XMLValidator.obj
 0001:00038990       ??_FPSVIItem@xercesc_3_1@@QEAAXXZ 0000000012039990 f i PSVIAttribute.obj
 0001:000389d0       ??_EPSVIItem@xercesc_3_1@@UEAAPEAXI@Z 00000000120399d0 f i PSVIAttribute.obj
 0001:00038a44       ??1PSVIItem@xercesc_3_1@@UEAA@XZ 0000000012039a44 f i PSVIAttribute.obj
 0001:00038a50       ??_FPSVIAttribute@xercesc_3_1@@QEAAXXZ 0000000012039a50 f i PSVIAttribute.obj
 0001:00038a98       ??_EPSVIAttribute@xercesc_3_1@@UEAAPEAXI@Z 0000000012039a98 f i PSVIAttribute.obj
 0001:00038b34       ??1PSVIAttribute@xercesc_3_1@@UEAA@XZ 0000000012039b34 f i PSVIAttribute.obj
 0001:00038b74       ??0PSVIAttribute@xercesc_3_1@@QEAA@QEAVMemoryManager@1@@Z 0000000012039b74 f   PSVIAttribute.obj
 0001:00038bb8       ?reset@PSVIAttribute@xercesc_3_1@@QEAAXQEB_WW4VALIDITY_STATE@PSVIItem@2@W4ASSESSMENT_TYPE@42@PEAVXSSimpleTypeDefinition@2@30_NPEAVXSAttributeDeclaration@2@PEAVDatatypeValidator@2@@Z 0000000012039bb8 f   PSVIAttribute.obj
 0001:00038c20       ?setValue@PSVIAttribute@xercesc_3_1@@QEAAXQEB_W@Z 0000000012039c20 f   PSVIAttribute.obj
 0001:00038c58       ??0PSVIAttributeStorage@xercesc_3_1@@QEAA@XZ 0000000012039c58 f i PSVIAttributeList.obj
 0001:00038c6c       ??1PSVIAttributeStorage@xercesc_3_1@@QEAA@XZ 0000000012039c6c f i PSVIAttributeList.obj
 0001:00038c88       ??4XIncludeUtils@xercesc_3_1@@QEAAAEAV01@AEBV01@@Z 0000000012039c88 f i AbstractDOMParser.obj
 0001:00038c88       ??4PSVIAttributeStorage@xercesc_3_1@@QEAAAEAV01@AEBV01@@Z 0000000012039c88 f i PSVIAttributeList.obj
 0001:00038ca4       ??_FPSVIAttributeList@xercesc_3_1@@QEAAXXZ 0000000012039ca4 f i PSVIAttributeList.obj
 0001:00038cb0       ??1PSVIAttributeList@xercesc_3_1@@QEAA@XZ 0000000012039cb0 f i PSVIAttributeList.obj
 0001:00038ccc       ?getPSVIAttributeToFill@PSVIAttributeList@xercesc_3_1@@QEAAPEAVPSVIAttribute@2@PEB_W0@Z 0000000012039ccc f i PSVIAttributeList.obj
 0001:00038dd4       ?getPSVIScope@SchemaAttDef@xercesc_3_1@@QEBA?AW4PSVIScope@PSVIDefs@2@XZ 0000000012039dd4 f i XMLElementDecl.obj
 0001:00038dd4       ?getBlockSet@SchemaElementDecl@xercesc_3_1@@QEBAHXZ 0000000012039dd4 f i XMLElementDecl.obj
 0001:00038dd4       ?getVariety@XSSimpleTypeDefinition@xercesc_3_1@@QEBA?AW4VARIETY@12@XZ 0000000012039dd4 f i XMLAttr.obj
 0001:00038dd4       ?getScope@XSAttributeDeclaration@xercesc_3_1@@QEBA?AW4SCOPE@XSConstants@2@XZ 0000000012039dd4 f i PSVIAttributeList.obj
 0001:00038dd8       ?setEnclosingCTDefinition@XSAttributeDeclaration@xercesc_3_1@@AEAAXQEAVXSComplexTypeDefinition@2@@Z 0000000012039dd8 f i PSVIAttributeList.obj
 0001:00038dd8       ?setSchemaTypeInfo@DOMAttrImpl@xercesc_3_1@@UEAAXPEBVDOMTypeInfoImpl@2@@Z 0000000012039dd8 f i DOMAttrImpl.obj
 0001:00038dd8       ?setAttGroupInfoRegistry@SchemaGrammar@xercesc_3_1@@QEAAXQEAV?$RefHashTableOf@VXercesAttGroupInfo@xercesc_3_1@@UStringHasher@2@@2@@Z 0000000012039dd8 f i XMLGrammarPoolImpl.obj
 0001:00038dd8       ?setErrorHandler@SAX2XMLFilterImpl@xercesc_3_1@@UEAAXQEAVErrorHandler@2@@Z 0000000012039dd8 f i SAX2XMLFilterImpl.obj
 0001:00038dd8       ?setCurrentNode@AbstractDOMParser@xercesc_3_1@@IEAAXPEAVDOMNode@2@@Z 0000000012039dd8 f i XSAnnotation.obj
 0001:00038dd8       ?setBaseDatatypeValidator@ComplexTypeInfo@xercesc_3_1@@QEAAXQEAVDatatypeValidator@2@@Z 0000000012039dd8 f i XMLElementDecl.obj
 0001:00038dd8       ?setTokenFactory@RegxParser@xercesc_3_1@@QEAAXQEAVTokenFactory@2@@Z 0000000012039dd8 f i ParserForXMLSchema.obj
 0001:00038de0       ??0PSVIAttributeList@xercesc_3_1@@QEAA@QEAVMemoryManager@1@@Z 0000000012039de0 f   PSVIAttributeList.obj
 0001:00038e94       ?getAttributePSVIAtIndex@PSVIAttributeList@xercesc_3_1@@QEAAPEAVPSVIAttribute@2@_K@Z 0000000012039e94 f   PSVIAttributeList.obj
 0001:00038eb4       ?getAttributeNameAtIndex@PSVIAttributeList@xercesc_3_1@@QEAAPEB_W_K@Z 0000000012039eb4 f   PSVIAttributeList.obj
 0001:00038ed4       ?getAttributeNamespaceAtIndex@PSVIAttributeList@xercesc_3_1@@QEAAPEB_W_K@Z 0000000012039ed4 f   PSVIAttributeList.obj
 0001:00038ef4       ?getAttributePSVIByName@PSVIAttributeList@xercesc_3_1@@QEAAPEAVPSVIAttribute@2@PEB_W0@Z 0000000012039ef4 f   PSVIAttributeList.obj
 0001:00039010       ??1?$BaseRefVectorOf@VPSVIAttributeStorage@xercesc_3_1@@@xercesc_3_1@@UEAA@XZ 000000001203a010 f i PSVIAttributeList.obj
 0001:0003901c       ?setElementAt@?$BaseRefVectorOf@VPSVIAttributeStorage@xercesc_3_1@@@xercesc_3_1@@UEAAXQEAVPSVIAttributeStorage@2@_K@Z 000000001203a01c f i PSVIAttributeList.obj
 0001:000390e4       ?removeAllElements@?$BaseRefVectorOf@VPSVIAttributeStorage@xercesc_3_1@@@xercesc_3_1@@UEAAXXZ 000000001203a0e4 f i PSVIAttributeList.obj
 0001:00039158       ?removeElementAt@?$BaseRefVectorOf@VPSVIAttributeStorage@xercesc_3_1@@@xercesc_3_1@@UEAAX_K@Z 000000001203a158 f i PSVIAttributeList.obj
 0001:00039250       ?removeLastElement@?$BaseRefVectorOf@VPSVIAttributeStorage@xercesc_3_1@@@xercesc_3_1@@UEAAXXZ 000000001203a250 f i PSVIAttributeList.obj
 0001:000392a0       ?cleanup@?$BaseRefVectorOf@VPSVIAttributeStorage@xercesc_3_1@@@xercesc_3_1@@UEAAXXZ 000000001203a2a0 f i PSVIAttributeList.obj
 0001:00039314       ??_G?$BaseRefVectorOf@VPSVIAttributeStorage@xercesc_3_1@@@xercesc_3_1@@UEAAPEAXI@Z 000000001203a314 f i PSVIAttributeList.obj
 0001:00039314       ??_E?$BaseRefVectorOf@VPSVIAttributeStorage@xercesc_3_1@@@xercesc_3_1@@UEAAPEAXI@Z 000000001203a314 f i  CIL library: CIL module
 0001:00039344       ??_G?$RefVectorOf@VPSVIAttributeStorage@xercesc_3_1@@@xercesc_3_1@@UEAAPEAXI@Z 000000001203a344 f i PSVIAttributeList.obj
 0001:00039344       ??_E?$RefVectorOf@VPSVIAttributeStorage@xercesc_3_1@@@xercesc_3_1@@UEAAPEAXI@Z 000000001203a344 f i  CIL library: CIL module
 0001:000393fc       ??_FPSVIElement@xercesc_3_1@@QEAAXXZ 000000001203a3fc f i PSVIElement.obj
 0001:00039448       ??_EPSVIElement@xercesc_3_1@@UEAAPEAXI@Z 000000001203a448 f i PSVIElement.obj
 0001:000394bc       ?getCurrentDatatypeValidator@SchemaValidator@xercesc_3_1@@QEBAPEAVDatatypeValidator@2@XZ 000000001203a4bc f i IGXMLScanner.obj
 0001:000394bc       ?getValidSubstitutionGroups@SchemaGrammar@xercesc_3_1@@QEBAPEAV?$RefHash2KeysTableOf@V?$ValueVectorOf@PEAVSchemaElementDecl@xercesc_3_1@@@xercesc_3_1@@UStringHasher@2@@2@XZ 000000001203a4bc f i XMLGrammarPoolImpl.obj
 0001:000394bc       ?getField@FieldMatcher@xercesc_3_1@@QEBAPEAVIC_Field@2@XZ 000000001203a4bc f i XMLElementDecl.obj
 0001:000394bc       ?getElementDeclaration@PSVIElement@xercesc_3_1@@QEAAPEAVXSElementDeclaration@2@XZ 000000001203a4bc f i PSVIElement.obj
 0001:000394bc       ?getDatatypeValidator@ComplexTypeInfo@xercesc_3_1@@QEBAPEAVDatatypeValidator@2@XZ 000000001203a4bc f i XMLElementDecl.obj
 0001:000394bc       ?getRecursingAnonTypes@SchemaInfo@xercesc_3_1@@QEBAPEAV?$ValueVectorOf@PEBVDOMElement@xercesc_3_1@@@2@XZ 000000001203a4bc f i IGXMLScanner.obj
 0001:000394bc       ?getComplexTypeInfo@SchemaElementDecl@xercesc_3_1@@QEBAPEAVComplexTypeInfo@2@XZ 000000001203a4bc f i XMLElementDecl.obj
 0001:000394bc       ?getName@DOMDocumentTypeImpl@xercesc_3_1@@UEBAPEB_WXZ 000000001203a4bc f i DOMDocumentTypeImpl.obj
 0001:000394bc       ?getAnnotation@XSElementDeclaration@xercesc_3_1@@QEBAPEAVXSAnnotation@2@XZ 000000001203a4bc f i PSVIElement.obj
 0001:000394bc       ?getAttributeDeclaration@PSVIAttribute@xercesc_3_1@@QEAAPEAVXSAttributeDeclaration@2@XZ 000000001203a4bc f i PSVIAttribute.obj
 0001:000394bc       ?getTypeLocalName@DatatypeValidator@xercesc_3_1@@QEBAPEB_WXZ 000000001203a4bc f i XMLAttr.obj
 0001:000394bc       ?getSystemId@DOMEntityImpl@xercesc_3_1@@UEBAPEB_WXZ 000000001203a4bc f i DOMEntityImpl.obj
 0001:000394bc       ?getNodeName@DOMEntityReferenceImpl@xercesc_3_1@@UEBAPEB_WXZ 000000001203a4bc f i DOMEntityReferenceImpl.obj
 0001:000394bc       ?getAttributes@DOMElementImpl@xercesc_3_1@@UEBAPEAVDOMNamedNodeMap@2@XZ 000000001203a4bc f i DOMElementImpl.obj
 0001:000394bc       ?getDatatypeValidator@SchemaAttDef@xercesc_3_1@@QEBAPEAVDatatypeValidator@2@XZ 000000001203a4bc f i XMLElementDecl.obj
 0001:000394bc       ?getFacets@XSSimpleTypeDefinition@xercesc_3_1@@QEAAPEAV?$RefVectorOf@VXSFacet@xercesc_3_1@@@2@XZ 000000001203a4bc f i XMLAttr.obj
 0001:000394bc       ?getNodeName@DOMDocumentTypeImpl@xercesc_3_1@@UEBAPEB_WXZ 000000001203a4bc f i DOMDocumentTypeImpl.obj
 0001:000394bc       ?getSimpleType@XSComplexTypeDefinition@xercesc_3_1@@QEBAPEAVXSSimpleTypeDefinition@2@XZ 000000001203a4bc f i PSVIElement.obj
 0001:000394bc       ?getNamespaceURI@DOMAttrNSImpl@xercesc_3_1@@UEBAPEB_WXZ 000000001203a4bc f i DOMAttrNSImpl.obj
 0001:000394bc       ?getMemoryManager@XMLEntityDecl@xercesc_3_1@@QEBAPEAVMemoryManager@2@XZ 000000001203a4bc f i XMLDTDDescription.obj
 0001:000394c4       ?getSubstitutionGroupExclusions@XSElementDeclaration@xercesc_3_1@@QEBAFXZ 000000001203a4c4 f i PSVIElement.obj
 0001:000394cc       ?getDisallowedSubstitutions@XSElementDeclaration@xercesc_3_1@@QEBAFXZ 000000001203a4cc f i PSVIElement.obj
 0001:000394d4       ?getProhibitedSubstitutions@XSComplexTypeDefinition@xercesc_3_1@@QEBAFXZ 000000001203a4d4 f i PSVIElement.obj
 0001:000394dc       ??0PSVIElement@xercesc_3_1@@QEAA@QEAVMemoryManager@1@@Z 000000001203a4dc f   PSVIElement.obj
 0001:00039524       ??1PSVIElement@xercesc_3_1@@UEAA@XZ 000000001203a524 f   PSVIElement.obj
 0001:00039564       ?reset@PSVIElement@xercesc_3_1@@QEAAXW4VALIDITY_STATE@PSVIItem@2@W4ASSESSMENT_TYPE@42@QEB_W_NQEAVXSElementDeclaration@2@QEAVXSTypeDefinition@2@QEAVXSSimpleTypeDefinition@2@QEAVXSModel@2@22QEA_WQEAVXSNotationDeclaration@2@@Z 000000001203a564 f   PSVIElement.obj
 0001:000395e4       ??0PSVIItem@xercesc_3_1@@QEAA@QEAVMemoryManager@1@@Z 000000001203a5e4 f   PSVIItem.obj
 0001:00039620       ?reset@PSVIItem@xercesc_3_1@@QEAAXQEB_W0W4VALIDITY_STATE@12@W4ASSESSMENT_TYPE@12@@Z 000000001203a620 f   PSVIItem.obj
 0001:00039634       ?setPSVIScope@SchemaElementDecl@xercesc_3_1@@QEAAXW4PSVIScope@PSVIDefs@2@@Z 000000001203a634 f   XMLElementDecl.obj
 0001:00039634       ?setValidationAttempted@PSVIItem@xercesc_3_1@@QEAAXW4ASSESSMENT_TYPE@12@@Z 000000001203a634 f   PSVIItem.obj
 0001:00039638       ?getActualValue@PSVIItem@xercesc_3_1@@UEBAPEAVXSValue@2@XZ 000000001203a638 f   PSVIItem.obj
 0001:000396e0       ??_EXSAnnotation@xercesc_3_1@@UEAAPEAXI@Z 000000001203a6e0 f i XSAnnotation.obj
 0001:00039754       ??0XMLPScanToken@xercesc_3_1@@QEAA@XZ 000000001203a754 f i XSAnnotation.obj
 0001:00039760       ??0XMLPScanToken@xercesc_3_1@@QEAA@AEBV01@@Z 000000001203a760 f i XSAnnotation.obj
 0001:00039770       ??4XMLPScanToken@xercesc_3_1@@QEAAAEAV01@AEBV01@@Z 000000001203a770 f i XSAnnotation.obj
 0001:00039784       ?set@XMLPScanToken@xercesc_3_1@@IEAAXII@Z 000000001203a784 f i XSAnnotation.obj
 0001:0003978c       ??0SAX2XMLReader@xercesc_3_1@@QEAA@XZ 000000001203a78c f i XSAnnotation.obj
 0001:0003979c       ??1SAX2XMLReader@xercesc_3_1@@UEAA@XZ 000000001203a79c f i XSAnnotation.obj
 0001:0003979c       ??1SAX2XMLFilter@xercesc_3_1@@UEAA@XZ 000000001203a79c f i SAX2XMLFilterImpl.obj
 0001:000397a8       ??_ESAX2XMLFilter@xercesc_3_1@@UEAAPEAXI@Z 000000001203a7a8 f i SAX2XMLFilterImpl.obj
 0001:000397a8       ??_ESAX2XMLReader@xercesc_3_1@@UEAAPEAXI@Z 000000001203a7a8 f i XSAnnotation.obj
 0001:00039814       ??0SAXException@xercesc_3_1@@QEAA@QEAVMemoryManager@1@@Z 000000001203a814 f i XSAnnotation.obj
 0001:000398a0       ??0SAXException@xercesc_3_1@@QEAA@QEB_WQEAVMemoryManager@1@@Z 000000001203a8a0 f i XSAnnotation.obj
 0001:00039930       ??0SAXException@xercesc_3_1@@QEAA@QEBDQEAVMemoryManager@1@@Z 000000001203a930 f i XSAnnotation.obj
 0001:00039970       ??0SAXException@xercesc_3_1@@QEAA@AEBV01@@Z 000000001203a970 f i XSAnnotation.obj
 0001:00039a08       ??4SAXException@xercesc_3_1@@QEAAAEAV01@AEBV01@@Z 000000001203aa08 f i XSAnnotation.obj
 0001:00039aa8       ??_FSAXException@xercesc_3_1@@QEAAXXZ 000000001203aaa8 f i XSAnnotation.obj
 0001:00039ab4       ??4SAXNotRecognizedException@xercesc_3_1@@QEAAAEAV01@AEBV01@@Z 000000001203aab4 f i XSAnnotation.obj
 0001:00039ab4       ??4SAXNotSupportedException@xercesc_3_1@@QEAAAEAV01@AEBV01@@Z 000000001203aab4 f i XSAnnotation.obj
 0001:00039acc       ??_FSAXNotSupportedException@xercesc_3_1@@QEAAXXZ 000000001203aacc f i XSAnnotation.obj
 0001:00039af4       ??_ESAXNotSupportedException@xercesc_3_1@@UEAAPEAXI@Z 000000001203aaf4 f i XSAnnotation.obj
 0001:00039af4       ??_ESAXException@xercesc_3_1@@UEAAPEAXI@Z 000000001203aaf4 f i XSAnnotation.obj
 0001:00039af4       ??_ESAXNotRecognizedException@xercesc_3_1@@UEAAPEAXI@Z 000000001203aaf4 f i XSAnnotation.obj
 0001:00039b78       ??1SAXNotRecognizedException@xercesc_3_1@@UEAA@XZ 000000001203ab78 f i XSAnnotation.obj
 0001:00039b78       ??1SAXException@xercesc_3_1@@UEAA@XZ 000000001203ab78 f i XSAnnotation.obj
 0001:00039b78       ??1SAXNotSupportedException@xercesc_3_1@@UEAA@XZ 000000001203ab78 f i XSAnnotation.obj
 0001:00039b94       ??_FSAXNotRecognizedException@xercesc_3_1@@QEAAXXZ 000000001203ab94 f i XSAnnotation.obj
 0001:00039bbc       ?createXMLReader@XMLReaderFactory@xercesc_3_1@@SAPEAVSAX2XMLReader@2@PEB_W@Z 000000001203abbc f i XSAnnotation.obj
 0001:00039bf0       ??0DOMNode@xercesc_3_1@@IEAA@AEBV01@@Z 000000001203abf0 f i XSAnnotation.obj
 0001:00039bf0       ??0DOMNode@xercesc_3_1@@IEAA@XZ 000000001203abf0 f i XSAnnotation.obj
 0001:00039c00       ??0DOMDocumentRange@xercesc_3_1@@IEAA@XZ 000000001203ac00 f i XSAnnotation.obj
 0001:00039c10       ??1DOMDocumentRange@xercesc_3_1@@UEAA@XZ 000000001203ac10 f i XSAnnotation.obj
 0001:00039c1c       ??_EDOMDocumentRange@xercesc_3_1@@UEAAPEAXI@Z 000000001203ac1c f i XSAnnotation.obj
 0001:00039c88       ??0DOMNodeFilter@xercesc_3_1@@IEAA@XZ 000000001203ac88 f i XSAnnotation.obj
 0001:00039c98       ??0DOMDocumentTraversal@xercesc_3_1@@IEAA@XZ 000000001203ac98 f i XSAnnotation.obj
 0001:00039ca8       ??1DOMDocumentTraversal@xercesc_3_1@@UEAA@XZ 000000001203aca8 f i XSAnnotation.obj
 0001:00039cb4       ??_EDOMDocumentTraversal@xercesc_3_1@@UEAAPEAXI@Z 000000001203acb4 f i XSAnnotation.obj
 0001:00039d20       ??0DOMXPathResult@xercesc_3_1@@IEAA@XZ 000000001203ad20 f i XSAnnotation.obj
 0001:00039d30       ??1DOMXPathResult@xercesc_3_1@@UEAA@XZ 000000001203ad30 f i XSAnnotation.obj
 0001:00039d3c       ??_EDOMXPathResult@xercesc_3_1@@UEAAPEAXI@Z 000000001203ad3c f i XSAnnotation.obj
 0001:00039da8       ??0DOMXPathEvaluator@xercesc_3_1@@IEAA@XZ 000000001203ada8 f i XSAnnotation.obj
 0001:00039db8       ??1DOMXPathEvaluator@xercesc_3_1@@UEAA@XZ 000000001203adb8 f i XSAnnotation.obj
 0001:00039dc4       ??_EDOMXPathEvaluator@xercesc_3_1@@UEAAPEAXI@Z 000000001203adc4 f i XSAnnotation.obj
 0001:00039e30       ??0DOMDocument@xercesc_3_1@@IEAA@XZ 000000001203ae30 f i XSAnnotation.obj
 0001:00039e60       ??1DOMDocument@xercesc_3_1@@UEAA@XZ 000000001203ae60 f i XSAnnotation.obj
 0001:00039e8c       ?createDocumentType@DOMDocument@xercesc_3_1@@UEAAPEAVDOMDocumentType@2@PEB_W00@Z 000000001203ae8c f i XSAnnotation.obj
 0001:00039e98       ??_EDOMDocument@xercesc_3_1@@UEAAPEAXI@Z 000000001203ae98 f i XSAnnotation.obj
 0001:00039f28       ??1XMLDocumentHandler@xercesc_3_1@@UEAA@XZ 000000001203af28 f i XSAnnotation.obj
 0001:00039f34       ??0XMLDocumentHandler@xercesc_3_1@@IEAA@XZ 000000001203af34 f i XSAnnotation.obj
 0001:00039f44       ??_EXMLDocumentHandler@xercesc_3_1@@UEAAPEAXI@Z 000000001203af44 f i XSAnnotation.obj
 0001:00039fb0       ??1XMLEntityHandler@xercesc_3_1@@UEAA@XZ 000000001203afb0 f i XSAnnotation.obj
 0001:00039fbc       ??0XMLEntityHandler@xercesc_3_1@@IEAA@XZ 000000001203afbc f i XSAnnotation.obj
 0001:00039fcc       ??_EXMLEntityHandler@xercesc_3_1@@UEAAPEAXI@Z 000000001203afcc f i XSAnnotation.obj
 0001:0003a038       ??0DocTypeHandler@xercesc_3_1@@QEAA@XZ 000000001203b038 f i XSAnnotation.obj
 0001:0003a048       ??1DocTypeHandler@xercesc_3_1@@UEAA@XZ 000000001203b048 f i XSAnnotation.obj
 0001:0003a054       ??_EDocTypeHandler@xercesc_3_1@@UEAAPEAXI@Z 000000001203b054 f i XSAnnotation.obj
 0001:0003a0c0       ??0DOMDocumentType@xercesc_3_1@@IEAA@XZ 000000001203b0c0 f i XSAnnotation.obj
 0001:0003a0d0       ??1PSVIHandler@xercesc_3_1@@UEAA@XZ 000000001203b0d0 f i XSAnnotation.obj
 0001:0003a0dc       ??0PSVIHandler@xercesc_3_1@@IEAA@XZ 000000001203b0dc f i XSAnnotation.obj
 0001:0003a0ec       ??_EPSVIHandler@xercesc_3_1@@UEAAPEAXI@Z 000000001203b0ec f i XSAnnotation.obj
 0001:0003a158       ??_FAbstractDOMParser@xercesc_3_1@@QEAAXXZ 000000001203b158 f i XSAnnotation.obj
 0001:0003a16c       ?getNormalizeData@XMLScanner@xercesc_3_1@@QEBA_NXZ 000000001203b16c f i XMLValidator.obj
 0001:0003a16c       ?getIncludeIgnorableWhitespace@AbstractDOMParser@xercesc_3_1@@QEBA_NXZ 000000001203b16c f i XSAnnotation.obj
 0001:0003a170       ?getDisableDefaultEntityResolution@XMLScanner@xercesc_3_1@@QEBA_NXZ 000000001203b170 f i XMLValidator.obj
 0001:0003a170       ?getCreateSchemaInfo@AbstractDOMParser@xercesc_3_1@@QEBA_NXZ 000000001203b170 f i XSAnnotation.obj
 0001:0003a174       ?useImplementation@AbstractDOMParser@xercesc_3_1@@QEAAXQEB_W@Z 000000001203b174 f i XSAnnotation.obj
 0001:0003a1fc       ?setDoXInclude@AbstractDOMParser@xercesc_3_1@@QEAAX_N@Z 000000001203b1fc f i XSAnnotation.obj
 0001:0003a1fc       ?setSkipDTDValidation@XMLScanner@xercesc_3_1@@QEAAX_N@Z 000000001203b1fc f i XMLValidator.obj
 0001:0003a200       ??_FXercesDOMParser@xercesc_3_1@@QEAAXXZ 000000001203b200 f i XSAnnotation.obj
 0001:0003a214       ?getErrorHandler@XercesDOMParser@xercesc_3_1@@QEAAPEAVErrorHandler@2@XZ 000000001203b214 f i XSAnnotation.obj
 0001:0003a214       ?getErrorHandler@XercesDOMParser@xercesc_3_1@@QEBAPEBVErrorHandler@2@XZ 000000001203b214 f i XSAnnotation.obj
 0001:0003a214       ?getNonXSAttList@SchemaInfo@xercesc_3_1@@QEBAPEAV?$ValueVectorOf@PEAVDOMNode@xercesc_3_1@@@2@XZ 000000001203b214 f i IGXMLScanner.obj
 0001:0003a214       ?getDeclarationHandler@SAX2XMLReaderImpl@xercesc_3_1@@UEBAPEAVDeclHandler@2@XZ 000000001203b214 f i SAX2XMLReaderImpl.obj
 0001:0003a21c       ?getEntityResolver@XercesDOMParser@xercesc_3_1@@QEBAPEBVEntityResolver@2@XZ 000000001203b21c f i XSAnnotation.obj
 0001:0003a21c       ?getPSVIHandler@SAX2XMLReaderImpl@xercesc_3_1@@UEBAPEAVPSVIHandler@2@XZ 000000001203b21c f i SAX2XMLReaderImpl.obj
 0001:0003a21c       ?getMostRecentAttrValidator@SchemaValidator@xercesc_3_1@@QEBAPEAVDatatypeValidator@2@XZ 000000001203b21c f i IGXMLScanner.obj
 0001:0003a21c       ?getEntityResolver@XercesDOMParser@xercesc_3_1@@QEAAPEAVEntityResolver@2@XZ 000000001203b21c f i XSAnnotation.obj
 0001:0003a224       ??0DOMElement@xercesc_3_1@@IEAA@XZ 000000001203b224 f i XSAnnotation.obj
 0001:0003a224       ??0DOMElement@xercesc_3_1@@IEAA@AEBV01@@Z 000000001203b224 f i XSAnnotation.obj
 0001:0003a234       ??0XSAnnotation@xercesc_3_1@@QEAA@QEB_WQEAVMemoryManager@1@@Z 000000001203b234 f   XSAnnotation.obj
 0001:0003a2f0       ??0XSAnnotation@xercesc_3_1@@QEAA@QEAVMemoryManager@1@@Z 000000001203b2f0 f   XSAnnotation.obj
 0001:0003a344       ??1XSAnnotation@xercesc_3_1@@UEAA@XZ 000000001203b344 f   XSAnnotation.obj
 0001:0003a3bc       ?writeAnnotation@XSAnnotation@xercesc_3_1@@QEAAXPEAVDOMNode@2@W4ANNOTATION_TARGET@12@@Z 000000001203b3bc f   XSAnnotation.obj
 0001:0003a594       ?writeAnnotation@XSAnnotation@xercesc_3_1@@QEAAXPEAVContentHandler@2@@Z 000000001203b594 f   XSAnnotation.obj
 0001:0003a6cc       ?setNext@XSAnnotation@xercesc_3_1@@QEAAXQEAV12@@Z 000000001203b6cc f   XSAnnotation.obj
 0001:0003a6e0       ?setSystemId@XSAnnotation@xercesc_3_1@@QEAAXQEB_W@Z 000000001203b6e0 f   XSAnnotation.obj
 0001:0003a768       ?createObject@XSAnnotation@xercesc_3_1@@SAPEAVXSerializable@2@PEAVMemoryManager@2@@Z 000000001203b768 f   XSAnnotation.obj
 0001:0003a7d8       ?getProtoType@XSAnnotation@xercesc_3_1@@UEBAPEAVXProtoType@2@XZ 000000001203b7d8 f   XSAnnotation.obj
 0001:0003a7e0       ?serialize@XSAnnotation@xercesc_3_1@@UEAAXAEAVXSerializeEngine@2@@Z 000000001203b7e0 f   XSAnnotation.obj
 0001:0003a8ac       ??_EXSAnnotation@xercesc_3_1@@W7EAAPEAXI@Z 000000001203b8ac f i XSAnnotation.obj
 0001:0003a8b8       ??_EDOMDocument@xercesc_3_1@@WBI@EAAPEAXI@Z 000000001203b8b8 f i XSAnnotation.obj
 0001:0003a8c4       ??_EDOMDocument@xercesc_3_1@@W7EAAPEAXI@Z 000000001203b8c4 f i XSAnnotation.obj
 0001:0003a8d0       ??_EDOMDocument@xercesc_3_1@@WBA@EAAPEAXI@Z 000000001203b8d0 f i XSAnnotation.obj
 0001:0003a8dc       ??_EXSAttributeDeclaration@xercesc_3_1@@UEAAPEAXI@Z 000000001203b8dc f i XSAttributeDeclaration.obj
 0001:0003a950       ??0XSAttributeDeclaration@xercesc_3_1@@QEAA@QEAVSchemaAttDef@1@QEAVXSSimpleTypeDefinition@1@QEAVXSAnnotation@1@QEAVXSModel@1@W4SCOPE@XSConstants@1@PEAVXSComplexTypeDefinition@1@QEAVMemoryManager@1@@Z 000000001203b950 f   XSAttributeDeclaration.obj
 0001:0003a9c4       ?getName@XSAttributeDeclaration@xercesc_3_1@@UEBAPEB_WXZ 000000001203b9c4 f   XSAttributeDeclaration.obj
 0001:0003a9d4       ?getNamespace@XSAttributeDeclaration@xercesc_3_1@@UEAAPEB_WXZ 000000001203b9d4 f   XSAttributeDeclaration.obj
 0001:0003a9f4       ?getConstraintType@XSAttributeDeclaration@xercesc_3_1@@QEBA?AW4VALUE_CONSTRAINT@XSConstants@2@XZ 000000001203b9f4 f   XSAttributeDeclaration.obj
 0001:0003aa1c       ?getConstraintValue@XSAttributeDeclaration@xercesc_3_1@@QEAAPEB_WXZ 000000001203ba1c f   XSAttributeDeclaration.obj
 0001:0003aa30       ?getRequired@XSAttributeDeclaration@xercesc_3_1@@QEBA_NXZ 000000001203ba30 f   XSAttributeDeclaration.obj
 0001:0003aa48       ??_EXSAttributeGroupDefinition@xercesc_3_1@@UEAAPEAXI@Z 000000001203ba48 f i XSAttributeGroupDefinition.obj
 0001:0003aabc       ?getExpandEntityReferences@DOMTreeWalkerImpl@xercesc_3_1@@UEAA_NXZ 000000001203babc f i DOMTreeWalkerImpl.obj
 0001:0003aabc       ?getRequired@XSAttributeUse@xercesc_3_1@@QEBA_NXZ 000000001203babc f i XSAttributeGroupDefinition.obj
 0001:0003aabc       ?isExternal@XMLElementDecl@xercesc_3_1@@QEBA_NXZ 000000001203babc f i XMLDTDDescription.obj
 0001:0003aabc       ?getCreateEntityReferenceNodes@AbstractDOMParser@xercesc_3_1@@QEBA_NXZ 000000001203babc f i XSAnnotation.obj
 0001:0003aabc       ?getIssueFatalErrorIfNotFound@InputSource@xercesc_3_1@@UEBA_NXZ 000000001203babc f i LocalFileInputSource.obj
 0001:0003aabc       ?getExpandEntityReferences@DOMNodeIteratorImpl@xercesc_3_1@@UEAA_NXZ 000000001203babc f i DOMNodeIteratorImpl.obj
 0001:0003aabc       ?getLoadSchema@XMLScanner@xercesc_3_1@@QEBA_NXZ 000000001203babc f i XMLValidator.obj
 0001:0003aac0       ??0XSAttributeGroupDefinition@xercesc_3_1@@QEAA@QEAVXercesAttGroupInfo@1@QEAV?$RefVectorOf@VXSAttributeUse@xercesc_3_1@@@1@QEAVXSWildcard@1@QEAVXSAnnotation@1@QEAVXSModel@1@QEAVMemoryManager@1@@Z 000000001203bac0 f   XSAttributeGroupDefinition.obj
 0001:0003ab2c       ??1XSAttributeGroupDefinition@xercesc_3_1@@UEAA@XZ 000000001203bb2c f   XSAttributeGroupDefinition.obj
 0001:0003ab70       ?getName@XSAttributeGroupDefinition@xercesc_3_1@@UEBAPEB_WXZ 000000001203bb70 f   XSAttributeGroupDefinition.obj
 0001:0003ab8c       ?getNamespace@XSNotationDeclaration@xercesc_3_1@@UEAAPEB_WXZ 000000001203bb8c f   XSNotationDeclaration.obj
 0001:0003ab8c       ?getName@XSModelGroupDefinition@xercesc_3_1@@UEBAPEB_WXZ 000000001203bb8c f   XSModelGroupDefinition.obj
 0001:0003ab8c       ?getNamespace@XSAttributeGroupDefinition@xercesc_3_1@@UEAAPEB_WXZ 000000001203bb8c f   XSAttributeGroupDefinition.obj
 0001:0003aba8       ??0XSAttributeUse@xercesc_3_1@@QEAA@QEAVXSAttributeDeclaration@1@QEAVXSModel@1@QEAVMemoryManager@1@@Z 000000001203bba8 f   XSAttributeUse.obj
 0001:0003abec       ?set@XSAttributeUse@xercesc_3_1@@AEAAX_NW4VALUE_CONSTRAINT@XSConstants@2@QEB_W@Z 000000001203bbec f   XSAttributeUse.obj
 0001:0003abf8       ??_EXSComplexTypeDefinition@xercesc_3_1@@UEAAPEAXI@Z 000000001203bbf8 f i XSComplexTypeDefinition.obj
 0001:0003ac6c       ?getMaxOccursUnbounded@XSParticle@xercesc_3_1@@QEBA_NXZ 000000001203bc6c f i XSComplexTypeDefinition.obj
 0001:0003ac70       ??_FSchemaAttDefList@xercesc_3_1@@QEAAXXZ 000000001203bc70 f i XSComplexTypeDefinition.obj
 0001:0003ac9c       ?addAttDef@DTDAttDefList@xercesc_3_1@@AEAAXPEAVDTDAttDef@2@@Z 000000001203bc9c f i DTDAttDefList.obj
 0001:0003ac9c       ?addAttDef@SchemaAttDefList@xercesc_3_1@@AEAAXPEAVSchemaAttDef@2@@Z 000000001203bc9c f i XSComplexTypeDefinition.obj
 0001:0003ad1c       ?findAttDefLocalPart@SchemaAttDefList@xercesc_3_1@@QEBAPEBVXMLAttDef@2@IQEB_W@Z 000000001203bd1c f i XSComplexTypeDefinition.obj
 0001:0003ad1c       ?findAttDefLocalPart@SchemaAttDefList@xercesc_3_1@@QEAAPEAVXMLAttDef@2@IQEB_W@Z 000000001203bd1c f i XSComplexTypeDefinition.obj
 0001:0003ad4c       ??0XSComplexTypeDefinition@xercesc_3_1@@QEAA@QEAVComplexTypeInfo@1@QEAVXSWildcard@1@QEAVXSSimpleTypeDefinition@1@QEAV?$RefVectorOf@VXSAttributeUse@xercesc_3_1@@@1@QEAVXSTypeDefinition@1@QEAVXSParticle@1@QEAVXSAnnotation@1@QEAVXSModel@1@QEAVMemoryManager@1@@Z 000000001203bd4c f   XSComplexTypeDefinition.obj
 0001:0003ae8c       ??1XSComplexTypeDefinition@xercesc_3_1@@UEAA@XZ 000000001203be8c f   XSComplexTypeDefinition.obj
 0001:0003aef8       ?getDerivationMethod@XSComplexTypeDefinition@xercesc_3_1@@QEBA?AW4DERIVATION_TYPE@XSConstants@2@XZ 000000001203bef8 f   XSComplexTypeDefinition.obj
 0001:0003af08       ?getAbstract@XSComplexTypeDefinition@xercesc_3_1@@QEBA_NXZ 000000001203bf08 f   XSComplexTypeDefinition.obj
 0001:0003af10       ?getContentType@XSComplexTypeDefinition@xercesc_3_1@@QEBA?AW4CONTENT_TYPE@12@XZ 000000001203bf10 f   XSComplexTypeDefinition.obj
 0001:0003af40       ?isProhibitedSubstitution@XSComplexTypeDefinition@xercesc_3_1@@QEAA_NW4DERIVATION_TYPE@XSConstants@2@@Z 000000001203bf40 f   XSComplexTypeDefinition.obj
 0001:0003af4c       ?getBaseURI@DOMEntityReferenceImpl@xercesc_3_1@@UEBAPEB_WXZ 000000001203bf4c f   DOMEntityReferenceImpl.obj
 0001:0003af4c       ?getMultiValueFacets@XSSimpleTypeDefinition@xercesc_3_1@@QEAAPEAV?$RefVectorOf@VXSMultiValueFacet@xercesc_3_1@@@2@XZ 000000001203bf4c f   XMLAttr.obj
 0001:0003af4c       ?getRawData@XMLDateTime@xercesc_3_1@@UEBAPEA_WXZ 000000001203bf4c f   XMLDateTime.obj
 0001:0003af4c       ?getAnnotations@XSComplexTypeDefinition@xercesc_3_1@@QEAAPEAV?$RefVectorOf@VXSAnnotation@xercesc_3_1@@@2@XZ 000000001203bf4c f   XSComplexTypeDefinition.obj
 0001:0003af4c       ?getEntities@DOMDocumentTypeImpl@xercesc_3_1@@UEBAPEAVDOMNamedNodeMap@2@XZ 000000001203bf4c f   DOMDocumentTypeImpl.obj
 0001:0003af4c       ?getDefaultAttributes@DOMElementImpl@xercesc_3_1@@UEBAPEAVDOMAttrMapImpl@2@XZ 000000001203bf4c f   DOMElementImpl.obj
 0001:0003af4c       ?getValidationContext@SchemaGrammar@xercesc_3_1@@QEBAPEAVValidationContext@2@XZ 000000001203bf4c f   XMLGrammarPoolImpl.obj
 0001:0003af4c       ?getRecursingTypeNames@SchemaInfo@xercesc_3_1@@QEBAPEAV?$ValueVectorOf@PEB_W@2@XZ 000000001203bf4c f   IGXMLScanner.obj
 0001:0003af4c       ?getNotationName@DOMEntityImpl@xercesc_3_1@@UEBAPEB_WXZ 000000001203bf4c f   DOMEntityImpl.obj
 0001:0003af4c       ?getBaseComplexTypeInfo@ComplexTypeInfo@xercesc_3_1@@QEBAPEAV12@XZ 000000001203bf4c f   XMLElementDecl.obj
 0001:0003af4c       ?getNotationDeclaration@PSVIElement@xercesc_3_1@@QEAAPEAVXSNotationDeclaration@2@XZ 000000001203bf4c f   PSVIElement.obj
 0001:0003af4c       ?getIdentityConstraints@XSElementDeclaration@xercesc_3_1@@QEAAPEAV?$XSNamedMap@VXSIDCDefinition@xercesc_3_1@@@2@XZ 000000001203bf4c f   PSVIElement.obj
 0001:0003af4c       ?getLocalName@DOMAttrNSImpl@xercesc_3_1@@UEBAPEB_WXZ 000000001203bf4c f   DOMAttrNSImpl.obj
 0001:0003af4c       ?getTypeUri@DatatypeValidator@xercesc_3_1@@QEBAPEB_WXZ 000000001203bf4c f   XMLAttr.obj
 0001:0003af4c       ?getNamespaceList@SchemaAttDef@xercesc_3_1@@QEBAPEAV?$ValueVectorOf@I@2@XZ 000000001203bf4c f   XMLElementDecl.obj
 0001:0003af54       ?getName@XSComplexTypeDefinition@xercesc_3_1@@UEBAPEB_WXZ 000000001203bf54 f   XSComplexTypeDefinition.obj
 0001:0003af60       ?getNamespace@XSComplexTypeDefinition@xercesc_3_1@@UEAAPEB_WXZ 000000001203bf60 f   XSComplexTypeDefinition.obj
 0001:0003af6c       ?getNamespaceItem@XSAttributeDeclaration@xercesc_3_1@@UEAAPEAVXSNamespaceItem@2@XZ 000000001203bf6c f   XSAttributeDeclaration.obj
 0001:0003af6c       ?getNamespaceItem@XSElementDeclaration@xercesc_3_1@@UEAAPEAVXSNamespaceItem@2@XZ 000000001203bf6c f   XSElementDeclaration.obj
 0001:0003af6c       ?getNamespaceItem@XSNotationDeclaration@xercesc_3_1@@UEAAPEAVXSNamespaceItem@2@XZ 000000001203bf6c f   XSNotationDeclaration.obj
 0001:0003af6c       ?getNamespaceItem@XSModelGroupDefinition@xercesc_3_1@@UEAAPEAVXSNamespaceItem@2@XZ 000000001203bf6c f   XSModelGroupDefinition.obj
 0001:0003af6c       ?getNamespaceItem@XSSimpleTypeDefinition@xercesc_3_1@@UEAAPEAVXSNamespaceItem@2@XZ 000000001203bf6c f   XSSimpleTypeDefinition.obj
 0001:0003af6c       ?getNamespaceItem@XSAttributeGroupDefinition@xercesc_3_1@@UEAAPEAVXSNamespaceItem@2@XZ 000000001203bf6c f   XSAttributeGroupDefinition.obj
 0001:0003af6c       ?getNamespaceItem@XSIDCDefinition@xercesc_3_1@@UEAAPEAVXSNamespaceItem@2@XZ 000000001203bf6c f   XSIDCDefinition.obj
 0001:0003af6c       ?getNamespaceItem@XSComplexTypeDefinition@xercesc_3_1@@UEAAPEAVXSNamespaceItem@2@XZ 000000001203bf6c f   XSComplexTypeDefinition.obj
 0001:0003af8c       ?getAnonymous@XSComplexTypeDefinition@xercesc_3_1@@UEBA_NXZ 000000001203bf8c f   XSComplexTypeDefinition.obj
 0001:0003af94       ?derivedFromType@XSComplexTypeDefinition@xercesc_3_1@@UEAA_NQEBVXSTypeDefinition@2@@Z 000000001203bf94 f   XSComplexTypeDefinition.obj
 0001:0003b00c       ??1?$BaseRefVectorOf@VXSAnnotation@xercesc_3_1@@@xercesc_3_1@@UEAA@XZ 000000001203c00c f i XSComplexTypeDefinition.obj
 0001:0003b018       ??0?$RefVectorOf@VXSAnnotation@xercesc_3_1@@@xercesc_3_1@@QEAA@_K_NQEAVMemoryManager@1@@Z 000000001203c018 f i XSComplexTypeDefinition.obj
 0001:0003b08c       ??_E?$BaseRefVectorOf@VXSAnnotation@xercesc_3_1@@@xercesc_3_1@@UEAAPEAXI@Z 000000001203c08c f i  CIL library: CIL module
 0001:0003b08c       ??_G?$BaseRefVectorOf@VXSAnnotation@xercesc_3_1@@@xercesc_3_1@@UEAAPEAXI@Z 000000001203c08c f i XSComplexTypeDefinition.obj
 0001:0003b0bc       ??_G?$RefVectorOf@VXSAnnotation@xercesc_3_1@@@xercesc_3_1@@UEAAPEAXI@Z 000000001203c0bc f i XSComplexTypeDefinition.obj
 0001:0003b0bc       ??_E?$RefVectorOf@VXSAnnotation@xercesc_3_1@@@xercesc_3_1@@UEAAPEAXI@Z 000000001203c0bc f i  CIL library: CIL module
 0001:0003b158       ??_EXSElementDeclaration@xercesc_3_1@@UEAAPEAXI@Z 000000001203c158 f i XSElementDeclaration.obj
 0001:0003b1cc       ?getRefKey@XSIDCDefinition@xercesc_3_1@@QEBAPEAV12@XZ 000000001203c1cc f i XSElementDeclaration.obj
 0001:0003b1cc       ?getParameterNames@DOMLSParserImpl@xercesc_3_1@@UEBAPEBVDOMStringList@2@XZ 000000001203c1cc f i DOMLSParserImpl.obj
 0001:0003b1cc       ?getLexicalFacetValues@XSMultiValueFacet@xercesc_3_1@@QEAAPEAV?$RefArrayVectorOf@_W@2@XZ 000000001203c1cc f i XSMultiValueFacet.obj
 0001:0003b1cc       ?getURI@DOMLocatorImpl@xercesc_3_1@@UEBAPEB_WXZ 000000001203c1cc f i DOMLSParserImpl.obj
 0001:0003b1cc       ?getFacets@DatatypeValidator@xercesc_3_1@@QEBAPEAV?$RefHashTableOf@VKVStringPair@xercesc_3_1@@UStringHasher@2@@2@XZ 000000001203c1cc f i XMLAttr.obj
 0001:0003b1cc       ?getGrammar@SchemaValidator@xercesc_3_1@@UEBAPEAVGrammar@2@XZ 000000001203c1cc f i IGXMLScanner.obj
 0001:0003b1cc       ?getTypeName@ComplexTypeInfo@xercesc_3_1@@QEBAPEA_WXZ 000000001203c1cc f i XMLElementDecl.obj
 0001:0003b1cc       ?getAnnotationString@XSAnnotation@xercesc_3_1@@QEBAPEB_WXZ 000000001203c1cc f i XMLGrammarPoolImpl.obj
 0001:0003b1cc       ?getScanner@AbstractDOMParser@xercesc_3_1@@IEBAPEAVXMLScanner@2@XZ 000000001203c1cc f i XSAnnotation.obj
 0001:0003b1cc       ?getMemoryManager@XMLAttDef@xercesc_3_1@@QEBAPEAVMemoryManager@2@XZ 000000001203c1cc f i XMLAttDef.obj
 0001:0003b1cc       ?getGrammarPool@GrammarResolver@xercesc_3_1@@QEBAPEAVXMLGrammarPool@2@XZ 000000001203c1cc f i XMLValidator.obj
 0001:0003b1cc       ?getDocument@DOMRangeImpl@xercesc_3_1@@QEAAPEAVDOMDocument@2@XZ 000000001203c1cc f i DOMRangeImpl.obj
 0001:0003b1cc       ?getEnclosingElementName@XMLSchemaDescriptionImpl@xercesc_3_1@@UEBAPEBVQName@2@XZ 000000001203c1cc f i XMLSchemaDescriptionImpl.obj
 0001:0003b1cc       ?getLocator@XercesGroupInfo@xercesc_3_1@@QEBAPEAVXSDLocator@2@XZ 000000001203c1cc f i XMLGrammarPoolImpl.obj
 0001:0003b1cc       ?getAttributeUses@XSAttributeGroupDefinition@xercesc_3_1@@QEAAPEAV?$RefVectorOf@VXSAttributeUse@xercesc_3_1@@@2@XZ 000000001203c1cc f i XSAttributeGroupDefinition.obj
 0001:0003b1cc       ?getSystemId@SAXParseException@xercesc_3_1@@QEBAPEB_WXZ 000000001203c1cc f i SAXParseException.obj
 0001:0003b1cc       ?getBaseURI@XMLNotationDecl@xercesc_3_1@@QEBAPEB_WXZ 000000001203c1cc f i XMLDTDDescription.obj
 0001:0003b1cc       ?getBaseURI@DOMNotationImpl@xercesc_3_1@@UEBAPEB_WXZ 000000001203c1cc f i DOMNotationImpl.obj
 0001:0003b1cc       ?getParameterNames@DOMLSSerializerImpl@xercesc_3_1@@UEBAPEBVDOMStringList@2@XZ 000000001203c1cc f i DOMLSSerializerImpl.obj
 0001:0003b1cc       ?getGrammarDescription@DTDGrammar@xercesc_3_1@@UEBAPEAVXMLGrammarDescription@2@XZ 000000001203c1cc f i DTDGrammar.obj
 0001:0003b1cc       ?getContentHandler@SAX2XMLFilterImpl@xercesc_3_1@@UEBAPEAVContentHandler@2@XZ 000000001203c1cc f i SAX2XMLFilterImpl.obj
 0001:0003b1cc       ?getLexicalFacetValue@XSFacet@xercesc_3_1@@QEBAPEB_WXZ 000000001203c1cc f i XSFacet.obj
 0001:0003b1cc       ?getParticles@XSModelGroup@xercesc_3_1@@QEBAPEAV?$RefVectorOf@VXSParticle@xercesc_3_1@@@2@XZ 000000001203c1cc f i XSModelGroup.obj
 0001:0003b1cc       ?getMinOccurs@XSParticle@xercesc_3_1@@QEBA_KXZ 000000001203c1cc f i XSComplexTypeDefinition.obj
 0001:0003b1cc       ?getAnnotation@XSNotationDeclaration@xercesc_3_1@@QEBAPEAVXSAnnotation@2@XZ 000000001203c1cc f i XSModel.obj
 0001:0003b1cc       ?getAttDefCount@SchemaAttDefList@xercesc_3_1@@UEBA_KXZ 000000001203c1cc f i SchemaAttDefList.obj
 0001:0003b1cc       ?getLocalPart@QName@xercesc_3_1@@QEAAPEA_WXZ 000000001203c1cc f i QName.obj
 0001:0003b1cc       ?getAttDefCount@DTDAttDefList@xercesc_3_1@@UEBA_KXZ 000000001203c1cc f i DTDAttDefList.obj
 0001:0003b1cc       ?getPath@XMLUri@xercesc_3_1@@QEBAPEB_WXZ 000000001203c1cc f i XMLString.obj
 0001:0003b1cc       ?getConstraintValue@XSAttributeUse@xercesc_3_1@@QEAAPEB_WXZ 000000001203c1cc f i XSAttributeGroupDefinition.obj
 0001:0003b1cc       ?getNsConstraintList@XSWildcard@xercesc_3_1@@QEAAPEAV?$RefArrayVectorOf@_W@2@XZ 000000001203c1cc f i XSComplexTypeDefinition.obj
 0001:0003b1cc       ?getBaseType@XSComplexTypeDefinition@xercesc_3_1@@UEAAPEAVXSTypeDefinition@2@XZ 000000001203c1cc f i XSComplexTypeDefinition.obj
 0001:0003b1cc       ?getAttributeDeclRegistry@SchemaGrammar@xercesc_3_1@@QEBAPEAV?$RefHashTableOf@VXMLAttDef@xercesc_3_1@@UStringHasher@2@@2@XZ 000000001203c1cc f i XMLGrammarPoolImpl.obj
 0001:0003b1cc       ?getPublicId@XMLEntityDecl@xercesc_3_1@@QEBAPEB_WXZ 000000001203c1cc f i XMLDTDDescription.obj
 0001:0003b1cc       ?getBaseURI@DOMLSInputImpl@xercesc_3_1@@UEBAPEB_WXZ 000000001203c1cc f i DOMImplementationImpl.obj
 0001:0003b1cc       ?getLocalPart@QName@xercesc_3_1@@QEBAPEB_WXZ 000000001203c1cc f i QName.obj
 0001:0003b1cc       ?getMemoryManager@XMLBigDecimal@xercesc_3_1@@QEBAPEAVMemoryManager@2@XZ 000000001203c1cc f i XMLAbstractDoubleFloat.obj
 0001:0003b1cc       ?getMemoryManager@XMLAbstractDoubleFloat@xercesc_3_1@@QEBAPEAVMemoryManager@2@XZ 000000001203c1cc f i XMLAbstractDoubleFloat.obj
 0001:0003b1cc       ?getBaseType@XSSimpleTypeDefinition@xercesc_3_1@@UEAAPEAVXSTypeDefinition@2@XZ 000000001203c1cc f i XSSimpleTypeDefinition.obj
 0001:0003b1cc       ?getTypeDefinition@XSAttributeDeclaration@xercesc_3_1@@QEBAPEAVXSSimpleTypeDefinition@2@XZ 000000001203c1cc f i PSVIAttributeList.obj
 0001:0003b1cc       ?getAnnotationString@XSAnnotation@xercesc_3_1@@QEAAPEA_WXZ 000000001203c1cc f i XMLGrammarPoolImpl.obj
 0001:0003b1d4       ??0XSElementDeclaration@xercesc_3_1@@QEAA@QEAVSchemaElementDecl@1@QEAVXSTypeDefinition@1@QEAV01@QEAVXSAnnotation@1@QEAV?$XSNamedMap@VXSIDCDefinition@xercesc_3_1@@@1@QEAVXSModel@1@W4SCOPE@XSConstants@1@QEAVXSComplexTypeDefinition@1@QEAVMemoryManager@1@@Z 000000001203c1d4 f   XSElementDeclaration.obj
 0001:0003b2ac       ??1XSElementDeclaration@xercesc_3_1@@UEAA@XZ 000000001203c2ac f   XSElementDeclaration.obj
 0001:0003b2ec       ?getName@XSElementDeclaration@xercesc_3_1@@UEBAPEB_WXZ 000000001203c2ec f   XSElementDeclaration.obj
 0001:0003b2fc       ?getNamespace@XSElementDeclaration@xercesc_3_1@@UEAAPEB_WXZ 000000001203c2fc f   XSElementDeclaration.obj
 0001:0003b31c       ?getConstraintType@XSElementDeclaration@xercesc_3_1@@QEBA?AW4VALUE_CONSTRAINT@XSConstants@2@XZ 000000001203c31c f   XSElementDeclaration.obj
 0001:0003b338       ?getConstraintValue@XSElementDeclaration@xercesc_3_1@@QEAAPEB_WXZ 000000001203c338 f   XSElementDeclaration.obj
 0001:0003b344       ?getNillable@XSElementDeclaration@xercesc_3_1@@QEBA_NXZ 000000001203c344 f   XSElementDeclaration.obj
 0001:0003b350       ?isSubstitutionGroupExclusion@XSElementDeclaration@xercesc_3_1@@QEAA_NW4DERIVATION_TYPE@XSConstants@2@@Z 000000001203c350 f   XSElementDeclaration.obj
 0001:0003b35c       ?isDisallowedSubstitution@XSElementDeclaration@xercesc_3_1@@QEAA_NW4DERIVATION_TYPE@XSConstants@2@@Z 000000001203c35c f   XSElementDeclaration.obj
 0001:0003b368       ?getAbstract@XSElementDeclaration@xercesc_3_1@@QEBA_NXZ 000000001203c368 f   XSElementDeclaration.obj
 0001:0003b374       ??_EXSFacet@xercesc_3_1@@UEAAPEAXI@Z 000000001203c374 f i XSFacet.obj
 0001:0003b374       ??_EXSAttributeUse@xercesc_3_1@@UEAAPEAXI@Z 000000001203c374 f i XSAttributeUse.obj
 0001:0003b3e8       ??0XSFacet@xercesc_3_1@@QEAA@W4FACET@XSSimpleTypeDefinition@1@QEB_W_NQEAVXSAnnotation@1@QEAVXSModel@1@QEAVMemoryManager@1@@Z 000000001203c3e8 f   XSFacet.obj
 0001:0003b454       ??1XSObject@xercesc_3_1@@UEAA@XZ 000000001203c454 f   XSObject.obj
 0001:0003b454       ??1XSTypeDefinition@xercesc_3_1@@UEAA@XZ 000000001203c454 f   XSTypeDefinition.obj
 0001:0003b454       ??1XSAttributeDeclaration@xercesc_3_1@@UEAA@XZ 000000001203c454 f   XSAttributeDeclaration.obj
 0001:0003b454       ??1XSFacet@xercesc_3_1@@UEAA@XZ 000000001203c454 f   XSFacet.obj
 0001:0003b454       ??1XSAttributeUse@xercesc_3_1@@UEAA@XZ 000000001203c454 f   XSAttributeUse.obj
 0001:0003b454       ??1XSNotationDeclaration@xercesc_3_1@@UEAA@XZ 000000001203c454 f   XSNotationDeclaration.obj
 0001:0003b460       ??_EXSIDCDefinition@xercesc_3_1@@UEAAPEAXI@Z 000000001203c460 f i XSIDCDefinition.obj
 0001:0003b4d4       ??_FIC_KeyRef@xercesc_3_1@@QEAAXXZ 000000001203c4d4 f i XSIDCDefinition.obj
 0001:0003b4e0       ??_FIC_Selector@xercesc_3_1@@QEAAXXZ 000000001203c4e0 f i XSIDCDefinition.obj
 0001:0003b4f8       ??1SelectorMatcher@xercesc_3_1@@UEAA@XZ 000000001203c4f8 f i XSIDCDefinition.obj
 0001:0003b508       ??_ESelectorMatcher@xercesc_3_1@@UEAAPEAXI@Z 000000001203c508 f i XSIDCDefinition.obj
 0001:0003b584       ??0XSIDCDefinition@xercesc_3_1@@QEAA@QEAVIdentityConstraint@1@QEAV01@QEAVXSAnnotation@1@QEAV?$RefArrayVectorOf@_W@1@QEAVXSModel@1@QEAVMemoryManager@1@@Z 000000001203c584 f   XSIDCDefinition.obj
 0001:0003b650       ??1XSIDCDefinition@xercesc_3_1@@UEAA@XZ 000000001203c650 f   XSIDCDefinition.obj
 0001:0003b6a8       ?getNamespace@XSIDCDefinition@xercesc_3_1@@UEAAPEB_WXZ 000000001203c6a8 f   XSIDCDefinition.obj
 0001:0003b6c4       ?getCategory@XSIDCDefinition@xercesc_3_1@@QEBA?AW4IC_CATEGORY@12@XZ 000000001203c6c4 f   XSIDCDefinition.obj
 0001:0003b6f8       ?getSelectorStr@XSIDCDefinition@xercesc_3_1@@QEAAPEB_WXZ 000000001203c6f8 f   XSIDCDefinition.obj
 0001:0003b70c       ??_FXSObjectFactory@xercesc_3_1@@QEAAXXZ 000000001203c70c f i XSModel.obj
 0001:0003b718       ?getGlobalValueStoreFor@ValueStoreCache@xercesc_3_1@@QEAAPEAVValueStore@2@QEBVIdentityConstraint@2@@Z 000000001203c718 f i IGXMLScanner.obj
 0001:0003b718       ?getObjectFromMap@XSObjectFactory@xercesc_3_1@@AEAAPEAVXSObject@2@PEAX@Z 000000001203c718 f i XSModel.obj
 0001:0003b750       ??0XSModel@xercesc_3_1@@QEAA@PEAVXMLGrammarPool@1@QEAVMemoryManager@1@@Z 000000001203c750 f   XSModel.obj
 0001:0003bbf0       ??0XSModel@xercesc_3_1@@QEAA@PEAV01@PEAVGrammarResolver@1@QEAVMemoryManager@1@@Z 000000001203cbf0 f   XSModel.obj
 0001:0003c3f0       ??1XSModel@xercesc_3_1@@QEAA@XZ 000000001203d3f0 f   XSModel.obj
 0001:0003c5b8       ??_G?$XSNamedMap@VXSObject@xercesc_3_1@@@xercesc_3_1@@QEAAPEAXI@Z 000000001203d5b8 f i XSModel.obj
 0001:0003c5b8       ??_G?$XSNamedMap@VXSIDCDefinition@xercesc_3_1@@@xercesc_3_1@@QEAAPEAXI@Z 000000001203d5b8 f i XSElementDeclaration.obj
 0001:0003c6a4       ?addComponentToIdVector@XSModel@xercesc_3_1@@AEAAXQEAVXSObject@2@_K@Z 000000001203d6a4 f   XSModel.obj
 0001:0003c6bc       ?addComponentToNamespace@XSModel@xercesc_3_1@@AEAAXQEAVXSNamespaceItem@2@QEAVXSObject@2@_K_N@Z 000000001203d6bc f   XSModel.obj
 0001:0003c7f0       ?addS4SToXSModel@XSModel@xercesc_3_1@@AEAAXQEAVXSNamespaceItem@2@QEAV?$RefHashTableOf@VDatatypeValidator@xercesc_3_1@@UStringHasher@2@@2@@Z 000000001203d7f0 f   XSModel.obj
 0001:0003c934       ?addGrammarToXSModel@XSModel@xercesc_3_1@@AEAAXPEAVXSNamespaceItem@2@@Z 000000001203d934 f   XSModel.obj
 0001:0003ccf0       ?getComponents@XSModel@xercesc_3_1@@QEAAPEAV?$XSNamedMap@VXSObject@xercesc_3_1@@@2@W4COMPONENT_TYPE@XSConstants@2@@Z 000000001203dcf0 f   XSModel.obj
 0001:0003ccfc       ?getComponentsByNamespace@XSModel@xercesc_3_1@@QEAAPEAV?$XSNamedMap@VXSObject@xercesc_3_1@@@2@W4COMPONENT_TYPE@XSConstants@2@PEB_W@Z 000000001203dcfc f   XSModel.obj
 0001:0003cd2c       ?getElementDeclaration@XSModel@xercesc_3_1@@QEAAPEAVXSElementDeclaration@2@PEB_W0@Z 000000001203dd2c f   XSModel.obj
 0001:0003cd64       ?getAttributeDeclaration@XSModel@xercesc_3_1@@QEAAPEAVXSAttributeDeclaration@2@PEB_W0@Z 000000001203dd64 f   XSModel.obj
 0001:0003cd9c       ?getTypeDefinition@XSModel@xercesc_3_1@@QEAAPEAVXSTypeDefinition@2@PEB_W0@Z 000000001203dd9c f   XSModel.obj
 0001:0003cdd4       ?getAttributeGroup@XSModel@xercesc_3_1@@QEAAPEAVXSAttributeGroupDefinition@2@PEB_W0@Z 000000001203ddd4 f   XSModel.obj
 0001:0003ce0c       ?getModelGroupDefinition@XSModel@xercesc_3_1@@QEAAPEAVXSModelGroupDefinition@2@PEB_W0@Z 000000001203de0c f   XSModel.obj
 0001:0003ce44       ?getNotationDeclaration@XSModel@xercesc_3_1@@QEAAPEAVXSNotationDeclaration@2@PEB_W0@Z 000000001203de44 f   XSModel.obj
 0001:0003ce7c       ?getXSObjectById@XSModel@xercesc_3_1@@QEAAPEAVXSObject@2@_KW4COMPONENT_TYPE@XSConstants@2@@Z 000000001203de7c f   XSModel.obj
 0001:0003ce94       ?getNamespaceItem@XSModel@xercesc_3_1@@QEAAPEAVXSNamespaceItem@2@QEB_W@Z 000000001203de94 f   XSModel.obj
 0001:0003cedc       ?getXSObject@XSModel@xercesc_3_1@@QEAAPEAVXSObject@2@PEAX@Z 000000001203dedc f   XSModel.obj
 0001:0003cf3c       ??1?$XMLEnumerator@VDatatypeValidator@xercesc_3_1@@@xercesc_3_1@@UEAA@XZ 000000001203df3c f i XSModel.obj
 0001:0003cf48       ??1?$XMLEnumerator@VXMLAttDef@xercesc_3_1@@@xercesc_3_1@@UEAA@XZ 000000001203df48 f i XSModel.obj
 0001:0003cf54       ??1?$XMLEnumerator@VComplexTypeInfo@xercesc_3_1@@@xercesc_3_1@@UEAA@XZ 000000001203df54 f i XSModel.obj
 0001:0003cf60       ??1?$XMLEnumerator@VXercesAttGroupInfo@xercesc_3_1@@@xercesc_3_1@@UEAA@XZ 000000001203df60 f i XSModel.obj
 0001:0003cf6c       ??1?$XMLEnumerator@VXercesGroupInfo@xercesc_3_1@@@xercesc_3_1@@UEAA@XZ 000000001203df6c f i XSModel.obj
 0001:0003cf78       ??_G?$XMLEnumerator@VDatatypeValidator@xercesc_3_1@@@xercesc_3_1@@UEAAPEAXI@Z 000000001203df78 f i XSModel.obj
 0001:0003cf78       ??_E?$XMLEnumerator@VDatatypeValidator@xercesc_3_1@@@xercesc_3_1@@UEAAPEAXI@Z 000000001203df78 f i  CIL library: CIL module
 0001:0003cfa0       ??_E?$XMLEnumerator@VXMLAttDef@xercesc_3_1@@@xercesc_3_1@@UEAAPEAXI@Z 000000001203dfa0 f i  CIL library: CIL module
 0001:0003cfa0       ??_G?$XMLEnumerator@VXMLAttDef@xercesc_3_1@@@xercesc_3_1@@UEAAPEAXI@Z 000000001203dfa0 f i XSModel.obj
 0001:0003cfc8       ??_G?$XMLEnumerator@VComplexTypeInfo@xercesc_3_1@@@xercesc_3_1@@UEAAPEAXI@Z 000000001203dfc8 f i XSModel.obj
 0001:0003cfc8       ??_E?$XMLEnumerator@VComplexTypeInfo@xercesc_3_1@@@xercesc_3_1@@UEAAPEAXI@Z 000000001203dfc8 f i  CIL library: CIL module
 0001:0003cff0       ??_G?$XMLEnumerator@VXercesAttGroupInfo@xercesc_3_1@@@xercesc_3_1@@UEAAPEAXI@Z 000000001203dff0 f i XSModel.obj
 0001:0003cff0       ??_E?$XMLEnumerator@VXercesAttGroupInfo@xercesc_3_1@@@xercesc_3_1@@UEAAPEAXI@Z 000000001203dff0 f i  CIL library: CIL module
 0001:0003d018       ??_E?$XMLEnumerator@VXercesGroupInfo@xercesc_3_1@@@xercesc_3_1@@UEAAPEAXI@Z 000000001203e018 f i  CIL library: CIL module
 0001:0003d018       ??_G?$XMLEnumerator@VXercesGroupInfo@xercesc_3_1@@@xercesc_3_1@@UEAAPEAXI@Z 000000001203e018 f i XSModel.obj
 0001:0003d040       ??0?$XSNamedMap@VXSObject@xercesc_3_1@@@xercesc_3_1@@QEAA@_K0PEAVXMLStringPool@1@_NQEAVMemoryManager@1@@Z 000000001203e040 f i XSModel.obj
 0001:0003d114       ?addElement@?$XSNamedMap@VXSObject@xercesc_3_1@@@xercesc_3_1@@QEAAXQEAVXSObject@2@PEB_W1@Z 000000001203e114 f i XSModel.obj
 0001:0003d2b4       ??1?$BaseRefVectorOf@VXSObject@xercesc_3_1@@@xercesc_3_1@@UEAA@XZ 000000001203e2b4 f i XSModel.obj
 0001:0003d2c0       ?removeAllElements@?$BaseRefVectorOf@VDOMNode@xercesc_3_1@@@xercesc_3_1@@UEAAXXZ 000000001203e2c0 f i DOMDocumentImpl.obj
 0001:0003d2c0       ?removeAllElements@?$BaseRefVectorOf@VDOMNodeIteratorImpl@xercesc_3_1@@@xercesc_3_1@@UEAAXXZ 000000001203e2c0 f i DOMDocumentImpl.obj
 0001:0003d2c0       ?removeAllElements@?$BaseRefVectorOf@VXSAttributeUse@xercesc_3_1@@@xercesc_3_1@@UEAAXXZ 000000001203e2c0 f i XSObjectFactory.obj
 0001:0003d2c0       ?removeAllElements@?$BaseRefVectorOf@VXSFacet@xercesc_3_1@@@xercesc_3_1@@UEAAXXZ 000000001203e2c0 f i XSObjectFactory.obj
 0001:0003d2c0       ?removeAllElements@?$BaseRefVectorOf@VDOMRangeImpl@xercesc_3_1@@@xercesc_3_1@@UEAAXXZ 000000001203e2c0 f i DOMDocumentImpl.obj
 0001:0003d2c0       ?removeAllElements@?$BaseRefVectorOf@VKVStringPair@xercesc_3_1@@@xercesc_3_1@@UEAAXXZ 000000001203e2c0 f i IGXMLScanner.obj
 0001:0003d2c0       ?removeAllElements@?$BaseRefVectorOf@VXMLElementDecl@xercesc_3_1@@@xercesc_3_1@@UEAAXXZ 000000001203e2c0 f i WFXMLScanner.obj
 0001:0003d2c0       ?removeAllElements@?$BaseRefVectorOf@VXSParticle@xercesc_3_1@@@xercesc_3_1@@UEAAXXZ 000000001203e2c0 f i XSObjectFactory.obj
 0001:0003d2c0       ?removeAllElements@?$BaseRefVectorOf@VXercesLocationPath@xercesc_3_1@@@xercesc_3_1@@UEAAXXZ 000000001203e2c0 f i XTemplateSerializer.obj
 0001:0003d2c0       ?removeAllElements@?$BaseRefVectorOf@VXMLNumber@xercesc_3_1@@@xercesc_3_1@@UEAAXXZ 000000001203e2c0 f i XTemplateSerializer.obj
 0001:0003d2c0       ?removeAllElements@?$BaseRefVectorOf@VSchemaElementDecl@xercesc_3_1@@@xercesc_3_1@@UEAAXXZ 000000001203e2c0 f i XMLElementDecl.obj
 0001:0003d2c0       ?removeAllElements@?$BaseRefVectorOf@VXMLEntityDecl@xercesc_3_1@@@xercesc_3_1@@UEAAXXZ 000000001203e2c0 f i ReaderMgr.obj
 0001:0003d2c0       ?removeAllElements@?$BaseRefVectorOf@VDOMImplementation@xercesc_3_1@@@xercesc_3_1@@UEAAXXZ 000000001203e2c0 f i DOMImplementationListImpl.obj
 0001:0003d2c0       ?removeAllElements@?$BaseRefVectorOf@VENameMap@xercesc_3_1@@@xercesc_3_1@@UEAAXXZ 000000001203e2c0 f i TransService.obj
 0001:0003d2c0       ?removeAllElements@?$BaseRefVectorOf@VXSObject@xercesc_3_1@@@xercesc_3_1@@UEAAXXZ 000000001203e2c0 f i XSModel.obj
 0001:0003d2c0       ?removeAllElements@?$BaseRefVectorOf@VXSSimpleTypeDefinition@xercesc_3_1@@@xercesc_3_1@@UEAAXXZ 000000001203e2c0 f i XSObjectFactory.obj
 0001:0003d2c0       ?removeAllElements@?$BaseRefVectorOf@VDOMDocumentImpl@xercesc_3_1@@@xercesc_3_1@@UEAAXXZ 000000001203e2c0 f i AbstractDOMParser.obj
 0001:0003d2c0       ?removeAllElements@?$BaseRefVectorOf@VDatatypeValidator@xercesc_3_1@@@xercesc_3_1@@UEAAXXZ 000000001203e2c0 f i XTemplateSerializer.obj
 0001:0003d2c0       ?removeAllElements@?$BaseRefVectorOf@VMatch@xercesc_3_1@@@xercesc_3_1@@UEAAXXZ 000000001203e2c0 f i RegularExpression.obj
 0001:0003d2c0       ?removeAllElements@?$BaseRefVectorOf@VXSAnnotation@xercesc_3_1@@@xercesc_3_1@@UEAAXXZ 000000001203e2c0 f i XSComplexTypeDefinition.obj
 0001:0003d2c0       ?removeAllElements@?$BaseRefVectorOf@VXPathMatcher@xercesc_3_1@@@xercesc_3_1@@UEAAXXZ 000000001203e2c0 f i XPathMatcherStack.obj
 0001:0003d2c0       ?removeAllElements@?$BaseRefVectorOf@VToken@xercesc_3_1@@@xercesc_3_1@@UEAAXXZ 000000001203e2c0 f i TokenFactory.obj
 0001:0003d2c0       ?removeAllElements@?$BaseRefVectorOf@VXercesStep@xercesc_3_1@@@xercesc_3_1@@UEAAXXZ 000000001203e2c0 f i XTemplateSerializer.obj
 0001:0003d2c0       ?removeAllElements@?$BaseRefVectorOf@VDOMImplementationSource@xercesc_3_1@@@xercesc_3_1@@UEAAXXZ 000000001203e2c0 f i DOMImplementationRegistry.obj
 0001:0003d2c0       ?removeAllElements@?$BaseRefVectorOf@VSchemaAttDef@xercesc_3_1@@@xercesc_3_1@@UEAAXXZ 000000001203e2c0 f i XMLGrammarPoolImpl.obj
 0001:0003d2c0       ?removeAllElements@?$BaseRefVectorOf@VOp@xercesc_3_1@@@xercesc_3_1@@UEAAXXZ 000000001203e2c0 f i Op.obj
 0001:0003d2c0       ?removeAllElements@?$BaseRefVectorOf@VIdentityConstraint@xercesc_3_1@@@xercesc_3_1@@UEAAXXZ 000000001203e2c0 f i XMLElementDecl.obj
 0001:0003d2c0       ?removeAllElements@?$BaseRefVectorOf@VIC_Field@xercesc_3_1@@@xercesc_3_1@@UEAAXXZ 000000001203e2c0 f i XMLElementDecl.obj
 0001:0003d2c0       ?removeAllElements@?$BaseRefVectorOf@VXSMultiValueFacet@xercesc_3_1@@@xercesc_3_1@@UEAAXXZ 000000001203e2c0 f i XSObjectFactory.obj
 0001:0003d2c0       ?removeAllElements@?$BaseRefVectorOf@VContentSpecNode@xercesc_3_1@@@xercesc_3_1@@UEAAXXZ 000000001203e2c0 f i XTemplateSerializer.obj
 0001:0003d2c0       ?removeAllElements@?$BaseRefVectorOf@VXSIDCDefinition@xercesc_3_1@@@xercesc_3_1@@UEAAXXZ 000000001203e2c0 f i XSObjectFactory.obj
 0001:0003d314       ??0?$RefVectorOf@VXSObject@xercesc_3_1@@@xercesc_3_1@@QEAA@_K_NQEAVMemoryManager@1@@Z 000000001203e314 f i XSModel.obj
 0001:0003d388       ??1?$BaseRefVectorOf@VXSNamespaceItem@xercesc_3_1@@@xercesc_3_1@@UEAA@XZ 000000001203e388 f i XSModel.obj
 0001:0003d394       ?setElementAt@?$BaseRefVectorOf@VXSNamespaceItem@xercesc_3_1@@@xercesc_3_1@@UEAAXQEAVXSNamespaceItem@2@_K@Z 000000001203e394 f i XSModel.obj
 0001:0003d450       ?removeAllElements@?$BaseRefVectorOf@VXSNamespaceItem@xercesc_3_1@@@xercesc_3_1@@UEAAXXZ 000000001203e450 f i XSModel.obj
 0001:0003d4bc       ?removeElementAt@?$BaseRefVectorOf@VXSNamespaceItem@xercesc_3_1@@@xercesc_3_1@@UEAAX_K@Z 000000001203e4bc f i XSModel.obj
 0001:0003d5ac       ?removeLastElement@?$BaseRefVectorOf@VXSNamespaceItem@xercesc_3_1@@@xercesc_3_1@@UEAAXXZ 000000001203e5ac f i XSModel.obj
 0001:0003d5f4       ?cleanup@?$BaseRefVectorOf@VXSNamespaceItem@xercesc_3_1@@@xercesc_3_1@@UEAAXXZ 000000001203e5f4 f i XSModel.obj
 0001:0003d660       ??0?$RefVectorOf@VXSNamespaceItem@xercesc_3_1@@@xercesc_3_1@@QEAA@_K_NQEAVMemoryManager@1@@Z 000000001203e660 f i XSModel.obj
 0001:0003d6c8       ??0?$RefHashTableOf@VXSNamespaceItem@xercesc_3_1@@UStringHasher@2@@xercesc_3_1@@QEAA@_K_NQEAVMemoryManager@1@@Z 000000001203e6c8 f i XSModel.obj
 0001:0003d728       ?put@?$RefHashTableOf@VXSNamespaceItem@xercesc_3_1@@UStringHasher@2@@xercesc_3_1@@QEAAXPEAXQEAVXSNamespaceItem@2@@Z 000000001203e728 f i XSModel.obj
 0001:0003d7f4       ??0?$RefHashTableOfEnumerator@VDatatypeValidator@xercesc_3_1@@UStringHasher@2@@xercesc_3_1@@QEAA@QEAV?$RefHashTableOf@VDatatypeValidator@xercesc_3_1@@UStringHasher@2@@1@_NQEAVMemoryManager@1@@Z 000000001203e7f4 f i XSModel.obj
 0001:0003d888       ??1?$RefHashTableOfEnumerator@VDatatypeValidator@xercesc_3_1@@UStringHasher@2@@xercesc_3_1@@UEAA@XZ 000000001203e888 f i XSModel.obj
 0001:0003d8fc       ??0?$RefHashTableOfEnumerator@VXMLAttDef@xercesc_3_1@@UStringHasher@2@@xercesc_3_1@@QEAA@QEAV?$RefHashTableOf@VXMLAttDef@xercesc_3_1@@UStringHasher@2@@1@_NQEAVMemoryManager@1@@Z 000000001203e8fc f i XSModel.obj
 0001:0003d990       ??1?$RefHashTableOfEnumerator@VXMLAttDef@xercesc_3_1@@UStringHasher@2@@xercesc_3_1@@UEAA@XZ 000000001203e990 f i XSModel.obj
 0001:0003d9d8       ??0?$RefHashTableOfEnumerator@VComplexTypeInfo@xercesc_3_1@@UStringHasher@2@@xercesc_3_1@@QEAA@QEAV?$RefHashTableOf@VComplexTypeInfo@xercesc_3_1@@UStringHasher@2@@1@_NQEAVMemoryManager@1@@Z 000000001203e9d8 f i XSModel.obj
 0001:0003da6c       ??1?$RefHashTableOfEnumerator@VComplexTypeInfo@xercesc_3_1@@UStringHasher@2@@xercesc_3_1@@UEAA@XZ 000000001203ea6c f i XSModel.obj
 0001:0003dab4       ??0?$RefHashTableOfEnumerator@VXercesAttGroupInfo@xercesc_3_1@@UStringHasher@2@@xercesc_3_1@@QEAA@QEAV?$RefHashTableOf@VXercesAttGroupInfo@xercesc_3_1@@UStringHasher@2@@1@_NQEAVMemoryManager@1@@Z 000000001203eab4 f i XSModel.obj
 0001:0003db48       ??1?$RefHashTableOfEnumerator@VXercesAttGroupInfo@xercesc_3_1@@UStringHasher@2@@xercesc_3_1@@UEAA@XZ 000000001203eb48 f i XSModel.obj
 0001:0003db90       ??0?$RefHashTableOfEnumerator@VXercesGroupInfo@xercesc_3_1@@UStringHasher@2@@xercesc_3_1@@QEAA@QEAV?$RefHashTableOf@VXercesGroupInfo@xercesc_3_1@@UStringHasher@2@@1@_NQEAVMemoryManager@1@@Z 000000001203eb90 f i XSModel.obj
 0001:0003dc24       ??1?$RefHashTableOfEnumerator@VXercesGroupInfo@xercesc_3_1@@UStringHasher@2@@xercesc_3_1@@UEAA@XZ 000000001203ec24 f i XSModel.obj
 0001:0003dc6c       ??_E?$BaseRefVectorOf@VXSObject@xercesc_3_1@@@xercesc_3_1@@UEAAPEAXI@Z 000000001203ec6c f i  CIL library: CIL module
 0001:0003dc6c       ??_G?$BaseRefVectorOf@VXSObject@xercesc_3_1@@@xercesc_3_1@@UEAAPEAXI@Z 000000001203ec6c f i XSModel.obj
 0001:0003dc9c       ??_G?$RefVectorOf@VXSObject@xercesc_3_1@@@xercesc_3_1@@UEAAPEAXI@Z 000000001203ec9c f i XSModel.obj
 0001:0003dc9c       ??_E?$RefVectorOf@VXSObject@xercesc_3_1@@@xercesc_3_1@@UEAAPEAXI@Z 000000001203ec9c f i  CIL library: CIL module
 0001:0003dd38       ??_G?$BaseRefVectorOf@VXSNamespaceItem@xercesc_3_1@@@xercesc_3_1@@UEAAPEAXI@Z 000000001203ed38 f i XSModel.obj
 0001:0003dd38       ??_E?$BaseRefVectorOf@VXSNamespaceItem@xercesc_3_1@@@xercesc_3_1@@UEAAPEAXI@Z 000000001203ed38 f i  CIL library: CIL module
 0001:0003dd68       ??_E?$RefVectorOf@VXSNamespaceItem@xercesc_3_1@@@xercesc_3_1@@UEAAPEAXI@Z 000000001203ed68 f i  CIL library: CIL module
 0001:0003dd68       ??_G?$RefVectorOf@VXSNamespaceItem@xercesc_3_1@@@xercesc_3_1@@UEAAPEAXI@Z 000000001203ed68 f i XSModel.obj
 0001:0003de18       ??_E?$RefHashTableOfEnumerator@VDatatypeValidator@xercesc_3_1@@UStringHasher@2@@xercesc_3_1@@UEAAPEAXI@Z 000000001203ee18 f i  CIL library: CIL module
 0001:0003de18       ??_G?$RefHashTableOfEnumerator@VDatatypeValidator@xercesc_3_1@@UStringHasher@2@@xercesc_3_1@@UEAAPEAXI@Z 000000001203ee18 f i XSModel.obj
 0001:0003de54       ??_G?$RefHashTableOfEnumerator@VXMLAttDef@xercesc_3_1@@UStringHasher@2@@xercesc_3_1@@UEAAPEAXI@Z 000000001203ee54 f i XSModel.obj
 0001:0003de54       ??_E?$RefHashTableOfEnumerator@VXMLAttDef@xercesc_3_1@@UStringHasher@2@@xercesc_3_1@@UEAAPEAXI@Z 000000001203ee54 f i  CIL library: CIL module
 0001:0003de90       ??_G?$RefHashTableOfEnumerator@VComplexTypeInfo@xercesc_3_1@@UStringHasher@2@@xercesc_3_1@@UEAAPEAXI@Z 000000001203ee90 f i XSModel.obj
 0001:0003de90       ??_E?$RefHashTableOfEnumerator@VComplexTypeInfo@xercesc_3_1@@UStringHasher@2@@xercesc_3_1@@UEAAPEAXI@Z 000000001203ee90 f i  CIL library: CIL module
 0001:0003decc       ??_E?$RefHashTableOfEnumerator@VXercesAttGroupInfo@xercesc_3_1@@UStringHasher@2@@xercesc_3_1@@UEAAPEAXI@Z 000000001203eecc f i  CIL library: CIL module
 0001:0003decc       ??_G?$RefHashTableOfEnumerator@VXercesAttGroupInfo@xercesc_3_1@@UStringHasher@2@@xercesc_3_1@@UEAAPEAXI@Z 000000001203eecc f i XSModel.obj
 0001:0003df08       ??_G?$RefHashTableOfEnumerator@VXercesGroupInfo@xercesc_3_1@@UStringHasher@2@@xercesc_3_1@@UEAAPEAXI@Z 000000001203ef08 f i XSModel.obj
 0001:0003df08       ??_E?$RefHashTableOfEnumerator@VXercesGroupInfo@xercesc_3_1@@UStringHasher@2@@xercesc_3_1@@UEAAPEAXI@Z 000000001203ef08 f i  CIL library: CIL module
 0001:0003df44       ??_G?$RefHashTableOf@VXercesAttGroupInfo@xercesc_3_1@@UStringHasher@2@@xercesc_3_1@@QEAAPEAXI@Z 000000001203ef44 f i XSModel.obj
 0001:0003df44       ??_G?$RefHashTableOf@VDOMElement@xercesc_3_1@@UStringHasher@2@@xercesc_3_1@@QEAAPEAXI@Z 000000001203ef44 f i IGXMLScanner.obj
 0001:0003df44       ??_G?$RefHashTableOf@VComplexTypeInfo@xercesc_3_1@@UStringHasher@2@@xercesc_3_1@@QEAAPEAXI@Z 000000001203ef44 f i XSModel.obj
 0001:0003df44       ??_G?$RefHashTableOf@VKVStringPair@xercesc_3_1@@UStringHasher@2@@xercesc_3_1@@QEAAPEAXI@Z 000000001203ef44 f i XSObjectFactory.obj
 0001:0003df44       ??_G?$RefHashTableOf@VXercesGroupInfo@xercesc_3_1@@UStringHasher@2@@xercesc_3_1@@QEAAPEAXI@Z 000000001203ef44 f i XSModel.obj
 0001:0003df44       ??_G?$RefHashTableOf@VDTDAttDef@xercesc_3_1@@UStringHasher@2@@xercesc_3_1@@QEAAPEAXI@Z 000000001203ef44 f i XTemplateSerializer.obj
 0001:0003df44       ??_G?$RefHashTableOf@VXMLAttDef@xercesc_3_1@@UStringHasher@2@@xercesc_3_1@@QEAAPEAXI@Z 000000001203ef44 f i XSModel.obj
 0001:0003dff8       ??_EXSModelGroup@xercesc_3_1@@UEAAPEAXI@Z 000000001203eff8 f i XSModelGroup.obj
 0001:0003e06c       ??0XSModelGroup@xercesc_3_1@@QEAA@W4COMPOSITOR_TYPE@01@QEAV?$RefVectorOf@VXSParticle@xercesc_3_1@@@1@QEAVXSAnnotation@1@QEAVXSModel@1@QEAVMemoryManager@1@@Z 000000001203f06c f   XSModelGroup.obj
 0001:0003e0cc       ??1XSModelGroup@xercesc_3_1@@UEAA@XZ 000000001203f0cc f   XSModelGroup.obj
 0001:0003e110       ??_EXSModelGroupDefinition@xercesc_3_1@@UEAAPEAXI@Z 000000001203f110 f i XSModelGroupDefinition.obj
 0001:0003e184       ??0XSModelGroupDefinition@xercesc_3_1@@QEAA@QEAVXercesGroupInfo@1@QEAVXSParticle@1@QEAVXSAnnotation@1@QEAVXSModel@1@QEAVMemoryManager@1@@Z 000000001203f184 f   XSModelGroupDefinition.obj
 0001:0003e1e8       ??1XSModelGroupDefinition@xercesc_3_1@@UEAA@XZ 000000001203f1e8 f   XSModelGroupDefinition.obj
 0001:0003e22c       ?getNamespace@XSModelGroupDefinition@xercesc_3_1@@UEAAPEB_WXZ 000000001203f22c f   XSModelGroupDefinition.obj
 0001:0003e248       ?getModelGroup@XSModelGroupDefinition@xercesc_3_1@@QEAAPEAVXSModelGroup@2@XZ 000000001203f248 f   XSModelGroupDefinition.obj
 0001:0003e260       ??_EXSMultiValueFacet@xercesc_3_1@@UEAAPEAXI@Z 000000001203f260 f i XSMultiValueFacet.obj
 0001:0003e2d4       ?getTermType@XSParticle@xercesc_3_1@@QEBA?AW4TERM_TYPE@12@XZ 000000001203f2d4 f i XSComplexTypeDefinition.obj
 0001:0003e2d4       ?getFacetKind@XSFacet@xercesc_3_1@@QEBA?AW4FACET@XSSimpleTypeDefinition@2@XZ 000000001203f2d4 f i XSFacet.obj
 0001:0003e2d4       ?getFacetKind@XSMultiValueFacet@xercesc_3_1@@QEBA?AW4FACET@XSSimpleTypeDefinition@2@XZ 000000001203f2d4 f i XSMultiValueFacet.obj
 0001:0003e2d4       ?getTypeCategory@XSTypeDefinition@xercesc_3_1@@QEBA?AW4TYPE_CATEGORY@12@XZ 000000001203f2d4 f i XMLAttr.obj
 0001:0003e2d4       ?getCompositor@XSModelGroup@xercesc_3_1@@QEBA?AW4COMPOSITOR_TYPE@12@XZ 000000001203f2d4 f i XSModelGroup.obj
 0001:0003e2d4       ?getData@ModifierOp@xercesc_3_1@@UEBAHXZ 000000001203f2d4 f i Op.obj
 0001:0003e2d4       ?getConstraintType@XSWildcard@xercesc_3_1@@QEBA?AW4NAMESPACE_CONSTRAINT@12@XZ 000000001203f2d4 f i XSComplexTypeDefinition.obj
 0001:0003e2d8       ?getCreateCommentNodes@AbstractDOMParser@xercesc_3_1@@QEBA_NXZ 000000001203f2d8 f i XSAnnotation.obj
 0001:0003e2d8       ?getIgnoreCachedDTD@XMLScanner@xercesc_3_1@@QEBA_NXZ 000000001203f2d8 f i XMLValidator.obj
 0001:0003e2d8       ?isFixed@XSMultiValueFacet@xercesc_3_1@@QEBA_NXZ 000000001203f2d8 f i XSMultiValueFacet.obj
 0001:0003e2d8       ?isFixed@XSFacet@xercesc_3_1@@QEBA_NXZ 000000001203f2d8 f i XSFacet.obj
 0001:0003e2dc       ??0XSMultiValueFacet@xercesc_3_1@@QEAA@W4FACET@XSSimpleTypeDefinition@1@PEAV?$RefArrayVectorOf@_W@1@_NQEAVXSAnnotation@1@QEAVXSModel@1@QEAVMemoryManager@1@@Z 000000001203f2dc f   XSMultiValueFacet.obj
 0001:0003e3a4       ??1XSMultiValueFacet@xercesc_3_1@@UEAA@XZ 000000001203f3a4 f   XSMultiValueFacet.obj
 0001:0003e3e8       ??0XSNamespaceItem@xercesc_3_1@@QEAA@QEAVXSModel@1@QEAVSchemaGrammar@1@QEAVMemoryManager@1@@Z 000000001203f3e8 f   XSNamespaceItem.obj
 0001:0003e540       ??0XSNamespaceItem@xercesc_3_1@@QEAA@QEAVXSModel@1@QEB_WQEAVMemoryManager@1@@Z 000000001203f540 f   XSNamespaceItem.obj
 0001:0003e690       ??1XSNamespaceItem@xercesc_3_1@@QEAA@XZ 000000001203f690 f   XSNamespaceItem.obj
 0001:0003e7c8       ?getComponents@XSNamespaceItem@xercesc_3_1@@QEAAPEAV?$XSNamedMap@VXSObject@xercesc_3_1@@@2@W4COMPONENT_TYPE@XSConstants@2@@Z 000000001203f7c8 f   XSNamespaceItem.obj
 0001:0003e7d4       ?getElementDeclaration@XSNamespaceItem@xercesc_3_1@@QEAAPEAVXSElementDeclaration@2@PEB_W@Z 000000001203f7d4 f   XSNamespaceItem.obj
 0001:0003e808       ?getAttributeDeclaration@XSNamespaceItem@xercesc_3_1@@QEAAPEAVXSAttributeDeclaration@2@PEB_W@Z 000000001203f808 f   XSNamespaceItem.obj
 0001:0003e83c       ?getTypeDefinition@XSNamespaceItem@xercesc_3_1@@QEAAPEAVXSTypeDefinition@2@PEB_W@Z 000000001203f83c f   XSNamespaceItem.obj
 0001:0003e870       ?getAttributeGroup@XSNamespaceItem@xercesc_3_1@@QEAAPEAVXSAttributeGroupDefinition@2@PEB_W@Z 000000001203f870 f   XSNamespaceItem.obj
 0001:0003e8a4       ?getModelGroupDefinition@XSNamespaceItem@xercesc_3_1@@QEAAPEAVXSModelGroupDefinition@2@PEB_W@Z 000000001203f8a4 f   XSNamespaceItem.obj
 0001:0003e8d8       ?getNotationDeclaration@XSNamespaceItem@xercesc_3_1@@QEAAPEAVXSNotationDeclaration@2@PEB_W@Z 000000001203f8d8 f   XSNamespaceItem.obj
 0001:0003e90c       ?getDocumentLocations@XSNamespaceItem@xercesc_3_1@@QEAAPEBV?$RefArrayVectorOf@_W@2@XZ 000000001203f90c f   XSNamespaceItem.obj
 0001:0003e93c       ??0?$RefHashTableOf@VXSObject@xercesc_3_1@@UStringHasher@2@@xercesc_3_1@@QEAA@_K_NQEAVMemoryManager@1@@Z 000000001203f93c f i XSNamespaceItem.obj
 0001:0003e99c       ??_EXSNotationDeclaration@xercesc_3_1@@UEAAPEAXI@Z 000000001203f99c f i XSNotationDeclaration.obj
 0001:0003e99c       ??_EXSTypeDefinition@xercesc_3_1@@UEAAPEAXI@Z 000000001203f99c f i XSTypeDefinition.obj
 0001:0003ea10       ??0XSNotationDeclaration@xercesc_3_1@@QEAA@QEAVXMLNotationDecl@1@QEAVXSAnnotation@1@QEAVXSModel@1@QEAVMemoryManager@1@@Z 000000001203fa10 f   XSNotationDeclaration.obj
 0001:0003ea64       ?getName@XSNotationDeclaration@xercesc_3_1@@UEBAPEB_WXZ 000000001203fa64 f   XSNotationDeclaration.obj
 0001:0003ea70       ?getSystemId@XSNotationDeclaration@xercesc_3_1@@QEAAPEB_WXZ 000000001203fa70 f   XSNotationDeclaration.obj
 0001:0003ea7c       ?getPublicId@XSNotationDeclaration@xercesc_3_1@@QEAAPEB_WXZ 000000001203fa7c f   XSNotationDeclaration.obj
 0001:0003ea88       ??_EXSObject@xercesc_3_1@@UEAAPEAXI@Z 000000001203fa88 f i XSObject.obj
 0001:0003eafc       ??0XSObject@xercesc_3_1@@QEAA@W4COMPONENT_TYPE@XSConstants@1@QEAVXSModel@1@QEAVMemoryManager@1@@Z 000000001203fafc f   XSObject.obj
 0001:0003eb50       ??_EXSParticle@xercesc_3_1@@UEAAPEAXI@Z 000000001203fb50 f i XSParticle.obj
 0001:0003ebc4       ??0XSParticle@xercesc_3_1@@QEAA@W4TERM_TYPE@01@QEAVXSModel@1@QEAVXSObject@1@_K3_NQEAVMemoryManager@1@@Z 000000001203fbc4 f   XSParticle.obj
 0001:0003ec28       ??1XSParticle@xercesc_3_1@@UEAA@XZ 000000001203fc28 f   XSParticle.obj
 0001:0003ec74       ?getElementTerm@XSParticle@xercesc_3_1@@QEAAPEAVXSElementDeclaration@2@XZ 000000001203fc74 f   XSParticle.obj
 0001:0003ec84       ?getModelGroupTerm@XSParticle@xercesc_3_1@@QEAAPEAVXSModelGroup@2@XZ 000000001203fc84 f   XSParticle.obj
 0001:0003ec94       ?getWildcardTerm@XSParticle@xercesc_3_1@@QEAAPEAVXSWildcard@2@XZ 000000001203fc94 f   XSParticle.obj
 0001:0003eca4       ??_EXSSimpleTypeDefinition@xercesc_3_1@@UEAAPEAXI@Z 000000001203fca4 f i XSSimpleTypeDefinition.obj
 0001:0003ed18       ??0XSSimpleTypeDefinition@xercesc_3_1@@QEAA@QEAVDatatypeValidator@1@W4VARIETY@01@QEAVXSTypeDefinition@1@QEAV01@QEAV?$RefVectorOf@VXSSimpleTypeDefinition@xercesc_3_1@@@1@PEAVXSAnnotation@1@QEAVXSModel@1@QEAVMemoryManager@1@@Z 000000001203fd18 f   XSSimpleTypeDefinition.obj
 0001:0003ee48       ??1XSSimpleTypeDefinition@xercesc_3_1@@UEAA@XZ 000000001203fe48 f   XSSimpleTypeDefinition.obj
 0001:0003eed8       ?isDefinedFacet@XSSimpleTypeDefinition@xercesc_3_1@@QEAA_NW4FACET@12@@Z 000000001203fed8 f   XSSimpleTypeDefinition.obj
 0001:0003eee0       ?isFixedFacet@XSSimpleTypeDefinition@xercesc_3_1@@QEAA_NW4FACET@12@@Z 000000001203fee0 f   XSSimpleTypeDefinition.obj
 0001:0003eee8       ?getLexicalFacetValue@XSSimpleTypeDefinition@xercesc_3_1@@QEAAPEB_WW4FACET@12@@Z 000000001203fee8 f   XSSimpleTypeDefinition.obj
 0001:0003ef54       ?getLexicalEnumeration@XSSimpleTypeDefinition@xercesc_3_1@@QEAAPEAV?$RefArrayVectorOf@_W@2@XZ 000000001203ff54 f   XSSimpleTypeDefinition.obj
 0001:0003ef60       ?getOrdered@XSSimpleTypeDefinition@xercesc_3_1@@QEBA?AW4ORDERING@12@XZ 000000001203ff60 f   XSSimpleTypeDefinition.obj
 0001:0003ef68       ?getFinite@XSSimpleTypeDefinition@xercesc_3_1@@QEBA_NXZ 000000001203ff68 f   XSSimpleTypeDefinition.obj
 0001:0003ef70       ?getBounded@XSSimpleTypeDefinition@xercesc_3_1@@QEBA_NXZ 000000001203ff70 f   XSSimpleTypeDefinition.obj
 0001:0003ef78       ?getNumeric@XSSimpleTypeDefinition@xercesc_3_1@@QEBA_NXZ 000000001203ff78 f   XSSimpleTypeDefinition.obj
 0001:0003ef80       ?getName@XSSimpleTypeDefinition@xercesc_3_1@@UEBAPEB_WXZ 000000001203ff80 f   XSSimpleTypeDefinition.obj
 0001:0003ef8c       ?getNamespace@XSSimpleTypeDefinition@xercesc_3_1@@UEAAPEB_WXZ 000000001203ff8c f   XSSimpleTypeDefinition.obj
 0001:0003ef98       ?getAnonymous@XSSimpleTypeDefinition@xercesc_3_1@@UEBA_NXZ 000000001203ff98 f   XSSimpleTypeDefinition.obj
 0001:0003efa0       ?derivedFromType@XSSimpleTypeDefinition@xercesc_3_1@@UEAA_NQEBVXSTypeDefinition@2@@Z 000000001203ffa0 f   XSSimpleTypeDefinition.obj
 0001:0003f00c       ?setFacetInfo@XSSimpleTypeDefinition@xercesc_3_1@@AEAAXHHQEAV?$RefVectorOf@VXSFacet@xercesc_3_1@@@2@QEAV?$RefVectorOf@VXSMultiValueFacet@xercesc_3_1@@@2@QEAV?$RefArrayVectorOf@_W@2@@Z 000000001204000c f   XSSimpleTypeDefinition.obj
 0001:0003f02c       ??0XSTypeDefinition@xercesc_3_1@@QEAA@W4TYPE_CATEGORY@01@QEAV01@QEAVXSModel@1@QEAVMemoryManager@1@@Z 000000001204002c f   XSTypeDefinition.obj
 0001:0003f084       ?isFinal@XSTypeDefinition@xercesc_3_1@@QEAA_NF@Z 0000000012040084 f   XSTypeDefinition.obj
 0001:0003f08c       ?derivedFrom@XSTypeDefinition@xercesc_3_1@@QEAA_NPEB_W0@Z 000000001204008c f   XSTypeDefinition.obj
 0001:0003f0cc       ?initializeXSValue@XMLInitializer@xercesc_3_1@@CAXXZ 00000000120400cc f   XSValue.obj
 0001:0003f120       ?terminateXSValue@XMLInitializer@xercesc_3_1@@CAXXZ 0000000012040120 f   XSValue.obj
 0001:0003f1d4       ?getDataType@XSValue@xercesc_3_1@@SA?AW4DataType@12@QEB_W@Z 00000000120401d4 f   XSValue.obj
 0001:0003f314       ?initializeRegistry@XSValue@xercesc_3_1@@CAXXZ 0000000012040314 f   XSValue.obj
 0001:0003f7a4       ??0XSValue@xercesc_3_1@@AEAA@W4DataType@01@QEAVMemoryManager@1@@Z 00000000120407a4 f   XSValue.obj
 0001:0003f7b4       ??1XSValue@xercesc_3_1@@QEAA@XZ 00000000120407b4 f   XSValue.obj
 0001:0003f7d4       ?validate@XSValue@xercesc_3_1@@SA_NQEB_WW4DataType@12@AEAW4Status@12@W4XMLVersion@12@QEAVMemoryManager@2@@Z 00000000120407d4 f   XSValue.obj
 0001:0003f8f0       ?getCanonicalRepresentation@XSValue@xercesc_3_1@@SAPEA_WQEB_WW4DataType@12@AEAW4Status@12@W4XMLVersion@12@_NQEAVMemoryManager@2@@Z 00000000120408f0 f   XSValue.obj
 0001:0003fa00       ?getActualValue@XSValue@xercesc_3_1@@SAPEAV12@QEB_WW4DataType@12@AEAW4Status@12@W4XMLVersion@12@_NQEAVMemoryManager@2@@Z 0000000012040a00 f   XSValue.obj
 0001:0003fb04       ?validateNumerics@XSValue@xercesc_3_1@@CA_NQEB_WW4DataType@12@AEAW4Status@12@QEAVMemoryManager@2@@Z 0000000012040b04 f   XSValue.obj
 0001:0003feb8       ?validateDateTimes@XSValue@xercesc_3_1@@CA_NQEB_WW4DataType@12@AEAW4Status@12@QEAVMemoryManager@2@@Z 0000000012040eb8 f   XSValue.obj
 0001:00040050       ?validateStrings@XSValue@xercesc_3_1@@CA_NQEB_WW4DataType@12@AEAW4Status@12@W4XMLVersion@12@QEAVMemoryManager@2@@Z 0000000012041050 f   XSValue.obj
 0001:00040900       ?getCanRepNumerics@XSValue@xercesc_3_1@@CAPEA_WQEB_WW4DataType@12@AEAW4Status@12@_NQEAVMemoryManager@2@@Z 0000000012041900 f   XSValue.obj
 0001:00040aec       ?getCanRepDateTimes@XSValue@xercesc_3_1@@CAPEA_WQEB_WW4DataType@12@AEAW4Status@12@_NQEAVMemoryManager@2@@Z 0000000012041aec f   XSValue.obj
 0001:00040ce4       ?getCanRepStrings@XSValue@xercesc_3_1@@CAPEA_WQEB_WW4DataType@12@AEAW4Status@12@W4XMLVersion@12@_NQEAVMemoryManager@2@@Z 0000000012041ce4 f   XSValue.obj
 0001:0004101c       ?getActValNumerics@XSValue@xercesc_3_1@@CAPEAV12@QEB_WW4DataType@12@AEAW4Status@12@_NQEAVMemoryManager@2@@Z 000000001204201c f   XSValue.obj
 0001:00041340       ?getActValDateTimes@XSValue@xercesc_3_1@@CAPEAV12@QEB_WW4DataType@12@AEAW4Status@12@QEAVMemoryManager@2@@Z 0000000012042340 f   XSValue.obj
 0001:00041578       ?getActValStrings@XSValue@xercesc_3_1@@CAPEAV12@QEB_WW4DataType@12@AEAW4Status@12@W4XMLVersion@12@_NQEAVMemoryManager@2@@Z 0000000012042578 f   XSValue.obj
 0001:000418f8       ?getActualNumericValue@XSValue@xercesc_3_1@@CA_NQEB_WAEAW4Status@12@AEATt_value@12@QEAVMemoryManager@2@W4DataType@12@@Z 00000000120428f8 f   XSValue.obj
 0001:00041b2c       ?put@?$ValueHashTableOf@W4DataType@XSValue@xercesc_3_1@@UStringHasher@3@@xercesc_3_1@@QEAAXPEAXAEBW4DataType@XSValue@2@@Z 0000000012042b2c f i XSValue.obj
 0001:00041bd4       ?rehash@?$ValueHashTableOf@GUStringHasher@xercesc_3_1@@@xercesc_3_1@@AEAAXXZ 0000000012042bd4 f i GeneralAttributeCheck.obj
 0001:00041bd4       ?rehash@?$ValueHashTableOf@IUStringHasher@xercesc_3_1@@@xercesc_3_1@@AEAAXXZ 0000000012042bd4 f i DOMLSParserImpl.obj
 0001:00041bd4       ?rehash@?$ValueHashTableOf@W4DataType@XSValue@xercesc_3_1@@UStringHasher@3@@xercesc_3_1@@AEAAXXZ 0000000012042bd4 f i XSValue.obj
 0001:00041bd4       ?rehash@?$ValueHashTableOf@_WUStringHasher@xercesc_3_1@@@xercesc_3_1@@AEAAXXZ 0000000012042bd4 f i SGXMLScanner.obj
 0001:00041ce4       ??_EXSWildcard@xercesc_3_1@@UEAAPEAXI@Z 0000000012042ce4 f i XSWildcard.obj
 0001:00041d58       ??0XSWildcard@xercesc_3_1@@QEAA@QEAVSchemaAttDef@1@QEAVXSAnnotation@1@QEAVXSModel@1@QEAVMemoryManager@1@@Z 0000000012042d58 f   XSWildcard.obj
 0001:00041fdc       ??0XSWildcard@xercesc_3_1@@QEAA@QEBVContentSpecNode@1@QEAVXSAnnotation@1@QEAVXSModel@1@QEAVMemoryManager@1@@Z 0000000012042fdc f   XSWildcard.obj
 0001:000421f0       ??1XSWildcard@xercesc_3_1@@UEAA@XZ 00000000120431f0 f   XSWildcard.obj
 0001:00042234       ?buildNamespaceList@XSWildcard@xercesc_3_1@@AEAAXQEBVContentSpecNode@2@@Z 0000000012043234 f   XSWildcard.obj
 0001:000422f0       ?elementAt@?$ValueVectorOf@PEAVQName@xercesc_3_1@@@xercesc_3_1@@QEAAAEAPEAVQName@2@_K@Z 00000000120432f0 f i AllContentModel.obj
 0001:000422f0       ?elementAt@?$ValueVectorOf@PEAX@xercesc_3_1@@QEAAAEAPEAX_K@Z 00000000120432f0 f i XSerializeEngine.obj
 0001:000422f0       ?elementAt@?$ValueVectorOf@I@xercesc_3_1@@QEAAAEAI_K@Z 00000000120432f0 f i XSWildcard.obj
 0001:000422f0       ?elementAt@?$ValueVectorOf@_N@xercesc_3_1@@QEAAAEA_N_K@Z 00000000120432f0 f i IGXMLScanner.obj
 0001:000422f0       ?elementAt@?$ValueVectorOf@PEA_W@xercesc_3_1@@QEAAAEAPEA_W_K@Z 00000000120432f0 f i IGXMLScanner2.obj
 0001:000422f0       ?elementAt@?$ValueVectorOf@H@xercesc_3_1@@QEAAAEAH_K@Z 00000000120432f0 f i IGXMLScanner.obj
 0001:00042348       ??_EBinFileOutputStream@xercesc_3_1@@UEAAPEAXI@Z 0000000012043348 f i BinFileOutputStream.obj
 0001:000423bc       ?getIsOpen@BinFileOutputStream@xercesc_3_1@@QEBA_NXZ 00000000120433bc f i BinFileOutputStream.obj
 0001:000423bc       ?getIsOpen@BinFileInputStream@xercesc_3_1@@QEBA_NXZ 00000000120433bc f i BinFileInputStream.obj
 0001:000423c8       ??0BinFileOutputStream@xercesc_3_1@@QEAA@QEB_WQEAVMemoryManager@1@@Z 00000000120433c8 f   BinFileOutputStream.obj
 0001:00042414       ??0BinFileOutputStream@xercesc_3_1@@QEAA@QEBDQEAVMemoryManager@1@@Z 0000000012043414 f   BinFileOutputStream.obj
 0001:00042460       ??1BinFileOutputStream@xercesc_3_1@@UEAA@XZ 0000000012043460 f   BinFileOutputStream.obj
 0001:000424ac       ?writeBytes@BinFileOutputStream@xercesc_3_1@@UEAAXQEBE_K@Z 00000000120434ac f   BinFileOutputStream.obj
 0001:000424c4       ??_FBinMemOutputStream@xercesc_3_1@@QEAAXXZ 00000000120434c4 f i BinMemOutputStream.obj
 0001:000424d8       ??_EBinMemOutputStream@xercesc_3_1@@UEAAPEAXI@Z 00000000120434d8 f i BinMemOutputStream.obj
 0001:0004254c       ??0BinMemOutputStream@xercesc_3_1@@QEAA@_KQEAVMemoryManager@1@@Z 000000001204354c f   BinMemOutputStream.obj
 0001:0004259c       ??1BinMemOutputStream@xercesc_3_1@@UEAA@XZ 000000001204359c f   BinMemOutputStream.obj
 0001:000425dc       ?writeBytes@BinMemOutputStream@xercesc_3_1@@UEAAXQEBE_K@Z 00000000120435dc f   BinMemOutputStream.obj
 0001:0004262c       ?getRawBuffer@BinMemOutputStream@xercesc_3_1@@QEBAPEBEXZ 000000001204362c f   BinMemOutputStream.obj
 0001:0004262c       ?getRawBuffer@MemBufFormatTarget@xercesc_3_1@@QEBAPEBEXZ 000000001204362c f   MemBufFormatTarget.obj
 0001:00042668       ?reset@BinMemOutputStream@xercesc_3_1@@QEAAXXZ 0000000012043668 f   BinMemOutputStream.obj
 0001:0004268c       ?ensureCapacity@BinMemOutputStream@xercesc_3_1@@AEAAX_K@Z 000000001204368c f   BinMemOutputStream.obj
 0001:00042714       ??_EBinOutputStream@xercesc_3_1@@UEAAPEAXI@Z 0000000012043714 f i BinOutputStream.obj
 0001:00042788       ??1BinOutputStream@xercesc_3_1@@UEAA@XZ 0000000012043788 f   BinOutputStream.obj
 0001:00042794       ??0BinOutputStream@xercesc_3_1@@IEAA@XZ 0000000012043794 f   BinOutputStream.obj
 0001:000427a4       ??1XMLBufBid@xercesc_3_1@@QEAA@XZ 00000000120437a4 f i DGXMLScanner.obj
 0001:000427b0       ??_EDGXMLScanner@xercesc_3_1@@UEAAPEAXI@Z 00000000120437b0 f i DGXMLScanner.obj
 0001:00042824       ?getName@DGXMLScanner@xercesc_3_1@@UEBAPEB_WXZ 0000000012043824 f i DGXMLScanner.obj
 0001:0004282c       ??0EndOfEntityException@xercesc_3_1@@QEAA@AEBV01@@Z 000000001204382c f i DGXMLScanner.obj
 0001:00042840       ?notationDecl@HandlerBase@xercesc_3_1@@UEAAXQEB_W00@Z 0000000012043840 f i Dummy.obj
 0001:00042840       ?flush@XMLFormatTarget@xercesc_3_1@@UEAAXXZ 0000000012043840 f i LocalFileFormatTarget.obj
 0001:00042840       ?endElement@HandlerBase@xercesc_3_1@@UEAAXQEB_W@Z 0000000012043840 f i Dummy.obj
 0001:00042840       ??1XMLPScanToken@xercesc_3_1@@QEAA@XZ 0000000012043840 f i XSAnnotation.obj
 0001:00042840       ?normalize@DOMNotationImpl@xercesc_3_1@@UEAAXXZ 0000000012043840 f i DOMNotationImpl.obj
 0001:00042840       ?setContentModel@SchemaElementDecl@xercesc_3_1@@UEAAXQEAVXMLContentModel@2@@Z 0000000012043840 f i XMLElementDecl.obj
 0001:00042840       ?error@DefaultHandler@xercesc_3_1@@UEAAXAEBVSAXParseException@2@@Z 0000000012043840 f i sax2Dummy.obj
 0001:00042840       ?setDeclarationHandler@SAX2XMLFilterImpl@xercesc_3_1@@UEAAXQEAVDeclHandler@2@@Z 0000000012043840 f i SAX2XMLFilterImpl.obj
 0001:00042840       ?startExtSubset@AbstractDOMParser@xercesc_3_1@@UEAAXXZ 0000000012043840 f i AbstractDOMParser.obj
 0001:00042840       ?startInputSource@SAX2XMLReaderImpl@xercesc_3_1@@UEAAXAEBVInputSource@2@@Z 0000000012043840 f i SAX2XMLReaderImpl.obj
 0001:00042840       ?ignorableWhitespace@DefaultHandler@xercesc_3_1@@UEAAXQEB_W_K@Z 0000000012043840 f i sax2Dummy.obj
 0001:00042840       ?endDTD@DefaultHandler@xercesc_3_1@@UEAAXXZ 0000000012043840 f i sax2Dummy.obj
 0001:00042840       ?endExtSubset@SAXParser@xercesc_3_1@@UEAAXXZ 0000000012043840 f i SAXParser.obj
 0001:00042840       ?processingInstruction@HandlerBase@xercesc_3_1@@UEAAXQEB_W0@Z 0000000012043840 f i Dummy.obj
 0001:00042840       ?TextDecl@SAXParser@xercesc_3_1@@UEAAXQEB_W0@Z 0000000012043840 f i SAXParser.obj
 0001:00042840       ?setBaseURI@Wrapper4InputSource@xercesc_3_1@@UEAAXQEB_W@Z 0000000012043840 f i Wrapper4InputSource.obj
 0001:00042840       ?endDocument@DefaultHandler@xercesc_3_1@@UEAAXXZ 0000000012043840 f i sax2Dummy.obj
 0001:00042840       ?endInputSource@SAXParser@xercesc_3_1@@UEAAXAEBVInputSource@2@@Z 0000000012043840 f i SAXParser.obj
 0001:00042840       ?validateElement@DTDValidator@xercesc_3_1@@UEAAXPEBVXMLElementDecl@2@@Z 0000000012043840 f i DGXMLScanner.obj
 0001:00042840       ?startPrefixMapping@DefaultHandler@xercesc_3_1@@UEAAXQEB_W0@Z 0000000012043840 f i sax2Dummy.obj
 0001:00042840       ??3@YAXPEAXPEAVDOMDocumentImpl@xercesc_3_1@@@Z 0000000012043840 f i AbstractDOMParser.obj
 0001:00042840       ?resetDocument@DefaultHandler@xercesc_3_1@@UEAAXXZ 0000000012043840 f i sax2Dummy.obj
 0001:00042840       ?setNodeValue@DOMDocumentFragmentImpl@xercesc_3_1@@UEAAXPEB_W@Z 0000000012043840 f i DOMDocumentFragmentImpl.obj
 0001:00042840       ??1DOMChildNode@xercesc_3_1@@QEAA@XZ 0000000012043840 f i DOMChildNode.obj
 0001:00042840       ?skippedEntity@DefaultHandler@xercesc_3_1@@UEAAXQEB_W@Z 0000000012043840 f i sax2Dummy.obj
 0001:00042840       ?endDocument@IdentityConstraintHandler@xercesc_3_1@@QEAAXXZ 0000000012043840 f i IGXMLScanner.obj
 0001:00042840       ?startAttList@SAX2XMLReaderImpl@xercesc_3_1@@UEAAXAEBVDTDElementDecl@2@@Z 0000000012043840 f i SAX2XMLReaderImpl.obj
 0001:00042840       ?elementDecl@SAXParser@xercesc_3_1@@UEAAXAEBVDTDElementDecl@2@_N@Z 0000000012043840 f i SAXParser.obj
 0001:00042840       ?endIntSubset@SAXParser@xercesc_3_1@@UEAAXXZ 0000000012043840 f i SAXParser.obj
 0001:00042840       ?inheritAdditionalFacet@AbstractStringValidator@xercesc_3_1@@MEAAXXZ 0000000012043840 f i AbstractStringValidator.obj
 0001:00042840       ?validate@AnySimpleTypeDatatypeValidator@xercesc_3_1@@UEAAXQEB_WQEAVValidationContext@2@QEAVMemoryManager@2@@Z 0000000012043840 f i AnySimpleTypeDatatypeValidator.obj
 0001:00042840       ?doctypeWhitespace@SAX2XMLReaderImpl@xercesc_3_1@@UEAAXQEB_W_K@Z 0000000012043840 f i SAX2XMLReaderImpl.obj
 0001:00042840       ?startElement@DefaultHandler@xercesc_3_1@@UEAAXQEB_W00AEBVAttributes@2@@Z 0000000012043840 f i sax2Dummy.obj
 0001:00042840       ?doctypePI@SAXParser@xercesc_3_1@@UEAAXQEB_W0@Z 0000000012043840 f i SAXParser.obj
 0001:00042840       ??1XMLResourceIdentifier@xercesc_3_1@@QEAA@XZ 0000000012043840 f i DGXMLScanner.obj
 0001:00042840       ?setNodeValue@DOMElementImpl@xercesc_3_1@@UEAAXPEB_W@Z 0000000012043840 f i DOMElementImpl.obj
 0001:00042840       ?setNodeValue@DOMDocumentImpl@xercesc_3_1@@UEAAXPEB_W@Z 0000000012043840 f i DOMDocumentImpl.obj
 0001:00042840       ?endDocument@HandlerBase@xercesc_3_1@@UEAAXXZ 0000000012043840 f i Dummy.obj
 0001:00042840       ?serialize@XMLDTDDescription@xercesc_3_1@@UEAAXAEAVXSerializeEngine@2@@Z 0000000012043840 f i XMLDTDDescription.obj
 0001:00042840       ??3XMemory@xercesc_3_1@@SAXPEAX0@Z 0000000012043840 f i XMemory.obj
 0001:00042840       ?setElemStack@ValidationContext@xercesc_3_1@@UEAAXPEAVElemStack@2@@Z 0000000012043840 f i XMLAttr.obj
 0001:00042840       ?resetDocument@HandlerBase@xercesc_3_1@@UEAAXXZ 0000000012043840 f i Dummy.obj
 0001:00042840       ?ignorableWhitespace@HandlerBase@xercesc_3_1@@UEAAXQEB_W_K@Z 0000000012043840 f i Dummy.obj
 0001:00042840       ?endInputSource@SAX2XMLReaderImpl@xercesc_3_1@@UEAAXAEBVInputSource@2@@Z 0000000012043840 f i SAX2XMLReaderImpl.obj
 0001:00042840       ?startInputSource@XercesDOMParser@xercesc_3_1@@UEAAXAEBVInputSource@2@@Z 0000000012043840 f i XSAnnotation.obj
 0001:00042840       ?setEnclosingCT@SchemaAttDef@xercesc_3_1@@QEAAXPEAVComplexTypeInfo@2@@Z 0000000012043840 f i XMLElementDecl.obj
 0001:00042840       ?notationDecl@DefaultHandler@xercesc_3_1@@UEAAXQEB_W00@Z 0000000012043840 f i sax2Dummy.obj
 0001:00042840       ?resetEntities@XercesDOMParser@xercesc_3_1@@UEAAXXZ 0000000012043840 f i XSAnnotation.obj
 0001:00042840       ?reset@DTDValidator@xercesc_3_1@@UEAAXXZ 0000000012043840 f i DTDValidator.obj
 0001:00042840       ?error@HandlerBase@xercesc_3_1@@UEAAXAEBVSAXParseException@2@@Z 0000000012043840 f i Dummy.obj
 0001:00042840       ?endEntity@DefaultHandler@xercesc_3_1@@UEAAXQEB_W@Z 0000000012043840 f i sax2Dummy.obj
 0001:00042840       ?doctypeDecl@SAXParser@xercesc_3_1@@UEAAXAEBVDTDElementDecl@2@QEB_W1_N2@Z 0000000012043840 f i SAXParser.obj
 0001:00042840       ?resetErrors@HandlerBase@xercesc_3_1@@UEAAXXZ 0000000012043840 f i Dummy.obj
 0001:00042840       ?comment@DefaultHandler@xercesc_3_1@@UEAAXQEB_W_K@Z 0000000012043840 f i sax2Dummy.obj
 0001:00042840       ?orphanChild@CMLeaf@xercesc_3_1@@UEAAXXZ 0000000012043840 f i DFAContentModel.obj
 0001:00042840       ?startEntityReference@XSDDOMParser@xercesc_3_1@@UEAAXAEBVXMLEntityDecl@2@@Z 0000000012043840 f i XSDDOMParser.obj
 0001:00042840       ?warning@HandlerBase@xercesc_3_1@@UEAAXAEBVSAXParseException@2@@Z 0000000012043840 f i Dummy.obj
 0001:00042840       ?processingInstruction@DefaultHandler@xercesc_3_1@@UEAAXQEB_W0@Z 0000000012043840 f i sax2Dummy.obj
 0001:00042840       ?startEntity@DefaultHandler@xercesc_3_1@@UEAAXQEB_W@Z 0000000012043840 f i sax2Dummy.obj
 0001:00042840       ?normalizeContent@AbstractStringValidator@xercesc_3_1@@MEBAXQEA_WQEAVMemoryManager@2@@Z 0000000012043840 f i AbstractStringValidator.obj
 0001:00042840       ?setNodeValue@DOMEntityReferenceImpl@xercesc_3_1@@UEAAXPEB_W@Z 0000000012043840 f i DOMEntityReferenceImpl.obj
 0001:00042840       ?serialize@XMLAttDefList@xercesc_3_1@@UEAAXAEAVXSerializeEngine@2@@Z 0000000012043840 f i XMLAttDefList.obj
 0001:00042840       ??3@YAXPEAXPEAVDOMDocument@xercesc_3_1@@W4NodeObjectType@DOMMemoryManager@1@@Z 0000000012043840 f i DOMAttrImpl.obj
 0001:00042840       ?startIntSubset@SAXParser@xercesc_3_1@@UEAAXXZ 0000000012043840 f i SAXParser.obj
 0001:00042840       ?setByteStream@Wrapper4InputSource@xercesc_3_1@@UEAAXPEAVInputSource@2@@Z 0000000012043840 f i Wrapper4InputSource.obj
 0001:00042840       ?attributeDecl@DefaultHandler@xercesc_3_1@@UEAAXQEB_W0000@Z 0000000012043840 f i sax2Dummy.obj
 0001:00042840       ?reset@SchemaAttDef@xercesc_3_1@@UEAAXXZ 0000000012043840 f i XMLElementDecl.obj
 0001:00042840       ?normalize@DOMProcessingInstructionImpl@xercesc_3_1@@UEAAXXZ 0000000012043840 f i DOMProcessingInstructionImpl.obj
 0001:00042840       ?setMax@Token@xercesc_3_1@@UEAAXH@Z 0000000012043840 f i ASCIIRangeFactory.obj
 0001:00042840       ?endAttList@SAX2XMLReaderImpl@xercesc_3_1@@UEAAXAEBVDTDElementDecl@2@@Z 0000000012043840 f i SAX2XMLReaderImpl.obj
 0001:00042840       ??1RangeTokenElemMap@xercesc_3_1@@QEAA@XZ 0000000012043840 f i RangeTokenMap.obj
 0001:00042840       ?endInputSource@DOMLSParserImpl@xercesc_3_1@@UEAAXAEBVInputSource@2@@Z 0000000012043840 f i DOMLSParserImpl.obj
 0001:00042840       ??1XMLInteger@xercesc_3_1@@QEAA@XZ 0000000012043840 f i DFAContentModel.obj
 0001:00042840       ?characters@DefaultHandler@xercesc_3_1@@UEAAXQEB_W_K@Z 0000000012043840 f i sax2Dummy.obj
 0001:00042840       ?endPrefixMapping@DefaultHandler@xercesc_3_1@@UEAAXQEB_W@Z 0000000012043840 f i sax2Dummy.obj
 0001:00042840       ?setDocumentLocator@HandlerBase@xercesc_3_1@@UEAAXQEBVLocator@2@@Z 0000000012043840 f i Dummy.obj
 0001:00042840       ?internalEntityDecl@DefaultHandler@xercesc_3_1@@UEAAXQEB_W0@Z 0000000012043840 f i sax2Dummy.obj
 0001:00042840       ?doctypeComment@SAXParser@xercesc_3_1@@UEAAXQEB_W@Z 0000000012043840 f i SAXParser.obj
 0001:00042840       ?startDocument@DefaultHandler@xercesc_3_1@@UEAAXXZ 0000000012043840 f i sax2Dummy.obj
 0001:00042840       ?resetEntities@SAX2XMLReaderImpl@xercesc_3_1@@UEAAXXZ 0000000012043840 f i SAX2XMLReaderImpl.obj
 0001:00042840       ?setNodeValue@DOMNotationImpl@xercesc_3_1@@UEAAXPEB_W@Z 0000000012043840 f i DOMNotationImpl.obj
 0001:00042840       ?normalize@DOMCDATASectionImpl@xercesc_3_1@@UEAAXXZ 0000000012043840 f i DOMCDATASectionImpl.obj
 0001:00042840       ?elementDecl@DefaultHandler@xercesc_3_1@@UEAAXQEB_W0@Z 0000000012043840 f i sax2Dummy.obj
 0001:00042840       ?checkValueSpace@ListDatatypeValidator@xercesc_3_1@@MEAAXQEB_WQEAVMemoryManager@2@@Z 0000000012043840 f i ListDatatypeValidator.obj
 0001:00042840       ?serialize@XMLSchemaDescription@xercesc_3_1@@UEAAXAEAVXSerializeEngine@2@@Z 0000000012043840 f i XMLSchemaDescription.obj
 0001:00042840       ??1DOMCharacterDataImpl@xercesc_3_1@@QEAA@XZ 0000000012043840 f i DOMCharacterDataImpl.obj
 0001:00042840       ?setLexicalHandler@SAX2XMLFilterImpl@xercesc_3_1@@UEAAXQEAVLexicalHandler@2@@Z 0000000012043840 f i SAX2XMLFilterImpl.obj
 0001:00042840       ?setNamespaceScope@ValidationContext@xercesc_3_1@@UEAAXPEAVNamespaceScope@2@@Z 0000000012043840 f i XMLAttr.obj
 0001:00042840       ?resetDocType@HandlerBase@xercesc_3_1@@UEAAXXZ 0000000012043840 f i Dummy.obj
 0001:00042840       ?startInputSource@SAXParser@xercesc_3_1@@UEAAXAEBVInputSource@2@@Z 0000000012043840 f i SAXParser.obj
 0001:00042840       ?inheritAdditionalFacet@AbstractNumericFacetValidator@xercesc_3_1@@MEAAXXZ 0000000012043840 f i AbstractNumericFacetValidator.obj
 0001:00042840       ?checkAdditionalFacet@AbstractStringValidator@xercesc_3_1@@MEBAXQEB_WQEAVMemoryManager@2@@Z 0000000012043840 f i AbstractStringValidator.obj
 0001:00042840       ?setContentSpec@SchemaElementDecl@xercesc_3_1@@UEAAXPEAVContentSpecNode@2@@Z 0000000012043840 f i XMLElementDecl.obj
 0001:00042840       ?normalize@DOMCommentImpl@xercesc_3_1@@UEAAXXZ 0000000012043840 f i DOMCommentImpl.obj
 0001:00042840       ?reset@DTDAttDef@xercesc_3_1@@UEAAXXZ 0000000012043840 f i XMLElementDecl.obj
 0001:00042840       ?serialize@XMLNumber@xercesc_3_1@@UEAAXAEAVXSerializeEngine@2@@Z 0000000012043840 f i XMLNumber.obj
 0001:00042840       ?serialize@XMLGrammarDescription@xercesc_3_1@@UEAAXAEAVXSerializeEngine@2@@Z 0000000012043840 f i XMLGrammarDescription.obj
 0001:00042840       ?release@DOMTreeWalkerImpl@xercesc_3_1@@UEAAXXZ 0000000012043840 f i DOMTreeWalkerImpl.obj
 0001:00042840       ?serialize@Grammar@xercesc_3_1@@UEAAXAEAVXSerializeEngine@2@@Z 0000000012043840 f i Grammar.obj
 0001:00042840       ?trace@XSerializeEngine@xercesc_3_1@@QEBAXPEAD@Z 0000000012043840 f i XSerializeEngine.obj
 0001:00042840       ?doctypeWhitespace@SAXParser@xercesc_3_1@@UEAAXQEB_W_K@Z 0000000012043840 f i SAXParser.obj
 0001:00042840       ?handlePartialElementPSVI@PSVIHandler@xercesc_3_1@@UEAAXQEB_W0PEAVPSVIElement@2@@Z 0000000012043840 f i XSAnnotation.obj
 0001:00042840       ?endInputSource@XercesDOMParser@xercesc_3_1@@UEAAXAEBVInputSource@2@@Z 0000000012043840 f i XSAnnotation.obj
 0001:00042840       ?checkAdditionalFacetConstraintsBase@AbstractNumericFacetValidator@xercesc_3_1@@MEBAXQEAVMemoryManager@2@@Z 0000000012043840 f i AbstractNumericFacetValidator.obj
 0001:00042840       ?matched@XPathMatcher@xercesc_3_1@@MEAAXQEB_WQEAVDatatypeValidator@2@_N@Z 0000000012043840 f i XPathMatcher.obj
 0001:00042840       ?resetErrors@AnnotationErrorReporter@xercesc_3_1@@UEAAXXZ 0000000012043840 f i TraverseSchema.obj
 0001:00042840       ?endAttList@SAXParser@xercesc_3_1@@UEAAXAEBVDTDElementDecl@2@@Z 0000000012043840 f i SAXParser.obj
 0001:00042840       ?attDef@SAXParser@xercesc_3_1@@UEAAXAEBVDTDElementDecl@2@AEBVDTDAttDef@2@_N@Z 0000000012043840 f i SAXParser.obj
 0001:00042840       ??1DOMNodeImpl@xercesc_3_1@@QEAA@XZ 0000000012043840 f i DOMNodeImpl.obj
 0001:00042840       ?startDTD@DefaultHandler@xercesc_3_1@@UEAAXQEB_W00@Z 0000000012043840 f i sax2Dummy.obj
 0001:00042840       ??1SubstitutionGroupComparator@xercesc_3_1@@QEAA@XZ 0000000012043840 f i IGXMLScanner2.obj
 0001:00042840       ?externalEntityDecl@DefaultHandler@xercesc_3_1@@UEAAXQEB_W00@Z 0000000012043840 f i sax2Dummy.obj
 0001:00042840       ?setNodeValue@DOMEntityImpl@xercesc_3_1@@UEAAXPEB_W@Z 0000000012043840 f i DOMEntityImpl.obj
 0001:00042840       ?serialize@XSerializable@xercesc_3_1@@UEAAXAEAVXSerializeEngine@2@@Z 0000000012043840 f i KVStringPair.obj
 0001:00042840       ?setNodeValue@DOMDocumentTypeImpl@xercesc_3_1@@UEAAXPEB_W@Z 0000000012043840 f i DOMDocumentTypeImpl.obj
 0001:00042840       ?startInputSource@DOMLSParserImpl@xercesc_3_1@@UEAAXAEBVInputSource@2@@Z 0000000012043840 f i DOMLSParserImpl.obj
 0001:00042840       ?unparsedEntityDecl@HandlerBase@xercesc_3_1@@UEAAXQEB_W000@Z 0000000012043840 f i Dummy.obj
 0001:00042840       ?endEntityReference@XSDDOMParser@xercesc_3_1@@UEAAXAEBVXMLEntityDecl@2@@Z 0000000012043840 f i XSDDOMParser.obj
 0001:00042840       ??1EndOfEntityException@xercesc_3_1@@QEAA@XZ 0000000012043840 f i DGXMLScanner.obj
 0001:00042840       ??1RegxUtil@xercesc_3_1@@QEAA@XZ 0000000012043840 f i RegularExpression.obj
 0001:00042840       ?resetCachedGrammar@XMLScanner@xercesc_3_1@@UEAAXXZ 0000000012043840 f i XMLScanner.obj
 0001:00042840       ??3@YAXPEAXPEAVDOMDocumentImpl@xercesc_3_1@@W4NodeObjectType@DOMMemoryManager@1@@Z 0000000012043840 f i AbstractDOMParser.obj
 0001:00042840       ?endCDATA@DefaultHandler@xercesc_3_1@@UEAAXXZ 0000000012043840 f i sax2Dummy.obj
 0001:00042840       ??1OutOfMemoryException@xercesc_3_1@@QEAA@XZ 0000000012043840 f i PlatformUtils.obj
 0001:00042840       ?startDocument@HandlerBase@xercesc_3_1@@UEAAXXZ 0000000012043840 f i Dummy.obj
 0001:00042840       ?unparsedEntityDecl@DefaultHandler@xercesc_3_1@@UEAAXQEB_W000@Z 0000000012043840 f i sax2Dummy.obj
 0001:00042840       ??1XUtil@xercesc_3_1@@AEAA@XZ 0000000012043840 f i SchemaInfo.obj
 0001:00042840       ?warning@DefaultHandler@xercesc_3_1@@UEAAXAEBVSAXParseException@2@@Z 0000000012043840 f i sax2Dummy.obj
 0001:00042840       ?setNodeValue@DOMNodeImpl@xercesc_3_1@@QEAAXPEB_W@Z 0000000012043840 f i DOMNodeImpl.obj
 0001:00042840       ?setStringData@Wrapper4InputSource@xercesc_3_1@@UEAAXPEB_W@Z 0000000012043840 f i Wrapper4InputSource.obj
 0001:00042840       ??3@YAXPEAXPEAVDOMDocument@xercesc_3_1@@@Z 0000000012043840 f i AbstractDOMParser.obj
 0001:00042840       ?setMin@Token@xercesc_3_1@@UEAAXH@Z 0000000012043840 f i ASCIIRangeFactory.obj
 0001:00042840       ?installAdvDocHandler@SAX2XMLFilterImpl@xercesc_3_1@@UEAAXQEAVXMLDocumentHandler@2@@Z 0000000012043840 f i SAX2XMLFilterImpl.obj
 0001:00042840       ?startElement@HandlerBase@xercesc_3_1@@UEAAXQEB_WAEAVAttributeList@2@@Z 0000000012043840 f i Dummy.obj
 0001:00042840       ?startCDATA@DefaultHandler@xercesc_3_1@@UEAAXXZ 0000000012043840 f i sax2Dummy.obj
 0001:00042840       ?setDocumentLocator@DefaultHandler@xercesc_3_1@@UEAAXQEBVLocator@2@@Z 0000000012043840 f i sax2Dummy.obj
 0001:00042840       ?normalize@DOMTextImpl@xercesc_3_1@@UEAAXXZ 0000000012043840 f i DOMTextImpl.obj
 0001:00042840       ?resetErrors@XercesDOMParser@xercesc_3_1@@UEAAXXZ 0000000012043840 f i XercesDOMParser.obj
 0001:00042840       ?startIntSubset@SAX2XMLReaderImpl@xercesc_3_1@@UEAAXXZ 0000000012043840 f i SAX2XMLReaderImpl.obj
 0001:00042840       ?setScanner@ValidationContext@xercesc_3_1@@UEAAXPEAVXMLScanner@2@@Z 0000000012043840 f i XMLAttr.obj
 0001:00042840       ?resetEntities@SAXParser@xercesc_3_1@@UEAAXXZ 0000000012043840 f i SAXParser.obj
 0001:00042840       ?resetErrors@DefaultHandler@xercesc_3_1@@UEAAXXZ 0000000012043840 f i sax2Dummy.obj
 0001:00042840       ?postParseValidation@DTDValidator@xercesc_3_1@@UEAAXXZ 0000000012043840 f i DTDValidator.obj
 0001:00042840       ?characters@HandlerBase@xercesc_3_1@@UEAAXQEB_W_K@Z 0000000012043840 f i Dummy.obj
 0001:00042840       ?postParseValidation@SchemaValidator@xercesc_3_1@@UEAAXXZ 0000000012043840 f i SchemaValidator.obj
 0001:00042840       ?endElement@DefaultHandler@xercesc_3_1@@UEAAXQEB_W00@Z 0000000012043840 f i sax2Dummy.obj
 0001:00042840       ?checkAdditionalFacetConstraints@AbstractNumericFacetValidator@xercesc_3_1@@MEBAXQEAVMemoryManager@2@@Z 0000000012043840 f i AbstractNumericFacetValidator.obj
 0001:00042840       ??1XMLCanRepGroup@xercesc_3_1@@QEAA@XZ 0000000012043840 f i XMLCanRepGroup.obj
 0001:00042840       ?normalize@DOMNodeImpl@xercesc_3_1@@QEAAXXZ 0000000012043840 f i DOMNodeImpl.obj
 0001:00042840       ?startExtSubset@SAXParser@xercesc_3_1@@UEAAXXZ 0000000012043840 f i SAXParser.obj
 0001:00042840       ?startAttList@SAXParser@xercesc_3_1@@UEAAXAEBVDTDElementDecl@2@@Z 0000000012043840 f i SAXParser.obj
 0001:00042840       ?resetDocType@DefaultHandler@xercesc_3_1@@UEAAXXZ 0000000012043840 f i sax2Dummy.obj
 0001:00042840       ?setInputBufferSize@SAX2XMLReader@xercesc_3_1@@UEAAX_K@Z 0000000012043840 f i XSAnnotation.obj
 0001:00042840       ?checkAdditionalFacetConstraints@AbstractStringValidator@xercesc_3_1@@MEBAXQEAVMemoryManager@2@@Z 0000000012043840 f i AbstractStringValidator.obj
 0001:00042840       ?setSystemId@XMLDTDDescription@xercesc_3_1@@UEAAXQEB_W@Z 0000000012043840 f i XMLDTDDescription.obj
 0001:00042840       ?endDocument@ValueStoreCache@xercesc_3_1@@QEAAXXZ 0000000012043840 f i IGXMLScanner.obj
 0001:00042840       ?TextDecl@SAX2XMLReaderImpl@xercesc_3_1@@UEAAXQEB_W0@Z 0000000012043840 f i SAX2XMLReaderImpl.obj
 0001:00042840       ?resetErrors@DOMLSParserImpl@xercesc_3_1@@UEAAXXZ 0000000012043840 f i DOMLSParserImpl.obj
 0001:00042840       ?doctypePI@SAX2XMLReaderImpl@xercesc_3_1@@UEAAXQEB_W0@Z 0000000012043840 f i SAX2XMLReaderImpl.obj
 0001:00042840       ?orphanChild@CMAny@xercesc_3_1@@UEAAXXZ 0000000012043840 f i CMAny.obj
 0001:00042840       ?resetEntities@DOMLSParserImpl@xercesc_3_1@@UEAAXXZ 0000000012043840 f i DOMLSParserImpl.obj
 0001:00042840       ?endExtSubset@AbstractDOMParser@xercesc_3_1@@UEAAXXZ 0000000012043840 f i AbstractDOMParser.obj
 0001:00042840       ??1XMLUniCharacter@xercesc_3_1@@QEAA@XZ 0000000012043840 f i RangeTokenMap.obj
 0001:00042840       ?checkValueSpace@StringDatatypeValidator@xercesc_3_1@@MEAAXQEB_WQEAVMemoryManager@2@@Z 0000000012043840 f i StringDatatypeValidator.obj
 0001:00042844       ?getEntity@EndOfEntityException@xercesc_3_1@@QEBAAEBVXMLEntityDecl@2@XZ 0000000012043844 f i DGXMLScanner.obj
 0001:00042844       ?getTokenRegistry@RangeTokenMap@xercesc_3_1@@IEBAPEAV?$RefHashTableOf@VRangeTokenElemMap@xercesc_3_1@@UStringHasher@2@@2@XZ 0000000012043844 f i ASCIIRangeFactory.obj
 0001:00042844       ?getLen@XMLBuffer@xercesc_3_1@@QEBA_KXZ 0000000012043844 f i Base64.obj
 0001:00042844       ?getLocation@XIncludeLocation@xercesc_3_1@@QEAAPEB_WXZ 0000000012043844 f i AbstractDOMParser.obj
 0001:00042844       ?getEntity@EndOfEntityException@xercesc_3_1@@QEAAAEAVXMLEntityDecl@2@XZ 0000000012043844 f i DGXMLScanner.obj
 0001:00042844       ?getBufferCount@XMLBufferMgr@xercesc_3_1@@QEBA_KXZ 0000000012043844 f i XMLBufferMgr.obj
 0001:00042844       ?str@TranscodeToStr@xercesc_3_1@@QEBAPEBEXZ 0000000012043844 f i PlatformUtils.obj
 0001:00042844       ?str@TranscodeFromStr@xercesc_3_1@@QEBAPEB_WXZ 0000000012043844 f i PlatformUtils.obj
 0001:00042848       ?isReadingExternalEntity@DTDScanner@xercesc_3_1@@AEAA_NXZ 0000000012043848 f i DGXMLScanner.obj
 0001:00042860       ??_FDTDValidator@xercesc_3_1@@QEAAXXZ 0000000012043860 f i DGXMLScanner.obj
 0001:00042884       ??0XMLResourceIdentifier@xercesc_3_1@@QEAA@W4ResourceIdentifierType@01@QEB_W111PEBVLocator@1@@Z 0000000012043884 f i DGXMLScanner.obj
 0001:000428b0       ??0DGXMLScanner@xercesc_3_1@@QEAA@QEAVXMLValidator@1@QEAVGrammarResolver@1@QEAVMemoryManager@1@@Z 00000000120438b0 f   DGXMLScanner.obj
 0001:0004293c       ??0DGXMLScanner@xercesc_3_1@@QEAA@QEAVXMLDocumentHandler@1@QEAVDocTypeHandler@1@QEAVXMLEntityHandler@1@QEAVXMLErrorReporter@1@QEAVXMLValidator@1@QEAVGrammarResolver@1@QEAVMemoryManager@1@@Z 000000001204393c f   DGXMLScanner.obj
 0001:000429f8       ??1DGXMLScanner@xercesc_3_1@@UEAA@XZ 00000000120439f8 f   DGXMLScanner.obj
 0001:00042a2c       ?getEntityDeclPool@DGXMLScanner@xercesc_3_1@@UEAAPEAV?$NameIdPool@VDTDEntityDecl@xercesc_3_1@@@2@XZ 0000000012043a2c f   DGXMLScanner.obj
 0001:00042a2c       ?getEntityDeclPool@DGXMLScanner@xercesc_3_1@@UEBAPEBV?$NameIdPool@VDTDEntityDecl@xercesc_3_1@@@2@XZ 0000000012043a2c f   DGXMLScanner.obj
 0001:00042a40       ?scanDocument@DGXMLScanner@xercesc_3_1@@UEAAXAEBVInputSource@2@@Z 0000000012043a40 f   DGXMLScanner.obj
 0001:00042b38       ?scanNext@DGXMLScanner@xercesc_3_1@@UEAA_NAEAVXMLPScanToken@2@@Z 0000000012043b38 f   DGXMLScanner.obj
 0001:00042db4       ?scanContent@DGXMLScanner@xercesc_3_1@@AEAA_NXZ 0000000012043db4 f   DGXMLScanner.obj
 0001:00042f3c       ?scanEndTag@DGXMLScanner@xercesc_3_1@@AEAAXAEA_N@Z 0000000012043f3c f   DGXMLScanner.obj
 0001:00043274       ?scanDocTypeDecl@DGXMLScanner@xercesc_3_1@@EEAAXXZ 0000000012044274 f   DGXMLScanner.obj
 0001:00043d1c       ?scanStartTag@DGXMLScanner@xercesc_3_1@@AEAA_NAEA_N@Z 0000000012044d1c f   DGXMLScanner.obj
 0001:000446cc       ?scanStartTagNS@DGXMLScanner@xercesc_3_1@@AEAA_NAEA_N@Z 00000000120456cc f   DGXMLScanner.obj
 0001:0004513c       ?loadGrammar@DGXMLScanner@xercesc_3_1@@UEAAPEAVGrammar@2@AEBVInputSource@2@F_N@Z 000000001204613c f   DGXMLScanner.obj
 0001:00045224       ?loadDTDGrammar@DGXMLScanner@xercesc_3_1@@AEAAPEAVGrammar@2@AEBVInputSource@2@_N@Z 0000000012046224 f   DGXMLScanner.obj
 0001:00045704       ?commonInit@DGXMLScanner@xercesc_3_1@@AEAAXXZ 0000000012046704 f   DGXMLScanner.obj
 0001:0004590c       ?cleanUp@DGXMLScanner@xercesc_3_1@@AEAAXXZ 000000001204690c f   DGXMLScanner.obj
 0001:00045a04       ??_G?$Hash2KeysSetOf@UStringHasher@xercesc_3_1@@@xercesc_3_1@@QEAAPEAXI@Z 0000000012046a04 f i DGXMLScanner.obj
 0001:00045aac       ?buildAttList@DGXMLScanner@xercesc_3_1@@AEAA_K_KPEAVXMLElementDecl@2@AEAV?$RefVectorOf@VXMLAttr@xercesc_3_1@@@2@@Z 0000000012046aac f   DGXMLScanner.obj
 0001:00045e3c       ?scanReset@DGXMLScanner@xercesc_3_1@@EEAAXAEBVInputSource@2@@Z 0000000012046e3c f   DGXMLScanner.obj
 0001:00046170       ?sendCharData@DGXMLScanner@xercesc_3_1@@EEAAXAEAVXMLBuffer@2@@Z 0000000012047170 f   DGXMLScanner.obj
 0001:0004628c       ?updateNSMap@DGXMLScanner@xercesc_3_1@@AEAAXQEB_W00@Z 000000001204728c f   DGXMLScanner.obj
 0001:000464d0       ?scanAttrListforNameSpaces@DGXMLScanner@xercesc_3_1@@AEAAXPEAV?$RefVectorOf@VXMLAttr@xercesc_3_1@@@2@_KPEAVXMLElementDecl@2@@Z 00000000120474d0 f   DGXMLScanner.obj
 0001:000466c0       ?resolveSystemId@DGXMLScanner@xercesc_3_1@@EEAAPEAVInputSource@2@QEB_W0@Z 00000000120476c0 f   DGXMLScanner.obj
 0001:00046a94       ?scanAttValue@DGXMLScanner@xercesc_3_1@@AEAA_NQEBVXMLAttDef@2@QEB_WAEAVXMLBuffer@2@@Z 0000000012047a94 f   DGXMLScanner.obj
 0001:00046f9c       ?scanCDSection@DGXMLScanner@xercesc_3_1@@EEAAXXZ 0000000012047f9c f   DGXMLScanner.obj
 0001:000472f8       ?scanCharData@DGXMLScanner@xercesc_3_1@@EEAAXAEAVXMLBuffer@2@@Z 00000000120482f8 f   DGXMLScanner.obj
 0001:000476b0       ?scanEntityRef@DGXMLScanner@xercesc_3_1@@EEAA?AW4EntityExpRes@XMLScanner@2@_NAEA_W1AEA_N@Z 00000000120486b0 f   DGXMLScanner.obj
 0001:00047cb4       ?put@?$RefHash2KeysTableOf@VXMLAttr@xercesc_3_1@@UStringHasher@2@@xercesc_3_1@@QEAAXPEAXHQEAVXMLAttr@2@@Z 0000000012048cb4 f i DGXMLScanner.obj
 0001:00047e40       ??1?$Janitor@VInputSource@xercesc_3_1@@@xercesc_3_1@@QEAA@XZ 0000000012048e40 f i DGXMLScanner.obj
 0001:00047e40       ??1?$Janitor@VXSAnnotation@xercesc_3_1@@@xercesc_3_1@@QEAA@XZ 0000000012048e40 f i TraverseSchema.obj
 0001:00047e48       ?reset@?$Janitor@VXSAnnotation@xercesc_3_1@@@xercesc_3_1@@QEAAXPEAVXSAnnotation@2@@Z 0000000012048e48 f i TraverseSchema.obj
 0001:00047e48       ?reset@?$Janitor@VInputSource@xercesc_3_1@@@xercesc_3_1@@QEAAXPEAVInputSource@2@@Z 0000000012048e48 f i DGXMLScanner.obj
 0001:00047e48       ?reset@?$Janitor@VContentSpecNode@xercesc_3_1@@@xercesc_3_1@@QEAAXPEAVContentSpecNode@2@@Z 0000000012048e48 f i ComplexTypeInfo.obj
 0001:00047e78       ??0?$RefHashTableOf@IUPtrHasher@xercesc_3_1@@@xercesc_3_1@@QEAA@_K_NQEAVMemoryManager@1@@Z 0000000012048e78 f i DGXMLScanner.obj
 0001:00047ed8       ?removeAll@?$RefHashTableOf@UPoolElem@XMLStringPool@xercesc_3_1@@UStringHasher@3@@xercesc_3_1@@QEAAXXZ 0000000012048ed8 f i StringPool.obj
 0001:00047ed8       ?removeAll@?$RefHashTableOf@IUPtrHasher@xercesc_3_1@@@xercesc_3_1@@QEAAXXZ 0000000012048ed8 f i DGXMLScanner.obj
 0001:00047f60       ?put@?$RefHashTableOf@IUPtrHasher@xercesc_3_1@@@xercesc_3_1@@QEAAXPEAXQEAI@Z 0000000012048f60 f i DGXMLScanner.obj
 0001:00048030       ??0?$Hash2KeysSetOf@UStringHasher@xercesc_3_1@@@xercesc_3_1@@QEAA@_KQEAVMemoryManager@1@@Z 0000000012049030 f i DGXMLScanner.obj
 0001:00048084       ?removeAll@?$Hash2KeysSetOf@UStringHasher@xercesc_3_1@@@xercesc_3_1@@QEAAXXZ 0000000012049084 f i DGXMLScanner.obj
 0001:000480d8       ?putIfNotPresent@?$Hash2KeysSetOf@UStringHasher@xercesc_3_1@@@xercesc_3_1@@QEAA_NPEBXH@Z 00000000120490d8 f i DGXMLScanner.obj
 0001:0004822c       ??0?$ValueVectorOf@PEAVContentSpecNode@xercesc_3_1@@@xercesc_3_1@@QEAA@_KQEAVMemoryManager@1@_N@Z 000000001204922c f i SchemaValidator.obj
 0001:0004822c       ??0?$ValueVectorOf@PEAVXMLAttr@xercesc_3_1@@@xercesc_3_1@@QEAA@_KQEAVMemoryManager@1@_N@Z 000000001204922c f i DGXMLScanner.obj
 0001:0004822c       ??0?$ValueVectorOf@PEA_W@xercesc_3_1@@QEAA@_KQEAVMemoryManager@1@_N@Z 000000001204922c f i IGXMLScanner.obj
 0001:00048280       ?rehash@?$Hash2KeysSetOf@UStringHasher@xercesc_3_1@@@xercesc_3_1@@AEAAXXZ 0000000012049280 f i DGXMLScanner.obj
 0001:00048390       ??0ElemStack@xercesc_3_1@@QEAA@QEAVMemoryManager@1@@Z 0000000012049390 f   ElemStack.obj
 0001:00048490       ??1ElemStack@xercesc_3_1@@QEAA@XZ 0000000012049490 f   ElemStack.obj
 0001:00048594       ?addLevel@ElemStack@xercesc_3_1@@QEAA_KXZ 0000000012049594 f   ElemStack.obj
 0001:00048710       ?addLevel@ElemStack@xercesc_3_1@@QEAA_KQEAVXMLElementDecl@2@_K@Z 0000000012049710 f   ElemStack.obj
 0001:000488a8       ?popTop@ElemStack@xercesc_3_1@@QEAAPEBUStackElem@12@XZ 00000000120498a8 f   ElemStack.obj
 0001:00048920       ?setElement@ElemStack@xercesc_3_1@@QEAAXQEAVXMLElementDecl@2@_K@Z 0000000012049920 f   ElemStack.obj
 0001:000489a8       ?addChild@ElemStack@xercesc_3_1@@QEAA_KQEAVQName@2@_N@Z 00000000120499a8 f   ElemStack.obj
 0001:00048b64       ?topElement@ElemStack@xercesc_3_1@@QEBAPEBUStackElem@12@XZ 0000000012049b64 f   ElemStack.obj
 0001:00048bd4       ?addGlobalPrefix@ElemStack@xercesc_3_1@@QEAAXQEB_WI@Z 0000000012049bd4 f   ElemStack.obj
 0001:00048d2c       ?addPrefix@ElemStack@xercesc_3_1@@QEAAXQEB_WI@Z 0000000012049d2c f   ElemStack.obj
 0001:00048e14       ?mapPrefixToURI@ElemStack@xercesc_3_1@@QEBAIQEB_WAEA_N@Z 0000000012049e14 f   ElemStack.obj
 0001:00048f18       ?getNamespaceMap@ElemStack@xercesc_3_1@@QEBAPEAV?$ValueVectorOf@PEAUPrefMapElem@xercesc_3_1@@@2@XZ 0000000012049f18 f   ElemStack.obj
 0001:00048fcc       ?reset@ElemStack@xercesc_3_1@@QEAAXIIII@Z 0000000012049fcc f   ElemStack.obj
 0001:00049098       ?expandMap@ElemStack@xercesc_3_1@@AEAAXQEAUStackElem@12@@Z 000000001204a098 f   ElemStack.obj
 0001:00049170       ?expandStack@ElemStack@xercesc_3_1@@AEAAXXZ 000000001204a170 f   ElemStack.obj
 0001:0004923c       ??0WFElemStack@xercesc_3_1@@QEAA@QEAVMemoryManager@1@@Z 000000001204a23c f   ElemStack.obj
 0001:000492d0       ??1WFElemStack@xercesc_3_1@@QEAA@XZ 000000001204a2d0 f   ElemStack.obj
 0001:00049368       ?addLevel@WFElemStack@xercesc_3_1@@QEAA_KXZ 000000001204a368 f   ElemStack.obj
 0001:0004943c       ?addLevel@WFElemStack@xercesc_3_1@@QEAA_KQEB_WII@Z 000000001204a43c f   ElemStack.obj
 0001:000495a4       ?popTop@WFElemStack@xercesc_3_1@@QEAAPEBUStackElem@12@XZ 000000001204a5a4 f   ElemStack.obj
 0001:0004961c       ?setElement@WFElemStack@xercesc_3_1@@QEAAXQEB_WII@Z 000000001204a61c f   ElemStack.obj
 0001:00049730       ?topElement@WFElemStack@xercesc_3_1@@QEBAPEBUStackElem@12@XZ 000000001204a730 f   ElemStack.obj
 0001:000497a0       ?addPrefix@WFElemStack@xercesc_3_1@@QEAAXQEB_WI@Z 000000001204a7a0 f   ElemStack.obj
 0001:00049880       ?mapPrefixToURI@WFElemStack@xercesc_3_1@@QEBAIQEB_WAEA_N@Z 000000001204a880 f   ElemStack.obj
 0001:00049924       ?reset@WFElemStack@xercesc_3_1@@QEAAXIIII@Z 000000001204a924 f   ElemStack.obj
 0001:000499c0       ?expandMap@WFElemStack@xercesc_3_1@@AEAAXXZ 000000001204a9c0 f   ElemStack.obj
 0001:00049a84       ?expandStack@WFElemStack@xercesc_3_1@@AEAAXXZ 000000001204aa84 f   ElemStack.obj
 0001:00049b50       ?getElemAttrDefaultQualified@SchemaInfo@xercesc_3_1@@QEBAGXZ 000000001204ab50 f i IGXMLScanner.obj
 0001:00049b58       ?getProcessed@SchemaInfo@xercesc_3_1@@QEBA_NXZ 000000001204ab58 f i IGXMLScanner.obj
 0001:00049b5c       ?getImportingListEnumerator@SchemaInfo@xercesc_3_1@@QEBA?AV?$BaseRefVectorEnumerator@VSchemaInfo@xercesc_3_1@@@2@XZ 000000001204ab5c f i IGXMLScanner.obj
 0001:00049b7c       ?setType@XMLAttr@xercesc_3_1@@QEAAXW4AttTypes@XMLAttDef@2@@Z 000000001204ab7c f i XMLAttr.obj
 0001:00049b7c       ?setBlockDefault@SchemaInfo@xercesc_3_1@@QEAAXH@Z 000000001204ab7c f i IGXMLScanner.obj
 0001:00049b80       ?setElemAttrDefaultQualified@SchemaInfo@xercesc_3_1@@QEAAXG@Z 000000001204ab80 f i IGXMLScanner.obj
 0001:00049b88       ?resetRoot@SchemaInfo@xercesc_3_1@@QEAAXXZ 000000001204ab88 f i IGXMLScanner.obj
 0001:00049b90       ?addSchemaInfo@SchemaInfo@xercesc_3_1@@QEAAXQEAV12@W4ListType@12@@Z 000000001204ab90 f i IGXMLScanner.obj
 0001:00049da8       ?getImportInfo@SchemaInfo@xercesc_3_1@@QEBAPEAV12@I@Z 000000001204ada8 f i IGXMLScanner.obj
 0001:00049e0c       ?getValidationContext@SchemaInfo@xercesc_3_1@@QEBAPEAVValidationContext@2@XZ 000000001204ae0c f i IGXMLScanner.obj
 0001:00049e14       ?containsInfo@SchemaInfo@xercesc_3_1@@QEBA_NQEBV12@W4ListType@12@@Z 000000001204ae14 f i IGXMLScanner.obj
 0001:00049e84       ?circularImportExist@SchemaInfo@xercesc_3_1@@QEAA_NI@Z 000000001204ae84 f i IGXMLScanner.obj
 0001:00049ee0       ?isFailedRedefine@SchemaInfo@xercesc_3_1@@QEAA_NQEBVDOMElement@2@@Z 000000001204aee0 f i IGXMLScanner.obj
 0001:00049f14       ?addFailedRedefine@SchemaInfo@xercesc_3_1@@QEAAXQEBVDOMElement@2@@Z 000000001204af14 f i IGXMLScanner.obj
 0001:00049f8c       ?addRecursingType@SchemaInfo@xercesc_3_1@@QEAAXQEBVDOMElement@2@QEB_W@Z 000000001204af8c f i IGXMLScanner.obj
 0001:0004a140       ?clearTopLevelComponents@SchemaInfo@xercesc_3_1@@AEAAXXZ 000000001204b140 f i IGXMLScanner.obj
 0001:0004a180       ??_EIGXMLScanner@xercesc_3_1@@UEAAPEAXI@Z 000000001204b180 f i IGXMLScanner.obj
 0001:0004a1f4       ?getName@IGXMLScanner@xercesc_3_1@@UEBAPEB_WXZ 000000001204b1f4 f i IGXMLScanner.obj
 0001:0004a1fc       ?toCheckIdentityConstraint@IGXMLScanner@xercesc_3_1@@AEBA_NXZ 000000001204b1fc f i IGXMLScanner.obj
 0001:0004a1fc       ?toCheckIdentityConstraint@SGXMLScanner@xercesc_3_1@@AEBA_NXZ 000000001204b1fc f i SGXMLScanner.obj
 0001:0004a218       ?getCurrentGrammarType@IGXMLScanner@xercesc_3_1@@UEBA?AW4GrammarType@Grammar@2@XZ 000000001204b218 f i IGXMLScanner.obj
 0001:0004a218       ?getCurrentGrammarType@SGXMLScanner@xercesc_3_1@@UEBA?AW4GrammarType@Grammar@2@XZ 000000001204b218 f i SGXMLScanner.obj
 0001:0004a220       ??1XSDErrorReporter@xercesc_3_1@@UEAA@XZ 000000001204b220 f i IGXMLScanner.obj
 0001:0004a22c       ??_FXSDErrorReporter@xercesc_3_1@@QEAAXXZ 000000001204b22c f i IGXMLScanner.obj
 0001:0004a240       ??_EXSDErrorReporter@xercesc_3_1@@UEAAPEAXI@Z 000000001204b240 f i IGXMLScanner.obj
 0001:0004a2b4       ??_FSchemaValidator@xercesc_3_1@@QEAAXXZ 000000001204b2b4 f i IGXMLScanner.obj
 0001:0004a2c4       ?setXsiType@SchemaValidator@xercesc_3_1@@QEAAXQEB_W0I@Z 000000001204b2c4 f i IGXMLScanner.obj
 0001:0004a364       ?setNillable@SchemaValidator@xercesc_3_1@@QEAAX_N@Z 000000001204b364 f i IGXMLScanner.obj
 0001:0004a36c       ?resetNillable@SchemaValidator@xercesc_3_1@@QEAAXXZ 000000001204b36c f i IGXMLScanner.obj
 0001:0004a374       ?setExitOnFirstFatal@SchemaValidator@xercesc_3_1@@QEAAX_N@Z 000000001204b374 f i IGXMLScanner.obj
 0001:0004a37c       ?setDatatypeBuffer@SchemaValidator@xercesc_3_1@@QEAAXQEB_W@Z 000000001204b37c f i IGXMLScanner.obj
 0001:0004a388       ?clearDatatypeBuffer@SchemaValidator@xercesc_3_1@@QEAAXXZ 000000001204b388 f i IGXMLScanner.obj
 0001:0004a390       ?getCurrentTypeInfo@SchemaValidator@xercesc_3_1@@QEBAPEAVComplexTypeInfo@2@XZ 000000001204b390 f i IGXMLScanner.obj
 0001:0004a3b4       ?setErrorReporter@SchemaValidator@xercesc_3_1@@QEAAXQEAVXMLErrorReporter@2@@Z 000000001204b3b4 f i IGXMLScanner.obj
 0001:0004a3c0       ?isOccurrenceRangeOK@SchemaValidator@xercesc_3_1@@AEAA_NHHHH@Z 000000001204b3c0 f i IGXMLScanner.obj
 0001:0004a3e0       ?getErrorOccurred@SchemaValidator@xercesc_3_1@@QEBA_NXZ 000000001204b3e0 f i IGXMLScanner.obj
 0001:0004a3e8       ?getIsElemSpecified@SchemaValidator@xercesc_3_1@@QEBA_NXZ 000000001204b3e8 f i IGXMLScanner.obj
 0001:0004a3f0       ?getNormalizedValue@SchemaValidator@xercesc_3_1@@QEBAPEB_WXZ 000000001204b3f0 f i IGXMLScanner.obj
 0001:0004a40c       ?getIsXsiTypeSet@SchemaValidator@xercesc_3_1@@QEBA_NXZ 000000001204b40c f i IGXMLScanner.obj
 0001:0004a418       ??_FValueStoreCache@xercesc_3_1@@QEAAXXZ 000000001204b418 f i IGXMLScanner.obj
 0001:0004a424       ?setType@DOMErrorImpl@xercesc_3_1@@QEAAXPEB_W@Z 000000001204b424 f i DOMLSParserImpl.obj
 0001:0004a424       ?setChild@ChildOp@xercesc_3_1@@QEAAXQEBVOp@2@@Z 000000001204b424 f i Op.obj
 0001:0004a424       ?setId@XSObject@xercesc_3_1@@QEAAX_K@Z 000000001204b424 f i XSObject.obj
 0001:0004a424       ?setId@XMLElementDecl@xercesc_3_1@@QEAAX_K@Z 000000001204b424 f i XMLDTDDescription.obj
 0001:0004a424       ?setSchemaLocation@DOMConfigurationImpl@xercesc_3_1@@QEAAXPEB_W@Z 000000001204b424 f i DOMConfigurationImpl.obj
 0001:0004a424       ?setUtf16Offset@DOMLocatorImpl@xercesc_3_1@@QEAAX_K@Z 000000001204b424 f i DOMLSParserImpl.obj
 0001:0004a424       ?setScanner@ValueStoreCache@xercesc_3_1@@QEAAXQEAVXMLScanner@2@@Z 000000001204b424 f i IGXMLScanner.obj
 0001:0004a42c       ?getValueStoreFor@ValueStoreCache@xercesc_3_1@@QEAAPEAVValueStore@2@QEBVIC_Field@2@H@Z 000000001204b42c f i IGXMLScanner.obj
 0001:0004a43c       ?getValueStoreFor@ValueStoreCache@xercesc_3_1@@QEAAPEAVValueStore@2@QEBVIdentityConstraint@2@H@Z 000000001204b43c f i IGXMLScanner.obj
 0001:0004a448       ??_FXPathMatcherStack@xercesc_3_1@@QEAAXXZ 000000001204b448 f i IGXMLScanner.obj
 0001:0004a454       ?size@XPathMatcherStack@xercesc_3_1@@QEBA_KXZ 000000001204b454 f i IGXMLScanner.obj
 0001:0004a460       ?getMatcherAt@XPathMatcherStack@xercesc_3_1@@QEBAPEAVXPathMatcher@2@_K@Z 000000001204b460 f i IGXMLScanner.obj
 0001:0004a4d0       ?pushContext@XPathMatcherStack@xercesc_3_1@@QEAAXXZ 000000001204b4d0 f i IGXMLScanner.obj
 0001:0004a4f0       ?popContext@XPathMatcherStack@xercesc_3_1@@QEAAXXZ 000000001204b4f0 f i IGXMLScanner.obj
 0001:0004a610       ?addMatcher@XPathMatcherStack@xercesc_3_1@@QEAAXQEAVXPathMatcher@2@@Z 000000001204b610 f i IGXMLScanner.obj
 0001:0004a648       ?getMatcherCount@IdentityConstraintHandler@xercesc_3_1@@QEBA_KXZ 000000001204b648 f i IGXMLScanner.obj
 0001:0004a650       ??0IGXMLScanner@xercesc_3_1@@QEAA@QEAVXMLValidator@1@QEAVGrammarResolver@1@QEAVMemoryManager@1@@Z 000000001204b650 f   IGXMLScanner.obj
 0001:0004a7c0       ??0IGXMLScanner@xercesc_3_1@@QEAA@QEAVXMLDocumentHandler@1@QEAVDocTypeHandler@1@QEAVXMLEntityHandler@1@QEAVXMLErrorReporter@1@QEAVXMLValidator@1@QEAVGrammarResolver@1@QEAVMemoryManager@1@@Z 000000001204b7c0 f   IGXMLScanner.obj
 0001:0004a960       ??1IGXMLScanner@xercesc_3_1@@UEAA@XZ 000000001204b960 f   IGXMLScanner.obj
 0001:0004a9a8       ?getEntityDeclPool@IGXMLScanner@xercesc_3_1@@UEBAPEBV?$NameIdPool@VDTDEntityDecl@xercesc_3_1@@@2@XZ 000000001204b9a8 f   IGXMLScanner.obj
 0001:0004a9a8       ?getEntityDeclPool@IGXMLScanner@xercesc_3_1@@UEAAPEAV?$NameIdPool@VDTDEntityDecl@xercesc_3_1@@@2@XZ 000000001204b9a8 f   IGXMLScanner.obj
 0001:0004a9bc       ?scanDocument@IGXMLScanner@xercesc_3_1@@UEAAXAEBVInputSource@2@@Z 000000001204b9bc f   IGXMLScanner.obj
 0001:0004aab4       ?scanNext@IGXMLScanner@xercesc_3_1@@UEAA_NAEAVXMLPScanToken@2@@Z 000000001204bab4 f   IGXMLScanner.obj
 0001:0004ad30       ?commonInit@IGXMLScanner@xercesc_3_1@@AEAAXXZ 000000001204bd30 f   IGXMLScanner.obj
 0001:0004b118       ?cleanUp@IGXMLScanner@xercesc_3_1@@AEAAXXZ 000000001204c118 f   IGXMLScanner.obj
 0001:0004b3a4       ?rawAttrScan@IGXMLScanner@xercesc_3_1@@AEAA_KQEB_WAEAV?$RefVectorOf@VKVStringPair@xercesc_3_1@@@2@AEA_N@Z 000000001204c3a4 f   IGXMLScanner.obj
 0001:0004b83c       ?scanContent@IGXMLScanner@xercesc_3_1@@AEAA_NXZ 000000001204c83c f   IGXMLScanner.obj
 0001:0004b9c4       ?scanEndTag@IGXMLScanner@xercesc_3_1@@AEAAXAEA_N@Z 000000001204c9c4 f   IGXMLScanner.obj
 0001:0004c134       ?scanDocTypeDecl@IGXMLScanner@xercesc_3_1@@EEAAXXZ 000000001204d134 f   IGXMLScanner.obj
 0001:0004cbec       ?scanStartTag@IGXMLScanner@xercesc_3_1@@AEAA_NAEA_N@Z 000000001204dbec f   IGXMLScanner.obj
 0001:0004d838       ?scanStartTagNS@IGXMLScanner@xercesc_3_1@@AEAA_NAEA_N@Z 000000001204e838 f   IGXMLScanner.obj
 0001:0004ec44       ?resizeElemState@IGXMLScanner@xercesc_3_1@@AEAAXXZ 000000001204fc44 f   IGXMLScanner.obj
 0001:0004ec44       ?resizeElemState@SGXMLScanner@xercesc_3_1@@IEAAXXZ 000000001204fc44 f   SGXMLScanner.obj
 0001:0004ed54       ?resizeRawAttrColonList@IGXMLScanner@xercesc_3_1@@AEAAXXZ 000000001204fd54 f   IGXMLScanner.obj
 0001:0004ede4       ?loadGrammar@IGXMLScanner@xercesc_3_1@@UEAAPEAVGrammar@2@AEBVInputSource@2@F_N@Z 000000001204fde4 f   IGXMLScanner.obj
 0001:0004eee8       ?resetCachedGrammar@IGXMLScanner@xercesc_3_1@@UEAAXXZ 000000001204fee8 f   IGXMLScanner.obj
 0001:0004eef4       ?loadDTDGrammar@IGXMLScanner@xercesc_3_1@@AEAAPEAVGrammar@2@AEBVInputSource@2@_N@Z 000000001204fef4 f   IGXMLScanner.obj
 0001:0004f4a4       ?processSchemaLocation@IGXMLScanner@xercesc_3_1@@AEAAXQEA_W@Z 00000000120504a4 f   IGXMLScanner.obj
 0001:0004f56c       ?endElementPSVI@IGXMLScanner@xercesc_3_1@@AEAAXQEAVSchemaElementDecl@2@QEAVDatatypeValidator@2@@Z 000000001205056c f   IGXMLScanner.obj
 0001:0004f764       ?resetPSVIElemContext@IGXMLScanner@xercesc_3_1@@AEAAXXZ 0000000012050764 f   IGXMLScanner.obj
 0001:0004f798       ??1?$XMLEnumerator@VSchemaInfo@xercesc_3_1@@@xercesc_3_1@@UEAA@XZ 0000000012050798 f i IGXMLScanner.obj
 0001:0004f7a4       ??_E?$XMLEnumerator@VSchemaInfo@xercesc_3_1@@@xercesc_3_1@@UEAAPEAXI@Z 00000000120507a4 f i  CIL library: CIL module
 0001:0004f7a4       ??_G?$XMLEnumerator@VSchemaInfo@xercesc_3_1@@@xercesc_3_1@@UEAAPEAXI@Z 00000000120507a4 f i IGXMLScanner.obj
 0001:0004f7cc       ??1?$BaseRefVectorEnumerator@VSchemaInfo@xercesc_3_1@@@xercesc_3_1@@UEAA@XZ 00000000120507cc f i IGXMLScanner.obj
 0001:0004f818       ?hasMoreElements@?$BaseRefVectorEnumerator@VSchemaInfo@xercesc_3_1@@@xercesc_3_1@@UEBA_NXZ 0000000012050818 f i IGXMLScanner.obj
 0001:0004f828       ?nextElement@?$BaseRefVectorEnumerator@VSchemaInfo@xercesc_3_1@@@xercesc_3_1@@UEAAAEAVSchemaInfo@2@XZ 0000000012050828 f i IGXMLScanner.obj
 0001:0004f840       ??1?$BaseRefVectorOf@VSchemaInfo@xercesc_3_1@@@xercesc_3_1@@UEAA@XZ 0000000012050840 f i IGXMLScanner.obj
 0001:0004f84c       ?setElementAt@?$BaseRefVectorOf@VSchemaInfo@xercesc_3_1@@@xercesc_3_1@@UEAAXQEAVSchemaInfo@2@_K@Z 000000001205084c f i IGXMLScanner.obj
 0001:0004f908       ?removeAllElements@?$BaseRefVectorOf@VSchemaInfo@xercesc_3_1@@@xercesc_3_1@@UEAAXXZ 0000000012050908 f i IGXMLScanner.obj
 0001:0004f974       ?removeElementAt@?$BaseRefVectorOf@VSchemaInfo@xercesc_3_1@@@xercesc_3_1@@UEAAX_K@Z 0000000012050974 f i IGXMLScanner.obj
 0001:0004fa64       ?removeLastElement@?$BaseRefVectorOf@VSchemaInfo@xercesc_3_1@@@xercesc_3_1@@UEAAXXZ 0000000012050a64 f i IGXMLScanner.obj
 0001:0004faac       ?cleanup@?$BaseRefVectorOf@VSchemaInfo@xercesc_3_1@@@xercesc_3_1@@UEAAXXZ 0000000012050aac f i IGXMLScanner.obj
 0001:0004fb18       ?elementAt@?$BaseRefVectorOf@VXercesLocationPath@xercesc_3_1@@@xercesc_3_1@@QEAAPEAVXercesLocationPath@2@_K@Z 0000000012050b18 f i XTemplateSerializer.obj
 0001:0004fb18       ?elementAt@?$BaseRefVectorOf@VPSVIAttributeStorage@xercesc_3_1@@@xercesc_3_1@@QEAAPEAVPSVIAttributeStorage@2@_K@Z 0000000012050b18 f i PSVIAttributeList.obj
 0001:0004fb18       ?elementAt@?$BaseRefVectorOf@VDOMRangeImpl@xercesc_3_1@@@xercesc_3_1@@QEAAPEAVDOMRangeImpl@2@_K@Z 0000000012050b18 f i DOMCDATASectionImpl.obj
 0001:0004fb18       ?elementAt@?$BaseRefVectorOf@VXMLElementDecl@xercesc_3_1@@@xercesc_3_1@@QEAAPEAVXMLElementDecl@2@_K@Z 0000000012050b18 f i WFXMLScanner.obj
 0001:0004fb18       ?elementAt@?$BaseRefVectorOf@VMatch@xercesc_3_1@@@xercesc_3_1@@QEAAPEAVMatch@2@_K@Z 0000000012050b18 f i RegularExpression.obj
 0001:0004fb18       ?elementAt@?$BaseRefVectorOf@VKVStringPair@xercesc_3_1@@@xercesc_3_1@@QEAAPEAVKVStringPair@2@_K@Z 0000000012050b18 f i IGXMLScanner.obj
 0001:0004fb18       ?elementAt@?$BaseRefVectorOf@VToken@xercesc_3_1@@@xercesc_3_1@@QEAAPEAVToken@2@_K@Z 0000000012050b18 f i ParserForXMLSchema.obj
 0001:0004fb18       ?elementAt@?$BaseRefVectorOf@VXSNamespaceItem@xercesc_3_1@@@xercesc_3_1@@QEAAPEAVXSNamespaceItem@2@_K@Z 0000000012050b18 f i XSModel.obj
 0001:0004fb18       ?elementAt@?$BaseRefVectorOf@VDOMNodeIteratorImpl@xercesc_3_1@@@xercesc_3_1@@QEAAPEAVDOMNodeIteratorImpl@2@_K@Z 0000000012050b18 f i DOMDocumentImpl.obj
 0001:0004fb18       ?elementAt@?$BaseRefVectorOf@VSchemaInfo@xercesc_3_1@@@xercesc_3_1@@QEAAPEAVSchemaInfo@2@_K@Z 0000000012050b18 f i IGXMLScanner.obj
 0001:0004fb18       ?elementAt@?$BaseRefVectorOf@VXMLAttr@xercesc_3_1@@@xercesc_3_1@@QEAAPEAVXMLAttr@2@_K@Z 0000000012050b18 f i DGXMLScanner.obj
 0001:0004fb18       ?elementAt@?$BaseRefVectorOf@VXSFacet@xercesc_3_1@@@xercesc_3_1@@QEAAPEAVXSFacet@2@_K@Z 0000000012050b18 f i XSSimpleTypeDefinition.obj
 0001:0004fb18       ?elementAt@?$BaseRefVectorOf@VScope@InScopeNamespaces@DOMNormalizer@xercesc_3_1@@@xercesc_3_1@@QEAAPEAVScope@InScopeNamespaces@DOMNormalizer@2@_K@Z 0000000012050b18 f i DOMNormalizer.obj
 0001:0004fb18       ?elementAt@?$BaseRefVectorOf@VSchemaElementDecl@xercesc_3_1@@@xercesc_3_1@@QEAAPEAVSchemaElementDecl@2@_K@Z 0000000012050b18 f i XMLElementDecl.obj
 0001:0004fb18       ?elementAt@?$BaseRefVectorOf@VIC_Field@xercesc_3_1@@@xercesc_3_1@@QEAAPEAVIC_Field@2@_K@Z 0000000012050b18 f i XMLElementDecl.obj
 0001:0004fb18       ?elementAt@?$BaseRefVectorOf@VXSObject@xercesc_3_1@@@xercesc_3_1@@QEAAPEAVXSObject@2@_K@Z 0000000012050b18 f i XSModel.obj
 0001:0004fb18       ?elementAt@?$BaseRefVectorOf@VSchemaAttDef@xercesc_3_1@@@xercesc_3_1@@QEAAPEAVSchemaAttDef@2@_K@Z 0000000012050b18 f i XMLGrammarPoolImpl.obj
 0001:0004fb18       ?elementAt@?$BaseRefVectorOf@VXMLNumber@xercesc_3_1@@@xercesc_3_1@@QEAAPEAVXMLNumber@2@_K@Z 0000000012050b18 f i XTemplateSerializer.obj
 0001:0004fb18       ?elementAt@?$BaseRefVectorOf@VDatatypeValidator@xercesc_3_1@@@xercesc_3_1@@QEAAPEAVDatatypeValidator@2@_K@Z 0000000012050b18 f i XMLElementDecl.obj
 0001:0004fb18       ?elementAt@?$BaseRefVectorOf@V?$RefHashTableOf@_WUStringHasher@xercesc_3_1@@@xercesc_3_1@@@xercesc_3_1@@QEAAPEAV?$RefHashTableOf@_WUStringHasher@xercesc_3_1@@@2@_K@Z 0000000012050b18 f i DOMLSSerializerImpl.obj
 0001:0004fb18       ?elementAt@?$BaseRefVectorOf@V?$ValueStackOf@_K@xercesc_3_1@@@xercesc_3_1@@QEAAPEAV?$ValueStackOf@_K@2@_K@Z 0000000012050b18 f i XPathMatcher.obj
 0001:0004fb18       ?elementAt@?$BaseRefVectorOf@VIdentityConstraint@xercesc_3_1@@@xercesc_3_1@@QEAAPEAVIdentityConstraint@2@_K@Z 0000000012050b18 f i XMLElementDecl.obj
 0001:0004fb84       ??0?$RefVectorOf@VSchemaInfo@xercesc_3_1@@@xercesc_3_1@@QEAA@_K_NQEAVMemoryManager@1@@Z 0000000012050b84 f i IGXMLScanner.obj
 0001:0004fbf8       ??0?$ValueVectorOf@PEBVDOMElement@xercesc_3_1@@@xercesc_3_1@@QEAA@_KQEAVMemoryManager@1@_N@Z 0000000012050bf8 f i IGXMLScanner.obj
 0001:0004fbf8       ??0?$ValueStackOf@_K@xercesc_3_1@@QEAA@_KQEAVMemoryManager@1@_N@Z 0000000012050bf8 f i SAX2XMLReaderImpl.obj
 0001:0004fc44       ?peek@?$ValueStackOf@PEAVComplexTypeInfo@xercesc_3_1@@@xercesc_3_1@@QEBAAEBQEAVComplexTypeInfo@2@XZ 0000000012050c44 f i IGXMLScanner.obj
 0001:0004fd04       ?get@?$RefHash2KeysTableOf@VValueStore@xercesc_3_1@@UPtrHasher@2@@xercesc_3_1@@QEAAPEAVValueStore@2@QEBXH@Z 0000000012050d04 f i IGXMLScanner.obj
 0001:0004fd3c       ??1?$BaseRefVectorOf@VKVStringPair@xercesc_3_1@@@xercesc_3_1@@UEAA@XZ 0000000012050d3c f i IGXMLScanner.obj
 0001:0004fd48       ??0?$RefVectorOf@VKVStringPair@xercesc_3_1@@@xercesc_3_1@@QEAA@_K_NQEAVMemoryManager@1@@Z 0000000012050d48 f i IGXMLScanner.obj
 0001:0004fdb8       ??0?$RefHash2KeysTableOf@VSchemaInfo@xercesc_3_1@@UStringHasher@2@@xercesc_3_1@@QEAA@_KQEAVMemoryManager@1@@Z 0000000012050db8 f i IGXMLScanner.obj
 0001:0004fe0c       ?removeAll@?$RefHash2KeysTableOf@VSchemaInfo@xercesc_3_1@@UStringHasher@2@@xercesc_3_1@@QEAAXXZ 0000000012050e0c f i IGXMLScanner.obj
 0001:0004feb4       ?pop@?$ValueStackOf@_N@xercesc_3_1@@QEAA_NXZ 0000000012050eb4 f i IGXMLScanner.obj
 0001:0004ffc0       ??_G?$BaseRefVectorEnumerator@VSchemaInfo@xercesc_3_1@@@xercesc_3_1@@UEAAPEAXI@Z 0000000012050fc0 f i IGXMLScanner.obj
 0001:0004ffc0       ??_E?$BaseRefVectorEnumerator@VSchemaInfo@xercesc_3_1@@@xercesc_3_1@@UEAAPEAXI@Z 0000000012050fc0 f i  CIL library: CIL module
 0001:0004fffc       ??_G?$BaseRefVectorOf@VSchemaInfo@xercesc_3_1@@@xercesc_3_1@@UEAAPEAXI@Z 0000000012050ffc f i IGXMLScanner.obj
 0001:0004fffc       ??_E?$BaseRefVectorOf@VSchemaInfo@xercesc_3_1@@@xercesc_3_1@@UEAAPEAXI@Z 0000000012050ffc f i  CIL library: CIL module
 0001:0005002c       ??_G?$RefVectorOf@VSchemaInfo@xercesc_3_1@@@xercesc_3_1@@UEAAPEAXI@Z 000000001205102c f i IGXMLScanner.obj
 0001:0005002c       ??_E?$RefVectorOf@VSchemaInfo@xercesc_3_1@@@xercesc_3_1@@UEAAPEAXI@Z 000000001205102c f i  CIL library: CIL module
 0001:000500dc       ??_G?$BaseRefVectorOf@VKVStringPair@xercesc_3_1@@@xercesc_3_1@@UEAAPEAXI@Z 00000000120510dc f i IGXMLScanner.obj
 0001:000500dc       ??_E?$BaseRefVectorOf@VKVStringPair@xercesc_3_1@@@xercesc_3_1@@UEAAPEAXI@Z 00000000120510dc f i  CIL library: CIL module
 0001:0005010c       ??_E?$RefVectorOf@VKVStringPair@xercesc_3_1@@@xercesc_3_1@@UEAAPEAXI@Z 000000001205110c f i  CIL library: CIL module
 0001:0005010c       ??_G?$RefVectorOf@VKVStringPair@xercesc_3_1@@@xercesc_3_1@@UEAAPEAXI@Z 000000001205110c f i IGXMLScanner.obj
 0001:000501a8       ?addElement@?$ValueVectorOf@_N@xercesc_3_1@@QEAAXAEB_N@Z 00000000120511a8 f i IGXMLScanner.obj
 0001:00050294       ??_FContentLeafNameTypeVector@xercesc_3_1@@QEAAXXZ 0000000012051294 f i IGXMLScanner2.obj
 0001:000502b0       ?cleanUp@ContentLeafNameTypeVector@xercesc_3_1@@AEAAXXZ 00000000120512b0 f i IGXMLScanner2.obj
 0001:000502b0       ??1ContentLeafNameTypeVector@xercesc_3_1@@QEAA@XZ 00000000120512b0 f i ContentLeafNameTypeVector.obj
 0001:000502dc       ?init@ContentLeafNameTypeVector@xercesc_3_1@@AEAAX_K@Z 00000000120512dc f i IGXMLScanner2.obj
 0001:00050320       ??0DOMAttr@xercesc_3_1@@IEAA@XZ 0000000012051320 f i IGXMLScanner2.obj
 0001:00050320       ??0DOMAttr@xercesc_3_1@@IEAA@AEBV01@@Z 0000000012051320 f i IGXMLScanner2.obj
 0001:00050330       ??_FGeneralAttributeCheck@xercesc_3_1@@QEAAXXZ 0000000012051330 f i IGXMLScanner2.obj
 0001:00050344       ?getFacetId@GeneralAttributeCheck@xercesc_3_1@@QEAAGQEB_WQEAVMemoryManager@2@@Z 0000000012051344 f i IGXMLScanner2.obj
 0001:0005035c       ?getPrefix@TraverseSchema@xercesc_3_1@@AEAAPEB_WQEB_W@Z 000000001205135c f i IGXMLScanner2.obj
 0001:00050424       ?getLocalPart@TraverseSchema@xercesc_3_1@@AEAAPEB_WQEB_W@Z 0000000012051424 f i IGXMLScanner2.obj
 0001:0005052c       ?checkForEmptyTargetNamespace@TraverseSchema@xercesc_3_1@@AEAAXQEBVDOMElement@2@@Z 000000001205152c f i IGXMLScanner2.obj
 0001:00050580       ?isBaseFromAnotherSchema@TraverseSchema@xercesc_3_1@@AEAA_NQEB_W@Z 0000000012051580 f i IGXMLScanner2.obj
 0001:0005062c       ?isAttrOrAttrGroup@TraverseSchema@xercesc_3_1@@AEAA_NQEBVDOMElement@2@@Z 000000001205162c f i IGXMLScanner2.obj
 0001:00050708       ?genAnonTypeName@TraverseSchema@xercesc_3_1@@AEAAPEB_WQEB_W@Z 0000000012051708 f i IGXMLScanner2.obj
 0001:000507c4       ?popCurrentTypeNameStack@TraverseSchema@xercesc_3_1@@AEAAXXZ 00000000120517c4 f i IGXMLScanner2.obj
 0001:000507e8       ?copyWildCardData@TraverseSchema@xercesc_3_1@@AEAAXQEBVSchemaAttDef@2@QEAV32@@Z 00000000120517e8 f i IGXMLScanner2.obj
 0001:00050808       ?getRedefineNewTypeName@TraverseSchema@xercesc_3_1@@AEAAXQEB_WHAEAVXMLBuffer@2@@Z 0000000012051808 f i IGXMLScanner2.obj
 0001:0005085c       ?isImportingNS@TraverseSchema@xercesc_3_1@@AEAA_NH@Z 000000001205185c f i IGXMLScanner2.obj
 0001:00050894       ?addImportedNS@TraverseSchema@xercesc_3_1@@AEAAXH@Z 0000000012051894 f i IGXMLScanner2.obj
 0001:0005093c       ??0EndOfEntityException@xercesc_3_1@@QEAA@PEAVXMLEntityDecl@1@_K@Z 000000001205193c f i DGXMLScanner.obj
 0001:0005093c       ??0SubstitutionGroupComparator@xercesc_3_1@@QEAA@QEAVGrammarResolver@1@QEAVXMLStringPool@1@@Z 000000001205193c f i IGXMLScanner2.obj
 0001:00050948       ??1Locator@xercesc_3_1@@UEAA@XZ 0000000012051948 f i XMLValidator.obj
 0001:00050948       ??1XSDLocator@xercesc_3_1@@UEAA@XZ 0000000012051948 f i IGXMLScanner2.obj
 0001:00050954       ??_EXSDLocator@xercesc_3_1@@UEAAPEAXI@Z 0000000012051954 f i IGXMLScanner2.obj
 0001:000509c8       ??_FXSDDOMParser@xercesc_3_1@@QEAAXXZ 00000000120519c8 f i IGXMLScanner2.obj
 0001:000509dc       ?getSawFatal@XSDDOMParser@xercesc_3_1@@QEBA_NXZ 00000000120519dc f i IGXMLScanner2.obj
 0001:000509e4       ??_FFieldValueMap@xercesc_3_1@@QEAAXXZ 00000000120519e4 f i IGXMLScanner2.obj
 0001:00050a00       ?getDatatypeValidatorAt@FieldValueMap@xercesc_3_1@@QEBAPEAVDatatypeValidator@2@_K@Z 0000000012051a00 f i IGXMLScanner2.obj
 0001:00050a20       ?getDatatypeValidatorFor@FieldValueMap@xercesc_3_1@@QEBAPEAVDatatypeValidator@2@QEBVIC_Field@2@@Z 0000000012051a20 f i IGXMLScanner2.obj
 0001:00050a5c       ?getValueAt@FieldValueMap@xercesc_3_1@@QEBAPEA_W_K@Z 0000000012051a5c f i IGXMLScanner2.obj
 0001:00050a7c       ?getValueFor@FieldValueMap@xercesc_3_1@@QEBAPEA_WQEBVIC_Field@2@@Z 0000000012051a7c f i IGXMLScanner2.obj
 0001:00050ac8       ?keyAt@FieldValueMap@xercesc_3_1@@QEBAPEAVIC_Field@2@_K@Z 0000000012051ac8 f i IGXMLScanner2.obj
 0001:00050ae8       ?size@FieldValueMap@xercesc_3_1@@QEBA_KXZ 0000000012051ae8 f i IGXMLScanner2.obj
 0001:00050af8       ?put@FieldValueMap@xercesc_3_1@@QEAAXQEAVIC_Field@2@QEAVDatatypeValidator@2@QEB_W@Z 0000000012051af8 f i IGXMLScanner2.obj
 0001:00050d7c       ?buildAttList@IGXMLScanner@xercesc_3_1@@AEAA_KAEBV?$RefVectorOf@VKVStringPair@xercesc_3_1@@@2@_KPEAVXMLElementDecl@2@AEAV?$RefVectorOf@VXMLAttr@xercesc_3_1@@@2@@Z 0000000012051d7c f   IGXMLScanner2.obj
 0001:00052754       ?normalizeAttValue@IGXMLScanner@xercesc_3_1@@AEAA_NQEBVXMLAttDef@2@QEB_W1AEAVXMLBuffer@2@@Z 0000000012053754 f   IGXMLScanner2.obj
 0001:00052a18       ?normalizeAttRawValue@IGXMLScanner@xercesc_3_1@@AEAA_NQEB_W0AEAVXMLBuffer@2@@Z 0000000012053a18 f   IGXMLScanner2.obj
 0001:00052a18       ?normalizeAttRawValue@SGXMLScanner@xercesc_3_1@@AEAA_NQEB_W0AEAVXMLBuffer@2@@Z 0000000012053a18 f   SGXMLScanner.obj
 0001:00052b08       ?scanReset@IGXMLScanner@xercesc_3_1@@EEAAXAEBVInputSource@2@@Z 0000000012053b08 f   IGXMLScanner2.obj
 0001:00053104       ?sendCharData@IGXMLScanner@xercesc_3_1@@EEAAXAEAVXMLBuffer@2@@Z 0000000012054104 f   IGXMLScanner2.obj
 0001:000533b0       ?updateNSMap@IGXMLScanner@xercesc_3_1@@AEAAXQEB_W0@Z 00000000120543b0 f   IGXMLScanner2.obj
 0001:000533b0       ?updateNSMap@SGXMLScanner@xercesc_3_1@@IEAAXQEB_W0@Z 00000000120543b0 f   SGXMLScanner.obj
 0001:000533e4       ?updateNSMap@SGXMLScanner@xercesc_3_1@@IEAAXQEB_W0H@Z 00000000120543e4 f   SGXMLScanner.obj
 0001:000533e4       ?updateNSMap@IGXMLScanner@xercesc_3_1@@AEAAXQEB_W0H@Z 00000000120543e4 f   IGXMLScanner2.obj
 0001:0005369c       ?scanRawAttrListforNameSpaces@IGXMLScanner@xercesc_3_1@@AEAAX_K@Z 000000001205469c f   IGXMLScanner2.obj
 0001:00053e70       ?parseSchemaLocation@IGXMLScanner@xercesc_3_1@@AEAAXQEB_W_N@Z 0000000012054e70 f   IGXMLScanner2.obj
 0001:00054024       ?resolveSchemaGrammar@IGXMLScanner@xercesc_3_1@@AEAAXQEB_W0_N@Z 0000000012055024 f   IGXMLScanner2.obj
 0001:00054b60       ?resolveSystemId@IGXMLScanner@xercesc_3_1@@EEAAPEAVInputSource@2@QEB_W0@Z 0000000012055b60 f   IGXMLScanner2.obj
 0001:00054f34       ?loadXMLSchemaGrammar@IGXMLScanner@xercesc_3_1@@AEAAPEAVGrammar@2@AEBVInputSource@2@_N@Z 0000000012055f34 f   IGXMLScanner2.obj
 0001:000553a4       ?basicAttrValueScan@IGXMLScanner@xercesc_3_1@@AEAA_NQEB_WAEAVXMLBuffer@2@@Z 00000000120563a4 f   IGXMLScanner2.obj
 0001:000556c4       ?scanAttValue@IGXMLScanner@xercesc_3_1@@AEAA_NQEBVXMLAttDef@2@QEB_WAEAVXMLBuffer@2@@Z 00000000120566c4 f   IGXMLScanner2.obj
 0001:00055bcc       ?scanCDSection@IGXMLScanner@xercesc_3_1@@EEAAXXZ 0000000012056bcc f   IGXMLScanner2.obj
 0001:000560c0       ?scanCharData@IGXMLScanner@xercesc_3_1@@EEAAXAEAVXMLBuffer@2@@Z 00000000120570c0 f   IGXMLScanner2.obj
 0001:000564cc       ?scanEntityRef@IGXMLScanner@xercesc_3_1@@EEAA?AW4EntityExpRes@XMLScanner@2@_NAEA_W1AEA_N@Z 00000000120574cc f   IGXMLScanner2.obj
 0001:00056ad0       ?switchGrammar@IGXMLScanner@xercesc_3_1@@AEAA_NQEB_W@Z 0000000012057ad0 f   IGXMLScanner2.obj
 0001:00056c50       ?laxElementValidation@IGXMLScanner@xercesc_3_1@@AEAA_NPEAVQName@2@PEAVContentLeafNameTypeVector@2@QEBVXMLContentModel@2@_K@Z 0000000012057c50 f   IGXMLScanner2.obj
 0001:00056f00       ?anyAttributeValidation@SGXMLScanner@xercesc_3_1@@AEAA_NPEAVSchemaAttDef@2@IAEA_N1@Z 0000000012057f00 f   SGXMLScanner.obj
 0001:00056f00       ?anyAttributeValidation@IGXMLScanner@xercesc_3_1@@AEAA_NPEAVSchemaAttDef@2@IAEA_N1@Z 0000000012057f00 f   IGXMLScanner2.obj
 0001:00056ff0       ?removeElementAt@?$ValueVectorOf@I@xercesc_3_1@@QEAAX_K@Z 0000000012057ff0 f i IGXMLScanner2.obj
 0001:0005707c       ?get@?$ValueHashTableOf@GUStringHasher@xercesc_3_1@@@xercesc_3_1@@QEAAAEAGQEBXQEAVMemoryManager@2@@Z 000000001205807c f i IGXMLScanner2.obj
 0001:000570f0       ??0?$ValueVectorOf@H@xercesc_3_1@@QEAA@_KQEAVMemoryManager@1@_N@Z 00000000120580f0 f i IGXMLScanner2.obj
 0001:0005713c       ??0?$RefHash2KeysTableOfEnumerator@VSchemaInfo@xercesc_3_1@@UStringHasher@2@@xercesc_3_1@@QEAA@QEAV?$RefHash2KeysTableOf@VSchemaInfo@xercesc_3_1@@UStringHasher@2@@1@_NQEAVMemoryManager@1@@Z 000000001205813c f i IGXMLScanner2.obj
 0001:000571d8       ??1?$RefHash2KeysTableOfEnumerator@VSchemaInfo@xercesc_3_1@@UStringHasher@2@@xercesc_3_1@@UEAA@XZ 00000000120581d8 f i IGXMLScanner2.obj
 0001:0005724c       ?Reset@?$RefHash2KeysTableOfEnumerator@VSchemaInfo@xercesc_3_1@@UStringHasher@2@@xercesc_3_1@@UEAAXXZ 000000001205824c f i IGXMLScanner2.obj
 0001:0005724c       ?Reset@?$RefHash2KeysTableOfEnumerator@V?$ValueVectorOf@PEAVSchemaElementDecl@xercesc_3_1@@@xercesc_3_1@@UStringHasher@2@@xercesc_3_1@@UEAAXXZ 000000001205824c f i XTemplateSerializer.obj
 0001:0005724c       ?Reset@?$RefHash2KeysTableOfEnumerator@VSchemaAttDef@xercesc_3_1@@UStringHasher@2@@xercesc_3_1@@UEAAXXZ 000000001205824c f i XMLElementDecl.obj
 0001:000572b4       ??_E?$RefHash2KeysTableOfEnumerator@VSchemaInfo@xercesc_3_1@@UStringHasher@2@@xercesc_3_1@@UEAAPEAXI@Z 00000000120582b4 f i  CIL library: CIL module
 0001:000572b4       ??_G?$RefHash2KeysTableOfEnumerator@VSchemaInfo@xercesc_3_1@@UStringHasher@2@@xercesc_3_1@@UEAAPEAXI@Z 00000000120582b4 f i IGXMLScanner2.obj
 0001:000572f0       ?allocate@MemoryManagerImpl@xercesc_3_1@@UEAAPEAX_K@Z 00000000120582f0 f   MemoryManagerImpl.obj
 0001:00057330       ?deallocate@MemoryManagerImpl@xercesc_3_1@@UEAAXPEAX@Z 0000000012058330 f   MemoryManagerImpl.obj
 0001:00057348       ??_EReaderMgr@xercesc_3_1@@UEAAPEAXI@Z 0000000012058348 f i ReaderMgr.obj
 0001:000573bc       ??0ReaderMgr@xercesc_3_1@@QEAA@QEAVMemoryManager@1@@Z 00000000120583bc f   ReaderMgr.obj
 0001:000573f4       ??1ReaderMgr@xercesc_3_1@@UEAA@XZ 00000000120583f4 f   ReaderMgr.obj
 0001:0005748c       ?isEmpty@ReaderMgr@xercesc_3_1@@QEBA_NXZ 000000001205848c f   ReaderMgr.obj
 0001:0005749c       ?getNextChar@ReaderMgr@xercesc_3_1@@QEAA_WXZ 000000001205849c f   ReaderMgr.obj
 0001:000574ec       ?getSpaces@ReaderMgr@xercesc_3_1@@QEAAXAEAVXMLBuffer@2@@Z 00000000120584ec f   ReaderMgr.obj
 0001:00057530       ?getUpToCharOrWS@ReaderMgr@xercesc_3_1@@QEAAXAEAVXMLBuffer@2@_W@Z 0000000012058530 f   ReaderMgr.obj
 0001:00057584       ?peekNextChar@ReaderMgr@xercesc_3_1@@QEAA_WXZ 0000000012058584 f   ReaderMgr.obj
 0001:000575d4       ?skippedChar@ReaderMgr@xercesc_3_1@@QEAA_N_W@Z 00000000120585d4 f   ReaderMgr.obj
 0001:00057624       ?skippedSpace@ReaderMgr@xercesc_3_1@@QEAA_NXZ 0000000012058624 f   ReaderMgr.obj
 0001:00057668       ?skipIfQuote@ReaderMgr@xercesc_3_1@@QEAA_NAEA_W@Z 0000000012058668 f   ReaderMgr.obj
 0001:000576b8       ?skipPastSpaces@ReaderMgr@xercesc_3_1@@QEAAXAEA_N_N@Z 00000000120586b8 f   ReaderMgr.obj
 0001:00057708       ?skipPastSpaces@ReaderMgr@xercesc_3_1@@QEAAXXZ 0000000012058708 f   ReaderMgr.obj
 0001:00057740       ?skipQuotedString@ReaderMgr@xercesc_3_1@@QEAAX_W@Z 0000000012058740 f   ReaderMgr.obj
 0001:00057770       ?skipUntilIn@ReaderMgr@xercesc_3_1@@QEAA_WQEB_W@Z 0000000012058770 f   ReaderMgr.obj
 0001:000577b8       ?skipUntilInOrWS@ReaderMgr@xercesc_3_1@@QEAA_WQEB_W@Z 00000000120587b8 f   ReaderMgr.obj
 0001:00057818       ?atEOF@ReaderMgr@xercesc_3_1@@QEBA_NXZ 0000000012058818 f   ReaderMgr.obj
 0001:00057838       ?cleanStackBackTo@ReaderMgr@xercesc_3_1@@QEAAX_K@Z 0000000012058838 f   ReaderMgr.obj
 0001:00057914       ?createReader@ReaderMgr@xercesc_3_1@@QEAAPEAVXMLReader@2@AEBVInputSource@2@_NW4RefFrom@32@W4Types@32@W4Sources@32@1_K@Z 0000000012058914 f   ReaderMgr.obj
 0001:00057ad4       ?createReader@ReaderMgr@xercesc_3_1@@QEAAPEAVXMLReader@2@QEB_W0_NW4RefFrom@32@W4Types@32@W4Sources@32@AEAPEAVInputSource@2@1_K1@Z 0000000012058ad4 f   ReaderMgr.obj
 0001:00057fa0       ?createReader@ReaderMgr@xercesc_3_1@@QEAAPEAVXMLReader@2@QEB_W00_NW4RefFrom@32@W4Types@32@W4Sources@32@AEAPEAVInputSource@2@1_K1@Z 0000000012058fa0 f   ReaderMgr.obj
 0001:0005846c       ?createIntEntReader@ReaderMgr@xercesc_3_1@@QEAAPEAVXMLReader@2@QEB_WW4RefFrom@32@W4Types@32@0_K_N4_K@Z 000000001205946c f   ReaderMgr.obj
 0001:000585c8       ?getCurrentEncodingStr@ReaderMgr@xercesc_3_1@@QEBAPEB_WXZ 00000000120595c8 f   ReaderMgr.obj
 0001:000585e4       ?getReaderDepth@ReaderMgr@xercesc_3_1@@QEBA_KXZ 00000000120595e4 f   ReaderMgr.obj
 0001:00058600       ?getLastExtEntityInfo@ReaderMgr@xercesc_3_1@@QEBAXAEAULastExtEntityInfo@12@@Z 0000000012059600 f   ReaderMgr.obj
 0001:0005866c       ?isScanningPERefOutOfLiteral@ReaderMgr@xercesc_3_1@@QEBA_NXZ 000000001205966c f   ReaderMgr.obj
 0001:00058690       ?pushReader@ReaderMgr@xercesc_3_1@@QEAA_NQEAVXMLReader@2@QEAVXMLEntityDecl@2@@Z 0000000012059690 f   ReaderMgr.obj
 0001:000589dc       ?reset@ReaderMgr@xercesc_3_1@@QEAAXXZ 00000000120599dc f   ReaderMgr.obj
 0001:00058a40       ?getPublicId@ReaderMgr@xercesc_3_1@@UEBAPEB_WXZ 0000000012059a40 f   ReaderMgr.obj
 0001:00058a74       ?getSystemId@ReaderMgr@xercesc_3_1@@UEBAPEB_WXZ 0000000012059a74 f   ReaderMgr.obj
 0001:00058aa8       ?getColumnNumber@ReaderMgr@xercesc_3_1@@UEBA_KXZ 0000000012059aa8 f   ReaderMgr.obj
 0001:00058ad4       ?getLineNumber@ReaderMgr@xercesc_3_1@@UEBA_KXZ 0000000012059ad4 f   ReaderMgr.obj
 0001:00058b00       ?getLastExtEntity@ReaderMgr@xercesc_3_1@@AEBAPEBVXMLReader@2@AEAPEBVXMLEntityDecl@2@@Z 0000000012059b00 f   ReaderMgr.obj
 0001:00058b98       ?popReader@ReaderMgr@xercesc_3_1@@AEAA_NXZ 0000000012059b98 f   ReaderMgr.obj
 0001:00058ccc       ??1?$BaseRefVectorOf@VXMLReader@xercesc_3_1@@@xercesc_3_1@@UEAA@XZ 0000000012059ccc f i ReaderMgr.obj
 0001:00058cd8       ?setElementAt@?$BaseRefVectorOf@VXMLReader@xercesc_3_1@@@xercesc_3_1@@UEAAXQEAVXMLReader@2@_K@Z 0000000012059cd8 f i ReaderMgr.obj
 0001:00058d94       ?removeAllElements@?$BaseRefVectorOf@VXMLReader@xercesc_3_1@@@xercesc_3_1@@UEAAXXZ 0000000012059d94 f i ReaderMgr.obj
 0001:00058e00       ?removeElementAt@?$BaseRefVectorOf@VXMLReader@xercesc_3_1@@@xercesc_3_1@@UEAAX_K@Z 0000000012059e00 f i ReaderMgr.obj
 0001:00058ef0       ?removeLastElement@?$BaseRefVectorOf@VXMLReader@xercesc_3_1@@@xercesc_3_1@@UEAAXXZ 0000000012059ef0 f i ReaderMgr.obj
 0001:00058f38       ?cleanup@?$BaseRefVectorOf@VXMLReader@xercesc_3_1@@@xercesc_3_1@@UEAAXXZ 0000000012059f38 f i ReaderMgr.obj
 0001:00058fa4       ??1?$RefVectorOf@VXMLReader@xercesc_3_1@@@xercesc_3_1@@UEAA@XZ 0000000012059fa4 f i ReaderMgr.obj
 0001:00059030       ??1?$BaseRefVectorOf@VXMLEntityDecl@xercesc_3_1@@@xercesc_3_1@@UEAA@XZ 000000001205a030 f i ReaderMgr.obj
 0001:0005903c       ??1?$RefVectorOf@VXMLEntityDecl@xercesc_3_1@@@xercesc_3_1@@UEAA@XZ 000000001205a03c f i ReaderMgr.obj
 0001:000590b4       ?elementAt@?$RefStackOf@VXMLEntityDecl@xercesc_3_1@@@xercesc_3_1@@QEBAPEBVXMLEntityDecl@2@_K@Z 000000001205a0b4 f i ReaderMgr.obj
 0001:000590b4       ?elementAt@?$RefStackOf@VXMLReader@xercesc_3_1@@@xercesc_3_1@@QEBAPEBVXMLReader@2@_K@Z 000000001205a0b4 f i ReaderMgr.obj
 0001:00059120       ?pop@?$RefStackOf@VXMLReader@xercesc_3_1@@@xercesc_3_1@@QEAAPEAVXMLReader@2@XZ 000000001205a120 f i ReaderMgr.obj
 0001:00059120       ?pop@?$RefStackOf@VXMLEntityDecl@xercesc_3_1@@@xercesc_3_1@@QEAAPEAVXMLEntityDecl@2@XZ 000000001205a120 f i ReaderMgr.obj
 0001:0005918c       ??_E?$BaseRefVectorOf@VXMLReader@xercesc_3_1@@@xercesc_3_1@@UEAAPEAXI@Z 000000001205a18c f i  CIL library: CIL module
 0001:0005918c       ??_G?$BaseRefVectorOf@VXMLReader@xercesc_3_1@@@xercesc_3_1@@UEAAPEAXI@Z 000000001205a18c f i ReaderMgr.obj
 0001:000591bc       ??_G?$RefVectorOf@VXMLReader@xercesc_3_1@@@xercesc_3_1@@UEAAPEAXI@Z 000000001205a1bc f i ReaderMgr.obj
 0001:000591bc       ??_E?$RefVectorOf@VXMLReader@xercesc_3_1@@@xercesc_3_1@@UEAAPEAXI@Z 000000001205a1bc f i  CIL library: CIL module
 0001:000591f8       ??_G?$BaseRefVectorOf@VXMLEntityDecl@xercesc_3_1@@@xercesc_3_1@@UEAAPEAXI@Z 000000001205a1f8 f i ReaderMgr.obj
 0001:000591f8       ??_E?$BaseRefVectorOf@VXMLEntityDecl@xercesc_3_1@@@xercesc_3_1@@UEAAPEAXI@Z 000000001205a1f8 f i  CIL library: CIL module
 0001:00059228       ??_G?$RefVectorOf@VXMLEntityDecl@xercesc_3_1@@@xercesc_3_1@@UEAAPEAXI@Z 000000001205a228 f i ReaderMgr.obj
 0001:00059228       ??_E?$RefVectorOf@VXMLEntityDecl@xercesc_3_1@@@xercesc_3_1@@UEAAPEAXI@Z 000000001205a228 f i  CIL library: CIL module
 0001:00059264       ?orphanElementAt@?$BaseRefVectorOf@VXMLReader@xercesc_3_1@@@xercesc_3_1@@QEAAPEAVXMLReader@2@_K@Z 000000001205a264 f i ReaderMgr.obj
 0001:00059264       ?orphanElementAt@?$BaseRefVectorOf@VDOMNode@xercesc_3_1@@@xercesc_3_1@@QEAAPEAVDOMNode@2@_K@Z 000000001205a264 f i DOMDocumentImpl.obj
 0001:00059264       ?orphanElementAt@?$BaseRefVectorOf@VDOMBuffer@xercesc_3_1@@@xercesc_3_1@@QEAAPEAVDOMBuffer@2@_K@Z 000000001205a264 f i DOMDocumentImpl.obj
 0001:00059264       ?orphanElementAt@?$BaseRefVectorOf@VXMLEntityDecl@xercesc_3_1@@@xercesc_3_1@@QEAAPEAVXMLEntityDecl@2@_K@Z 000000001205a264 f i ReaderMgr.obj
 0001:00059264       ?orphanElementAt@?$BaseRefVectorOf@V?$RefHashTableOf@VValueStore@xercesc_3_1@@UPtrHasher@2@@xercesc_3_1@@@xercesc_3_1@@QEAAPEAV?$RefHashTableOf@VValueStore@xercesc_3_1@@UPtrHasher@2@@2@_K@Z 000000001205a264 f i ValueStoreCache.obj
 0001:00059318       ??_ESGXMLScanner@xercesc_3_1@@UEAAPEAXI@Z 000000001205a318 f i SGXMLScanner.obj
 0001:0005938c       ?getName@SGXMLScanner@xercesc_3_1@@UEBAPEB_WXZ 000000001205a38c f i SGXMLScanner.obj
 0001:00059394       ??0SGXMLScanner@xercesc_3_1@@QEAA@QEAVXMLValidator@1@QEAVGrammarResolver@1@QEAVMemoryManager@1@@Z 000000001205a394 f   SGXMLScanner.obj
 0001:000594f4       ??0SGXMLScanner@xercesc_3_1@@QEAA@QEAVXMLDocumentHandler@1@QEAVDocTypeHandler@1@QEAVXMLEntityHandler@1@QEAVXMLErrorReporter@1@QEAVXMLValidator@1@QEAVGrammarResolver@1@QEAVMemoryManager@1@@Z 000000001205a4f4 f   SGXMLScanner.obj
 0001:00059684       ??1SGXMLScanner@xercesc_3_1@@UEAA@XZ 000000001205a684 f   SGXMLScanner.obj
 0001:000596cc       ?scanDocument@SGXMLScanner@xercesc_3_1@@UEAAXAEBVInputSource@2@@Z 000000001205a6cc f   SGXMLScanner.obj
 0001:000597c4       ?scanNext@SGXMLScanner@xercesc_3_1@@UEAA_NAEAVXMLPScanToken@2@@Z 000000001205a7c4 f   SGXMLScanner.obj
 0001:00059a38       ?rawAttrScan@SGXMLScanner@xercesc_3_1@@IEAA_KQEB_WAEAV?$RefVectorOf@VKVStringPair@xercesc_3_1@@@2@AEA_N@Z 000000001205aa38 f   SGXMLScanner.obj
 0001:00059ee8       ?scanContent@SGXMLScanner@xercesc_3_1@@AEAA_NXZ 000000001205aee8 f   SGXMLScanner.obj
 0001:0005a06c       ?scanEndTag@SGXMLScanner@xercesc_3_1@@MEAAXAEA_N@Z 000000001205b06c f   SGXMLScanner.obj
 0001:0005a648       ?scanStartTag@SGXMLScanner@xercesc_3_1@@MEAA_NAEA_N@Z 000000001205b648 f   SGXMLScanner.obj
 0001:0005b838       ?loadGrammar@SGXMLScanner@xercesc_3_1@@UEAAPEAVGrammar@2@AEBVInputSource@2@F_N@Z 000000001205c838 f   SGXMLScanner.obj
 0001:0005b920       ?resetCachedGrammar@SGXMLScanner@xercesc_3_1@@UEAAXXZ 000000001205c920 f   SGXMLScanner.obj
 0001:0005b92c       ?commonInit@SGXMLScanner@xercesc_3_1@@AEAAXXZ 000000001205c92c f   SGXMLScanner.obj
 0001:0005bd34       ?cleanUp@SGXMLScanner@xercesc_3_1@@AEAAXXZ 000000001205cd34 f   SGXMLScanner.obj
 0001:0005bf48       ?resizeRawAttrColonList@SGXMLScanner@xercesc_3_1@@IEAAXXZ 000000001205cf48 f   SGXMLScanner.obj
 0001:0005bfd8       ?buildAttList@SGXMLScanner@xercesc_3_1@@IEAA_KAEBV?$RefVectorOf@VKVStringPair@xercesc_3_1@@@2@_KPEAVXMLElementDecl@2@AEAV?$RefVectorOf@VXMLAttr@xercesc_3_1@@@2@@Z 000000001205cfd8 f   SGXMLScanner.obj
 0001:0005d6ac       ?normalizeAttValue@SGXMLScanner@xercesc_3_1@@AEAA_NQEBVXMLAttDef@2@QEB_W1AEAVXMLBuffer@2@@Z 000000001205e6ac f   SGXMLScanner.obj
 0001:0005d96c       ?scanReset@SGXMLScanner@xercesc_3_1@@MEAAXAEBVInputSource@2@@Z 000000001205e96c f   SGXMLScanner.obj
 0001:0005deb0       ?sendCharData@SGXMLScanner@xercesc_3_1@@EEAAXAEAVXMLBuffer@2@@Z 000000001205eeb0 f   SGXMLScanner.obj
 0001:0005e108       ?scanRawAttrListforNameSpaces@SGXMLScanner@xercesc_3_1@@AEAAX_K@Z 000000001205f108 f   SGXMLScanner.obj
 0001:0005e7f4       ?parseSchemaLocation@SGXMLScanner@xercesc_3_1@@AEAAXQEB_W_N@Z 000000001205f7f4 f   SGXMLScanner.obj
 0001:0005e948       ?resolveSchemaGrammar@SGXMLScanner@xercesc_3_1@@AEAAXQEB_W0_N@Z 000000001205f948 f   SGXMLScanner.obj
 0001:0005f3a4       ?resolveSystemId@SGXMLScanner@xercesc_3_1@@EEAAPEAVInputSource@2@QEB_W0@Z 00000000120603a4 f   SGXMLScanner.obj
 0001:0005f778       ?loadXMLSchemaGrammar@SGXMLScanner@xercesc_3_1@@AEAAPEAVGrammar@2@AEBVInputSource@2@_N@Z 0000000012060778 f   SGXMLScanner.obj
 0001:0005fb64       ?basicAttrValueScan@SGXMLScanner@xercesc_3_1@@AEAA_NQEB_WAEAVXMLBuffer@2@@Z 0000000012060b64 f   SGXMLScanner.obj
 0001:0005fe84       ?scanCDSection@SGXMLScanner@xercesc_3_1@@EEAAXXZ 0000000012060e84 f   SGXMLScanner.obj
 0001:00060320       ?scanCharData@SGXMLScanner@xercesc_3_1@@EEAAXAEAVXMLBuffer@2@@Z 0000000012061320 f   SGXMLScanner.obj
 0001:000606d4       ?scanEntityRef@SGXMLScanner@xercesc_3_1@@EEAA?AW4EntityExpRes@XMLScanner@2@_NAEA_W1AEA_N@Z 00000000120616d4 f   SGXMLScanner.obj
 0001:0006098c       ?switchGrammar@SGXMLScanner@xercesc_3_1@@AEAA_NQEB_W@Z 000000001206198c f   SGXMLScanner.obj
 0001:00060a40       ?laxElementValidation@SGXMLScanner@xercesc_3_1@@IEAA_NPEAVQName@2@PEAVContentLeafNameTypeVector@2@QEBVXMLContentModel@2@_K@Z 0000000012061a40 f   SGXMLScanner.obj
 0001:00060cbc       ?endElementPSVI@SGXMLScanner@xercesc_3_1@@AEAAXQEAVSchemaElementDecl@2@QEAVDatatypeValidator@2@@Z 0000000012061cbc f   SGXMLScanner.obj
 0001:00060eb4       ?resetPSVIElemContext@SGXMLScanner@xercesc_3_1@@AEAAXXZ 0000000012061eb4 f   SGXMLScanner.obj
 0001:00060ee8       ??0?$ValueHashTableOf@_WUStringHasher@xercesc_3_1@@@xercesc_3_1@@QEAA@_KQEAVMemoryManager@1@@Z 0000000012061ee8 f i SGXMLScanner.obj
 0001:00060f44       ?containsKey@?$ValueHashTableOf@IUStringHasher@xercesc_3_1@@@xercesc_3_1@@QEBA_NQEBX@Z 0000000012061f44 f i DOMLSParserImpl.obj
 0001:00060f44       ?containsKey@?$ValueHashTableOf@_WUStringHasher@xercesc_3_1@@@xercesc_3_1@@QEBA_NQEBX@Z 0000000012061f44 f i SGXMLScanner.obj
 0001:0006100c       ?get@?$ValueHashTableOf@_WUStringHasher@xercesc_3_1@@@xercesc_3_1@@QEAAAEA_WQEBXQEAVMemoryManager@2@@Z 000000001206200c f i SGXMLScanner.obj
 0001:0006107c       ?put@?$ValueHashTableOf@_WUStringHasher@xercesc_3_1@@@xercesc_3_1@@QEAAXPEAXAEB_W@Z 000000001206207c f i SGXMLScanner.obj
 0001:0006107c       ?put@?$ValueHashTableOf@GUStringHasher@xercesc_3_1@@@xercesc_3_1@@QEAAXPEAXAEBG@Z 000000001206207c f i GeneralAttributeCheck.obj
 0001:00061120       ?findBucketElem@?$ValueHashTableOf@IUStringHasher@xercesc_3_1@@@xercesc_3_1@@AEAAPEAU?$ValueHashTableBucketElem@I@2@QEBXAEA_K@Z 0000000012062120 f i DOMLSParserImpl.obj
 0001:00061120       ?findBucketElem@?$ValueHashTableOf@W4DataType@XSValue@xercesc_3_1@@UStringHasher@3@@xercesc_3_1@@AEAAPEAU?$ValueHashTableBucketElem@W4DataType@XSValue@xercesc_3_1@@@2@QEBXAEA_K@Z 0000000012062120 f i XSValue.obj
 0001:00061120       ?findBucketElem@?$ValueHashTableOf@GUStringHasher@xercesc_3_1@@@xercesc_3_1@@AEAAPEAU?$ValueHashTableBucketElem@G@2@QEBXAEA_K@Z 0000000012062120 f i IGXMLScanner2.obj
 0001:00061120       ?findBucketElem@?$ValueHashTableOf@_WUStringHasher@xercesc_3_1@@@xercesc_3_1@@AEAAPEAU?$ValueHashTableBucketElem@_W@2@QEBXAEA_K@Z 0000000012062120 f i SGXMLScanner.obj
 0001:000611f0       ??_FValidationContextImpl@xercesc_3_1@@QEAAXXZ 00000000120621f0 f i ValidationContextImpl.obj
 0001:000611fc       ??_EValidationContextImpl@xercesc_3_1@@UEAAPEAXI@Z 00000000120621fc f i ValidationContextImpl.obj
 0001:00061270       ?setValidatingMemberType@ValidationContextImpl@xercesc_3_1@@UEAAXPEAVDatatypeValidator@2@@Z 0000000012062270 f i ValidationContextImpl.obj
 0001:00061270       ?setFilter@DOMLSSerializerImpl@xercesc_3_1@@UEAAXPEAVDOMLSSerializerFilter@2@@Z 0000000012062270 f i DOMLSSerializerImpl.obj
 0001:00061270       ?setFilter@DOMLSParserImpl@xercesc_3_1@@UEAAXQEAVDOMLSParserFilter@2@@Z 0000000012062270 f i DOMLSParserImpl.obj
 0001:00061270       ?setRelatedNode@DOMLocatorImpl@xercesc_3_1@@QEAAXQEAVDOMNode@2@@Z 0000000012062270 f i DOMLSParserImpl.obj
 0001:00061270       ?setGrammar@DTDValidator@xercesc_3_1@@UEAAXPEAVGrammar@2@@Z 0000000012062270 f i DGXMLScanner.obj
 0001:00061270       ?setBaseGroup@XercesGroupInfo@xercesc_3_1@@QEAAXQEAV12@@Z 0000000012062270 f i XMLGrammarPoolImpl.obj
 0001:00061270       ?setRelatedData@DOMErrorImpl@xercesc_3_1@@QEAAXPEAX@Z 0000000012062270 f i DOMLSParserImpl.obj
 0001:00061278       ??0InvalidDatatypeValueException@xercesc_3_1@@QEAA@QEBD_KW4Codes@XMLExcepts@1@PEAVMemoryManager@1@@Z 0000000012062278 f i ValidationContextImpl.obj
 0001:000612c4       ??0InvalidDatatypeValueException@xercesc_3_1@@QEAA@AEBV01@@Z 00000000120622c4 f i ValidationContextImpl.obj
 0001:000612e8       ??0InvalidDatatypeValueException@xercesc_3_1@@QEAA@QEBD_KW4Codes@XMLExcepts@1@QEB_W333PEAVMemoryManager@1@@Z 00000000120622e8 f i ValidationContextImpl.obj
 0001:0006135c       ??0InvalidDatatypeValueException@xercesc_3_1@@QEAA@QEBD_KW4Codes@XMLExcepts@1@0000PEAVMemoryManager@1@@Z 000000001206235c f i ValidationContextImpl.obj
 0001:000613d0       ??1InvalidDatatypeValueException@xercesc_3_1@@UEAA@XZ 00000000120623d0 f i ValidationContextImpl.obj
 0001:000613e0       ?duplicate@InvalidDatatypeValueException@xercesc_3_1@@UEBAPEAVXMLException@2@XZ 00000000120623e0 f i ValidationContextImpl.obj
 0001:00061444       ?getType@InvalidDatatypeValueException@xercesc_3_1@@UEBAPEB_WXZ 0000000012062444 f i ValidationContextImpl.obj
 0001:0006144c       ??_EInvalidDatatypeValueException@xercesc_3_1@@UEAAPEAXI@Z 000000001206244c f i ValidationContextImpl.obj
 0001:000614c8       ??1ValidationContextImpl@xercesc_3_1@@UEAA@XZ 00000000120624c8 f   ValidationContextImpl.obj
 0001:00061534       ??0ValidationContextImpl@xercesc_3_1@@QEAA@QEAVMemoryManager@1@@Z 0000000012062534 f   ValidationContextImpl.obj
 0001:00061600       ?setIdRefList@ValidationContextImpl@xercesc_3_1@@UEAAXQEAV?$RefHashTableOf@VXMLRefInfo@xercesc_3_1@@UStringHasher@2@@2@@Z 0000000012062600 f   ValidationContextImpl.obj
 0001:0006165c       ?clearIdRefList@ValidationContextImpl@xercesc_3_1@@UEAAXXZ 000000001206265c f   ValidationContextImpl.obj
 0001:00061674       ?addId@ValidationContextImpl@xercesc_3_1@@UEAAXQEB_W@Z 0000000012062674 f   ValidationContextImpl.obj
 0001:00061798       ?addIdRef@ValidationContextImpl@xercesc_3_1@@UEAAXQEB_W@Z 0000000012062798 f   ValidationContextImpl.obj
 0001:0006184c       ?toCheckIdRefList@ValidationContextImpl@xercesc_3_1@@UEAAX_N@Z 000000001206284c f   ValidationContextImpl.obj
 0001:00061850       ?setEntityDeclPool@ValidationContextImpl@xercesc_3_1@@UEAAPEBV?$NameIdPool@VDTDEntityDecl@xercesc_3_1@@@2@QEBV32@@Z 0000000012062850 f   ValidationContextImpl.obj
 0001:0006185c       ?checkEntity@ValidationContextImpl@xercesc_3_1@@UEBAXQEB_W@Z 000000001206285c f   ValidationContextImpl.obj
 0001:00061978       ?isPrefixUnknown@ValidationContextImpl@xercesc_3_1@@UEAA_NPEA_W@Z 0000000012062978 f   ValidationContextImpl.obj
 0001:00061a54       ?getURIForPrefix@ValidationContextImpl@xercesc_3_1@@UEAAPEB_WPEA_W@Z 0000000012062a54 f   ValidationContextImpl.obj
 0001:00061ac4       ?initialize@?$RefHashTableOf@VXercesGroupInfo@xercesc_3_1@@UStringHasher@2@@xercesc_3_1@@AEAAX_K@Z 0000000012062ac4 f i XTemplateSerializer.obj
 0001:00061ac4       ?initialize@?$RefHashTableOf@VDatatypeValidator@xercesc_3_1@@UStringHasher@2@@xercesc_3_1@@AEAAX_K@Z 0000000012062ac4 f i XTemplateSerializer.obj
 0001:00061ac4       ?initialize@?$RefHashTableOf@VKVStringPair@xercesc_3_1@@UStringHasher@2@@xercesc_3_1@@AEAAX_K@Z 0000000012062ac4 f i XTemplateSerializer.obj
 0001:00061ac4       ?initialize@?$RefHashTableOf@VComplexTypeInfo@xercesc_3_1@@UStringHasher@2@@xercesc_3_1@@AEAAX_K@Z 0000000012062ac4 f i XTemplateSerializer.obj
 0001:00061ac4       ?initialize@?$RefHashTableOf@VXMLAttDef@xercesc_3_1@@UStringHasher@2@@xercesc_3_1@@AEAAX_K@Z 0000000012062ac4 f i XTemplateSerializer.obj
 0001:00061ac4       ?initialize@?$RefHashTableOf@VXMLRefInfo@xercesc_3_1@@UStringHasher@2@@xercesc_3_1@@AEAAX_K@Z 0000000012062ac4 f i ValidationContextImpl.obj
 0001:00061ac4       ?initialize@?$RefHashTableOf@VXercesAttGroupInfo@xercesc_3_1@@UStringHasher@2@@xercesc_3_1@@AEAAX_K@Z 0000000012062ac4 f i XTemplateSerializer.obj
 0001:00061b58       ??0Attributes@xercesc_3_1@@QEAA@XZ 0000000012062b58 f i VecAttributesImpl.obj
 0001:00061b68       ??1Attributes@xercesc_3_1@@UEAA@XZ 0000000012062b68 f i VecAttributesImpl.obj
 0001:00061b74       ??_EAttributes@xercesc_3_1@@UEAAPEAXI@Z 0000000012062b74 f i VecAttributesImpl.obj
 0001:00061be0       ??_EVecAttributesImpl@xercesc_3_1@@UEAAPEAXI@Z 0000000012062be0 f i VecAttributesImpl.obj
 0001:00061c4c       ??0VecAttributesImpl@xercesc_3_1@@QEAA@XZ 0000000012062c4c f   VecAttributesImpl.obj
 0001:00061c6c       ??1VecAttributesImpl@xercesc_3_1@@UEAA@XZ 0000000012062c6c f   VecAttributesImpl.obj
 0001:00061cb8       ?getURI@VecAttributesImpl@xercesc_3_1@@UEBAPEB_W_K@Z 0000000012062cb8 f   VecAttributesImpl.obj
 0001:00061cf0       ?getLocalName@VecAttributesImpl@xercesc_3_1@@UEBAPEB_W_K@Z 0000000012062cf0 f   VecAttributesImpl.obj
 0001:00061d14       ?getName@VecAttrListImpl@xercesc_3_1@@UEBAPEB_W_K@Z 0000000012062d14 f   VecAttrListImpl.obj
 0001:00061d14       ?getQName@VecAttributesImpl@xercesc_3_1@@UEBAPEB_W_K@Z 0000000012062d14 f   VecAttributesImpl.obj
 0001:00061d3c       ?getType@VecAttrListImpl@xercesc_3_1@@UEBAPEB_W_K@Z 0000000012062d3c f   VecAttrListImpl.obj
 0001:00061d3c       ?getType@VecAttributesImpl@xercesc_3_1@@UEBAPEB_W_K@Z 0000000012062d3c f   VecAttributesImpl.obj
